
Oscyloskop.elf:     file format elf32-littlearm

Sections:
Idx Name          Size      VMA       LMA       File off  Algn
  0 .isr_vector   00000198  08000000  08000000  00001000  2**0
                  CONTENTS, ALLOC, LOAD, READONLY, DATA
  1 .text         000095a0  08000198  08000198  00001198  2**2
                  CONTENTS, ALLOC, LOAD, READONLY, CODE
  2 .rodata       00000078  08009738  08009738  0000a738  2**2
                  CONTENTS, ALLOC, LOAD, READONLY, DATA
  3 .ARM.extab    00000000  080097b0  080097b0  0000b110  2**0
                  CONTENTS, READONLY
  4 .ARM          00000008  080097b0  080097b0  0000a7b0  2**2
                  CONTENTS, ALLOC, LOAD, READONLY, DATA
  5 .preinit_array 00000000  080097b8  080097b8  0000b110  2**0
                  CONTENTS, ALLOC, LOAD, DATA
  6 .init_array   00000004  080097b8  080097b8  0000a7b8  2**2
                  CONTENTS, ALLOC, LOAD, READONLY, DATA
  7 .fini_array   00000004  080097bc  080097bc  0000a7bc  2**2
                  CONTENTS, ALLOC, LOAD, READONLY, DATA
  8 .data         00000110  20000000  080097c0  0000b000  2**2
                  CONTENTS, ALLOC, LOAD, DATA
  9 .bss          000025bc  20000110  080098d0  0000b110  2**2
                  ALLOC
 10 ._user_heap_stack 00000604  200026cc  080098d0  0000b6cc  2**0
                  ALLOC
 11 .ARM.attributes 00000030  00000000  00000000  0000b110  2**0
                  CONTENTS, READONLY
 12 .debug_info   0001a3a4  00000000  00000000  0000b140  2**0
                  CONTENTS, READONLY, DEBUGGING, OCTETS
 13 .debug_abbrev 000041dc  00000000  00000000  000254e4  2**0
                  CONTENTS, READONLY, DEBUGGING, OCTETS
 14 .debug_aranges 00001808  00000000  00000000  000296c0  2**3
                  CONTENTS, READONLY, DEBUGGING, OCTETS
 15 .debug_rnglists 0000127f  00000000  00000000  0002aec8  2**0
                  CONTENTS, READONLY, DEBUGGING, OCTETS
 16 .debug_macro  0001c76a  00000000  00000000  0002c147  2**0
                  CONTENTS, READONLY, DEBUGGING, OCTETS
 17 .debug_line   00020650  00000000  00000000  000488b1  2**0
                  CONTENTS, READONLY, DEBUGGING, OCTETS
 18 .debug_str    000a0dd7  00000000  00000000  00068f01  2**0
                  CONTENTS, READONLY, DEBUGGING, OCTETS
 19 .comment      00000043  00000000  00000000  00109cd8  2**0
                  CONTENTS, READONLY
 20 .debug_frame  00006024  00000000  00000000  00109d1c  2**2
                  CONTENTS, READONLY, DEBUGGING, OCTETS
 21 .debug_line_str 00000066  00000000  00000000  0010fd40  2**0
                  CONTENTS, READONLY, DEBUGGING, OCTETS

Disassembly of section .text:

08000198 <__do_global_dtors_aux>:
 8000198:	b510      	push	{r4, lr}
 800019a:	4c05      	ldr	r4, [pc, #20]	@ (80001b0 <__do_global_dtors_aux+0x18>)
 800019c:	7823      	ldrb	r3, [r4, #0]
 800019e:	b933      	cbnz	r3, 80001ae <__do_global_dtors_aux+0x16>
 80001a0:	4b04      	ldr	r3, [pc, #16]	@ (80001b4 <__do_global_dtors_aux+0x1c>)
 80001a2:	b113      	cbz	r3, 80001aa <__do_global_dtors_aux+0x12>
 80001a4:	4804      	ldr	r0, [pc, #16]	@ (80001b8 <__do_global_dtors_aux+0x20>)
 80001a6:	f3af 8000 	nop.w
 80001aa:	2301      	movs	r3, #1
 80001ac:	7023      	strb	r3, [r4, #0]
 80001ae:	bd10      	pop	{r4, pc}
 80001b0:	20000110 	.word	0x20000110
 80001b4:	00000000 	.word	0x00000000
 80001b8:	08009720 	.word	0x08009720

080001bc <frame_dummy>:
 80001bc:	b508      	push	{r3, lr}
 80001be:	4b03      	ldr	r3, [pc, #12]	@ (80001cc <frame_dummy+0x10>)
 80001c0:	b11b      	cbz	r3, 80001ca <frame_dummy+0xe>
 80001c2:	4903      	ldr	r1, [pc, #12]	@ (80001d0 <frame_dummy+0x14>)
 80001c4:	4803      	ldr	r0, [pc, #12]	@ (80001d4 <frame_dummy+0x18>)
 80001c6:	f3af 8000 	nop.w
 80001ca:	bd08      	pop	{r3, pc}
 80001cc:	00000000 	.word	0x00000000
 80001d0:	20000114 	.word	0x20000114
 80001d4:	08009720 	.word	0x08009720

080001d8 <__aeabi_uldivmod>:
 80001d8:	b953      	cbnz	r3, 80001f0 <__aeabi_uldivmod+0x18>
 80001da:	b94a      	cbnz	r2, 80001f0 <__aeabi_uldivmod+0x18>
 80001dc:	2900      	cmp	r1, #0
 80001de:	bf08      	it	eq
 80001e0:	2800      	cmpeq	r0, #0
 80001e2:	bf1c      	itt	ne
 80001e4:	f04f 31ff 	movne.w	r1, #4294967295
 80001e8:	f04f 30ff 	movne.w	r0, #4294967295
 80001ec:	f000 b988 	b.w	8000500 <__aeabi_idiv0>
 80001f0:	f1ad 0c08 	sub.w	ip, sp, #8
 80001f4:	e96d ce04 	strd	ip, lr, [sp, #-16]!
 80001f8:	f000 f806 	bl	8000208 <__udivmoddi4>
 80001fc:	f8dd e004 	ldr.w	lr, [sp, #4]
 8000200:	e9dd 2302 	ldrd	r2, r3, [sp, #8]
 8000204:	b004      	add	sp, #16
 8000206:	4770      	bx	lr

08000208 <__udivmoddi4>:
 8000208:	e92d 47f0 	stmdb	sp!, {r4, r5, r6, r7, r8, r9, sl, lr}
 800020c:	9d08      	ldr	r5, [sp, #32]
 800020e:	460f      	mov	r7, r1
 8000210:	4604      	mov	r4, r0
 8000212:	468c      	mov	ip, r1
 8000214:	2b00      	cmp	r3, #0
 8000216:	d148      	bne.n	80002aa <__udivmoddi4+0xa2>
 8000218:	428a      	cmp	r2, r1
 800021a:	4616      	mov	r6, r2
 800021c:	d961      	bls.n	80002e2 <__udivmoddi4+0xda>
 800021e:	fab2 f382 	clz	r3, r2
 8000222:	b14b      	cbz	r3, 8000238 <__udivmoddi4+0x30>
 8000224:	f1c3 0220 	rsb	r2, r3, #32
 8000228:	fa01 fc03 	lsl.w	ip, r1, r3
 800022c:	fa20 f202 	lsr.w	r2, r0, r2
 8000230:	409e      	lsls	r6, r3
 8000232:	ea42 0c0c 	orr.w	ip, r2, ip
 8000236:	409c      	lsls	r4, r3
 8000238:	ea4f 4e16 	mov.w	lr, r6, lsr #16
 800023c:	b2b7      	uxth	r7, r6
 800023e:	fbbc f1fe 	udiv	r1, ip, lr
 8000242:	0c22      	lsrs	r2, r4, #16
 8000244:	fb0e cc11 	mls	ip, lr, r1, ip
 8000248:	ea42 420c 	orr.w	r2, r2, ip, lsl #16
 800024c:	fb01 f007 	mul.w	r0, r1, r7
 8000250:	4290      	cmp	r0, r2
 8000252:	d909      	bls.n	8000268 <__udivmoddi4+0x60>
 8000254:	18b2      	adds	r2, r6, r2
 8000256:	f101 3cff 	add.w	ip, r1, #4294967295
 800025a:	f080 80ee 	bcs.w	800043a <__udivmoddi4+0x232>
 800025e:	4290      	cmp	r0, r2
 8000260:	f240 80eb 	bls.w	800043a <__udivmoddi4+0x232>
 8000264:	3902      	subs	r1, #2
 8000266:	4432      	add	r2, r6
 8000268:	1a12      	subs	r2, r2, r0
 800026a:	b2a4      	uxth	r4, r4
 800026c:	fbb2 f0fe 	udiv	r0, r2, lr
 8000270:	fb0e 2210 	mls	r2, lr, r0, r2
 8000274:	ea44 4402 	orr.w	r4, r4, r2, lsl #16
 8000278:	fb00 f707 	mul.w	r7, r0, r7
 800027c:	42a7      	cmp	r7, r4
 800027e:	d909      	bls.n	8000294 <__udivmoddi4+0x8c>
 8000280:	1934      	adds	r4, r6, r4
 8000282:	f100 32ff 	add.w	r2, r0, #4294967295
 8000286:	f080 80da 	bcs.w	800043e <__udivmoddi4+0x236>
 800028a:	42a7      	cmp	r7, r4
 800028c:	f240 80d7 	bls.w	800043e <__udivmoddi4+0x236>
 8000290:	4434      	add	r4, r6
 8000292:	3802      	subs	r0, #2
 8000294:	ea40 4001 	orr.w	r0, r0, r1, lsl #16
 8000298:	1be4      	subs	r4, r4, r7
 800029a:	2100      	movs	r1, #0
 800029c:	b11d      	cbz	r5, 80002a6 <__udivmoddi4+0x9e>
 800029e:	40dc      	lsrs	r4, r3
 80002a0:	2300      	movs	r3, #0
 80002a2:	e9c5 4300 	strd	r4, r3, [r5]
 80002a6:	e8bd 87f0 	ldmia.w	sp!, {r4, r5, r6, r7, r8, r9, sl, pc}
 80002aa:	428b      	cmp	r3, r1
 80002ac:	d906      	bls.n	80002bc <__udivmoddi4+0xb4>
 80002ae:	b10d      	cbz	r5, 80002b4 <__udivmoddi4+0xac>
 80002b0:	e9c5 0100 	strd	r0, r1, [r5]
 80002b4:	2100      	movs	r1, #0
 80002b6:	4608      	mov	r0, r1
 80002b8:	e8bd 87f0 	ldmia.w	sp!, {r4, r5, r6, r7, r8, r9, sl, pc}
 80002bc:	fab3 f183 	clz	r1, r3
 80002c0:	2900      	cmp	r1, #0
 80002c2:	d148      	bne.n	8000356 <__udivmoddi4+0x14e>
 80002c4:	42bb      	cmp	r3, r7
 80002c6:	d302      	bcc.n	80002ce <__udivmoddi4+0xc6>
 80002c8:	4282      	cmp	r2, r0
 80002ca:	f200 8107 	bhi.w	80004dc <__udivmoddi4+0x2d4>
 80002ce:	1a84      	subs	r4, r0, r2
 80002d0:	eb67 0203 	sbc.w	r2, r7, r3
 80002d4:	2001      	movs	r0, #1
 80002d6:	4694      	mov	ip, r2
 80002d8:	2d00      	cmp	r5, #0
 80002da:	d0e4      	beq.n	80002a6 <__udivmoddi4+0x9e>
 80002dc:	e9c5 4c00 	strd	r4, ip, [r5]
 80002e0:	e7e1      	b.n	80002a6 <__udivmoddi4+0x9e>
 80002e2:	2a00      	cmp	r2, #0
 80002e4:	f000 8092 	beq.w	800040c <__udivmoddi4+0x204>
 80002e8:	fab2 f382 	clz	r3, r2
 80002ec:	2b00      	cmp	r3, #0
 80002ee:	f040 80a8 	bne.w	8000442 <__udivmoddi4+0x23a>
 80002f2:	1a8a      	subs	r2, r1, r2
 80002f4:	ea4f 4e16 	mov.w	lr, r6, lsr #16
 80002f8:	fa1f fc86 	uxth.w	ip, r6
 80002fc:	2101      	movs	r1, #1
 80002fe:	0c20      	lsrs	r0, r4, #16
 8000300:	fbb2 f7fe 	udiv	r7, r2, lr
 8000304:	fb0e 2217 	mls	r2, lr, r7, r2
 8000308:	ea40 4202 	orr.w	r2, r0, r2, lsl #16
 800030c:	fb0c f007 	mul.w	r0, ip, r7
 8000310:	4290      	cmp	r0, r2
 8000312:	d907      	bls.n	8000324 <__udivmoddi4+0x11c>
 8000314:	18b2      	adds	r2, r6, r2
 8000316:	f107 38ff 	add.w	r8, r7, #4294967295
 800031a:	d202      	bcs.n	8000322 <__udivmoddi4+0x11a>
 800031c:	4290      	cmp	r0, r2
 800031e:	f200 80e2 	bhi.w	80004e6 <__udivmoddi4+0x2de>
 8000322:	4647      	mov	r7, r8
 8000324:	1a12      	subs	r2, r2, r0
 8000326:	b2a4      	uxth	r4, r4
 8000328:	fbb2 f0fe 	udiv	r0, r2, lr
 800032c:	fb0e 2210 	mls	r2, lr, r0, r2
 8000330:	ea44 4402 	orr.w	r4, r4, r2, lsl #16
 8000334:	fb0c fc00 	mul.w	ip, ip, r0
 8000338:	45a4      	cmp	ip, r4
 800033a:	d907      	bls.n	800034c <__udivmoddi4+0x144>
 800033c:	1934      	adds	r4, r6, r4
 800033e:	f100 32ff 	add.w	r2, r0, #4294967295
 8000342:	d202      	bcs.n	800034a <__udivmoddi4+0x142>
 8000344:	45a4      	cmp	ip, r4
 8000346:	f200 80cb 	bhi.w	80004e0 <__udivmoddi4+0x2d8>
 800034a:	4610      	mov	r0, r2
 800034c:	eba4 040c 	sub.w	r4, r4, ip
 8000350:	ea40 4007 	orr.w	r0, r0, r7, lsl #16
 8000354:	e7a2      	b.n	800029c <__udivmoddi4+0x94>
 8000356:	f1c1 0620 	rsb	r6, r1, #32
 800035a:	408b      	lsls	r3, r1
 800035c:	fa22 fc06 	lsr.w	ip, r2, r6
 8000360:	ea4c 0c03 	orr.w	ip, ip, r3
 8000364:	fa07 f401 	lsl.w	r4, r7, r1
 8000368:	fa20 f306 	lsr.w	r3, r0, r6
 800036c:	40f7      	lsrs	r7, r6
 800036e:	ea4f 491c 	mov.w	r9, ip, lsr #16
 8000372:	4323      	orrs	r3, r4
 8000374:	fa00 f801 	lsl.w	r8, r0, r1
 8000378:	fa1f fe8c 	uxth.w	lr, ip
 800037c:	fbb7 f0f9 	udiv	r0, r7, r9
 8000380:	0c1c      	lsrs	r4, r3, #16
 8000382:	fb09 7710 	mls	r7, r9, r0, r7
 8000386:	ea44 4407 	orr.w	r4, r4, r7, lsl #16
 800038a:	fb00 f70e 	mul.w	r7, r0, lr
 800038e:	42a7      	cmp	r7, r4
 8000390:	fa02 f201 	lsl.w	r2, r2, r1
 8000394:	d90a      	bls.n	80003ac <__udivmoddi4+0x1a4>
 8000396:	eb1c 0404 	adds.w	r4, ip, r4
 800039a:	f100 3aff 	add.w	sl, r0, #4294967295
 800039e:	f080 809b 	bcs.w	80004d8 <__udivmoddi4+0x2d0>
 80003a2:	42a7      	cmp	r7, r4
 80003a4:	f240 8098 	bls.w	80004d8 <__udivmoddi4+0x2d0>
 80003a8:	3802      	subs	r0, #2
 80003aa:	4464      	add	r4, ip
 80003ac:	1be4      	subs	r4, r4, r7
 80003ae:	b29f      	uxth	r7, r3
 80003b0:	fbb4 f3f9 	udiv	r3, r4, r9
 80003b4:	fb09 4413 	mls	r4, r9, r3, r4
 80003b8:	ea47 4404 	orr.w	r4, r7, r4, lsl #16
 80003bc:	fb03 fe0e 	mul.w	lr, r3, lr
 80003c0:	45a6      	cmp	lr, r4
 80003c2:	d909      	bls.n	80003d8 <__udivmoddi4+0x1d0>
 80003c4:	eb1c 0404 	adds.w	r4, ip, r4
 80003c8:	f103 37ff 	add.w	r7, r3, #4294967295
 80003cc:	f080 8082 	bcs.w	80004d4 <__udivmoddi4+0x2cc>
 80003d0:	45a6      	cmp	lr, r4
 80003d2:	d97f      	bls.n	80004d4 <__udivmoddi4+0x2cc>
 80003d4:	3b02      	subs	r3, #2
 80003d6:	4464      	add	r4, ip
 80003d8:	ea43 4000 	orr.w	r0, r3, r0, lsl #16
 80003dc:	eba4 040e 	sub.w	r4, r4, lr
 80003e0:	fba0 e702 	umull	lr, r7, r0, r2
 80003e4:	42bc      	cmp	r4, r7
 80003e6:	4673      	mov	r3, lr
 80003e8:	46b9      	mov	r9, r7
 80003ea:	d363      	bcc.n	80004b4 <__udivmoddi4+0x2ac>
 80003ec:	d060      	beq.n	80004b0 <__udivmoddi4+0x2a8>
 80003ee:	b15d      	cbz	r5, 8000408 <__udivmoddi4+0x200>
 80003f0:	ebb8 0203 	subs.w	r2, r8, r3
 80003f4:	eb64 0409 	sbc.w	r4, r4, r9
 80003f8:	fa04 f606 	lsl.w	r6, r4, r6
 80003fc:	fa22 f301 	lsr.w	r3, r2, r1
 8000400:	431e      	orrs	r6, r3
 8000402:	40cc      	lsrs	r4, r1
 8000404:	e9c5 6400 	strd	r6, r4, [r5]
 8000408:	2100      	movs	r1, #0
 800040a:	e74c      	b.n	80002a6 <__udivmoddi4+0x9e>
 800040c:	0862      	lsrs	r2, r4, #1
 800040e:	0848      	lsrs	r0, r1, #1
 8000410:	ea42 71c1 	orr.w	r1, r2, r1, lsl #31
 8000414:	0c0b      	lsrs	r3, r1, #16
 8000416:	ea43 4300 	orr.w	r3, r3, r0, lsl #16
 800041a:	b28a      	uxth	r2, r1
 800041c:	ea42 4203 	orr.w	r2, r2, r3, lsl #16
 8000420:	fbb3 f1f6 	udiv	r1, r3, r6
 8000424:	07e4      	lsls	r4, r4, #31
 8000426:	46b4      	mov	ip, r6
 8000428:	4637      	mov	r7, r6
 800042a:	46b6      	mov	lr, r6
 800042c:	231f      	movs	r3, #31
 800042e:	fbb0 f0f6 	udiv	r0, r0, r6
 8000432:	1bd2      	subs	r2, r2, r7
 8000434:	ea41 4100 	orr.w	r1, r1, r0, lsl #16
 8000438:	e761      	b.n	80002fe <__udivmoddi4+0xf6>
 800043a:	4661      	mov	r1, ip
 800043c:	e714      	b.n	8000268 <__udivmoddi4+0x60>
 800043e:	4610      	mov	r0, r2
 8000440:	e728      	b.n	8000294 <__udivmoddi4+0x8c>
 8000442:	f1c3 0120 	rsb	r1, r3, #32
 8000446:	fa20 f201 	lsr.w	r2, r0, r1
 800044a:	409e      	lsls	r6, r3
 800044c:	fa27 f101 	lsr.w	r1, r7, r1
 8000450:	409f      	lsls	r7, r3
 8000452:	433a      	orrs	r2, r7
 8000454:	ea4f 4e16 	mov.w	lr, r6, lsr #16
 8000458:	fa1f fc86 	uxth.w	ip, r6
 800045c:	fbb1 f7fe 	udiv	r7, r1, lr
 8000460:	fb0e 1017 	mls	r0, lr, r7, r1
 8000464:	0c11      	lsrs	r1, r2, #16
 8000466:	ea41 4100 	orr.w	r1, r1, r0, lsl #16
 800046a:	fb07 f80c 	mul.w	r8, r7, ip
 800046e:	4588      	cmp	r8, r1
 8000470:	fa04 f403 	lsl.w	r4, r4, r3
 8000474:	d93a      	bls.n	80004ec <__udivmoddi4+0x2e4>
 8000476:	1871      	adds	r1, r6, r1
 8000478:	f107 30ff 	add.w	r0, r7, #4294967295
 800047c:	d201      	bcs.n	8000482 <__udivmoddi4+0x27a>
 800047e:	4588      	cmp	r8, r1
 8000480:	d81f      	bhi.n	80004c2 <__udivmoddi4+0x2ba>
 8000482:	eba1 0108 	sub.w	r1, r1, r8
 8000486:	fbb1 f8fe 	udiv	r8, r1, lr
 800048a:	fb08 f70c 	mul.w	r7, r8, ip
 800048e:	fb0e 1118 	mls	r1, lr, r8, r1
 8000492:	b292      	uxth	r2, r2
 8000494:	ea42 4201 	orr.w	r2, r2, r1, lsl #16
 8000498:	42ba      	cmp	r2, r7
 800049a:	d22f      	bcs.n	80004fc <__udivmoddi4+0x2f4>
 800049c:	18b2      	adds	r2, r6, r2
 800049e:	f108 31ff 	add.w	r1, r8, #4294967295
 80004a2:	d2c6      	bcs.n	8000432 <__udivmoddi4+0x22a>
 80004a4:	42ba      	cmp	r2, r7
 80004a6:	d2c4      	bcs.n	8000432 <__udivmoddi4+0x22a>
 80004a8:	f1a8 0102 	sub.w	r1, r8, #2
 80004ac:	4432      	add	r2, r6
 80004ae:	e7c0      	b.n	8000432 <__udivmoddi4+0x22a>
 80004b0:	45f0      	cmp	r8, lr
 80004b2:	d29c      	bcs.n	80003ee <__udivmoddi4+0x1e6>
 80004b4:	ebbe 0302 	subs.w	r3, lr, r2
 80004b8:	eb67 070c 	sbc.w	r7, r7, ip
 80004bc:	3801      	subs	r0, #1
 80004be:	46b9      	mov	r9, r7
 80004c0:	e795      	b.n	80003ee <__udivmoddi4+0x1e6>
 80004c2:	eba6 0808 	sub.w	r8, r6, r8
 80004c6:	4441      	add	r1, r8
 80004c8:	1eb8      	subs	r0, r7, #2
 80004ca:	fbb1 f8fe 	udiv	r8, r1, lr
 80004ce:	fb08 f70c 	mul.w	r7, r8, ip
 80004d2:	e7dc      	b.n	800048e <__udivmoddi4+0x286>
 80004d4:	463b      	mov	r3, r7
 80004d6:	e77f      	b.n	80003d8 <__udivmoddi4+0x1d0>
 80004d8:	4650      	mov	r0, sl
 80004da:	e767      	b.n	80003ac <__udivmoddi4+0x1a4>
 80004dc:	4608      	mov	r0, r1
 80004de:	e6fb      	b.n	80002d8 <__udivmoddi4+0xd0>
 80004e0:	4434      	add	r4, r6
 80004e2:	3802      	subs	r0, #2
 80004e4:	e732      	b.n	800034c <__udivmoddi4+0x144>
 80004e6:	3f02      	subs	r7, #2
 80004e8:	4432      	add	r2, r6
 80004ea:	e71b      	b.n	8000324 <__udivmoddi4+0x11c>
 80004ec:	eba1 0108 	sub.w	r1, r1, r8
 80004f0:	4638      	mov	r0, r7
 80004f2:	fbb1 f8fe 	udiv	r8, r1, lr
 80004f6:	fb08 f70c 	mul.w	r7, r8, ip
 80004fa:	e7c8      	b.n	800048e <__udivmoddi4+0x286>
 80004fc:	4641      	mov	r1, r8
 80004fe:	e798      	b.n	8000432 <__udivmoddi4+0x22a>

08000500 <__aeabi_idiv0>:
 8000500:	4770      	bx	lr
 8000502:	bf00      	nop

08000504 <ADC_DMA_Start>:

volatile uint8_t flaga_polowa = 0;
volatile uint8_t flaga_pelny = 0;

void ADC_DMA_Start(void)
{
 8000504:	b580      	push	{r7, lr}
 8000506:	af00      	add	r7, sp, #0
    flaga_polowa = 0;
 8000508:	4b06      	ldr	r3, [pc, #24]	@ (8000524 <ADC_DMA_Start+0x20>)
 800050a:	2200      	movs	r2, #0
 800050c:	701a      	strb	r2, [r3, #0]
    flaga_pelny = 0;
 800050e:	4b06      	ldr	r3, [pc, #24]	@ (8000528 <ADC_DMA_Start+0x24>)
 8000510:	2200      	movs	r2, #0
 8000512:	701a      	strb	r2, [r3, #0]
    HAL_ADC_Start_DMA(&hadc1, (uint32_t*)bufor_adc, ADC_BUFOR_ROZMIAR);
 8000514:	f44f 6280 	mov.w	r2, #1024	@ 0x400
 8000518:	4904      	ldr	r1, [pc, #16]	@ (800052c <ADC_DMA_Start+0x28>)
 800051a:	4805      	ldr	r0, [pc, #20]	@ (8000530 <ADC_DMA_Start+0x2c>)
 800051c:	f000 ff54 	bl	80013c8 <HAL_ADC_Start_DMA>
}
 8000520:	bf00      	nop
 8000522:	bd80      	pop	{r7, pc}
 8000524:	2000092c 	.word	0x2000092c
 8000528:	2000092d 	.word	0x2000092d
 800052c:	2000012c 	.word	0x2000012c
 8000530:	20000930 	.word	0x20000930

08000534 <HAL_ADC_ConvHalfCpltCallback>:
    flaga_polowa = 0;
    flaga_pelny = 0;
}

void HAL_ADC_ConvHalfCpltCallback(ADC_HandleTypeDef* hadc)
{
 8000534:	b480      	push	{r7}
 8000536:	b083      	sub	sp, #12
 8000538:	af00      	add	r7, sp, #0
 800053a:	6078      	str	r0, [r7, #4]
    if (hadc->Instance == ADC1)
 800053c:	687b      	ldr	r3, [r7, #4]
 800053e:	681b      	ldr	r3, [r3, #0]
 8000540:	4a05      	ldr	r2, [pc, #20]	@ (8000558 <HAL_ADC_ConvHalfCpltCallback+0x24>)
 8000542:	4293      	cmp	r3, r2
 8000544:	d102      	bne.n	800054c <HAL_ADC_ConvHalfCpltCallback+0x18>
    {
        flaga_polowa = 1;
 8000546:	4b05      	ldr	r3, [pc, #20]	@ (800055c <HAL_ADC_ConvHalfCpltCallback+0x28>)
 8000548:	2201      	movs	r2, #1
 800054a:	701a      	strb	r2, [r3, #0]
    }
}
 800054c:	bf00      	nop
 800054e:	370c      	adds	r7, #12
 8000550:	46bd      	mov	sp, r7
 8000552:	f85d 7b04 	ldr.w	r7, [sp], #4
 8000556:	4770      	bx	lr
 8000558:	40012000 	.word	0x40012000
 800055c:	2000092c 	.word	0x2000092c

08000560 <HAL_ADC_ConvCpltCallback>:

void HAL_ADC_ConvCpltCallback(ADC_HandleTypeDef* hadc)
{
 8000560:	b480      	push	{r7}
 8000562:	b083      	sub	sp, #12
 8000564:	af00      	add	r7, sp, #0
 8000566:	6078      	str	r0, [r7, #4]
    if (hadc->Instance == ADC1)
 8000568:	687b      	ldr	r3, [r7, #4]
 800056a:	681b      	ldr	r3, [r3, #0]
 800056c:	4a05      	ldr	r2, [pc, #20]	@ (8000584 <HAL_ADC_ConvCpltCallback+0x24>)
 800056e:	4293      	cmp	r3, r2
 8000570:	d102      	bne.n	8000578 <HAL_ADC_ConvCpltCallback+0x18>
    {
        flaga_pelny = 1;
 8000572:	4b05      	ldr	r3, [pc, #20]	@ (8000588 <HAL_ADC_ConvCpltCallback+0x28>)
 8000574:	2201      	movs	r2, #1
 8000576:	701a      	strb	r2, [r3, #0]
    }
}
 8000578:	bf00      	nop
 800057a:	370c      	adds	r7, #12
 800057c:	46bd      	mov	sp, r7
 800057e:	f85d 7b04 	ldr.w	r7, [sp], #4
 8000582:	4770      	bx	lr
 8000584:	40012000 	.word	0x40012000
 8000588:	2000092d 	.word	0x2000092d

0800058c <ADC_DMA_Przetworz_Polowe>:

void ADC_DMA_Przetworz_Polowe(void)
{
 800058c:	b580      	push	{r7, lr}
 800058e:	b082      	sub	sp, #8
 8000590:	af00      	add	r7, sp, #0
    flaga_polowa = 0;
 8000592:	4b15      	ldr	r3, [pc, #84]	@ (80005e8 <ADC_DMA_Przetworz_Polowe+0x5c>)
 8000594:	2200      	movs	r2, #0
 8000596:	701a      	strb	r2, [r3, #0]
    int16_t offset = Trigger_Szukaj(&trigger, &bufor_adc[0], ADC_BUFOR_ROZMIAR/2);
 8000598:	f44f 7200 	mov.w	r2, #512	@ 0x200
 800059c:	4913      	ldr	r1, [pc, #76]	@ (80005ec <ADC_DMA_Przetworz_Polowe+0x60>)
 800059e:	4814      	ldr	r0, [pc, #80]	@ (80005f0 <ADC_DMA_Przetworz_Polowe+0x64>)
 80005a0:	f000 fdba 	bl	8001118 <Trigger_Szukaj>
 80005a4:	4603      	mov	r3, r0
 80005a6:	80fb      	strh	r3, [r7, #6]
    if (offset < 0) return;
 80005a8:	f9b7 3006 	ldrsh.w	r3, [r7, #6]
 80005ac:	2b00      	cmp	r3, #0
 80005ae:	db17      	blt.n	80005e0 <ADC_DMA_Przetworz_Polowe+0x54>
    while(CDC_Transmit_FS((uint8_t*)&bufor_adc[offset],
 80005b0:	e002      	b.n	80005b8 <ADC_DMA_Przetworz_Polowe+0x2c>
          (ADC_BUFOR_ROZMIAR/2 - offset) * 2) == USBD_BUSY)
    {
        HAL_Delay(1);
 80005b2:	2001      	movs	r0, #1
 80005b4:	f000 fea0 	bl	80012f8 <HAL_Delay>
    while(CDC_Transmit_FS((uint8_t*)&bufor_adc[offset],
 80005b8:	f9b7 3006 	ldrsh.w	r3, [r7, #6]
 80005bc:	005b      	lsls	r3, r3, #1
 80005be:	4a0b      	ldr	r2, [pc, #44]	@ (80005ec <ADC_DMA_Przetworz_Polowe+0x60>)
 80005c0:	441a      	add	r2, r3
          (ADC_BUFOR_ROZMIAR/2 - offset) * 2) == USBD_BUSY)
 80005c2:	f9b7 3006 	ldrsh.w	r3, [r7, #6]
 80005c6:	f5c3 7300 	rsb	r3, r3, #512	@ 0x200
    while(CDC_Transmit_FS((uint8_t*)&bufor_adc[offset],
 80005ca:	b29b      	uxth	r3, r3
 80005cc:	005b      	lsls	r3, r3, #1
 80005ce:	b29b      	uxth	r3, r3
 80005d0:	4619      	mov	r1, r3
 80005d2:	4610      	mov	r0, r2
 80005d4:	f008 fc18 	bl	8008e08 <CDC_Transmit_FS>
 80005d8:	4603      	mov	r3, r0
          (ADC_BUFOR_ROZMIAR/2 - offset) * 2) == USBD_BUSY)
 80005da:	2b01      	cmp	r3, #1
 80005dc:	d0e9      	beq.n	80005b2 <ADC_DMA_Przetworz_Polowe+0x26>
 80005de:	e000      	b.n	80005e2 <ADC_DMA_Przetworz_Polowe+0x56>
    if (offset < 0) return;
 80005e0:	bf00      	nop
    }
}
 80005e2:	3708      	adds	r7, #8
 80005e4:	46bd      	mov	sp, r7
 80005e6:	bd80      	pop	{r7, pc}
 80005e8:	2000092c 	.word	0x2000092c
 80005ec:	2000012c 	.word	0x2000012c
 80005f0:	20000acc 	.word	0x20000acc

080005f4 <ADC_DMA_Przetworz_Pelny>:

void ADC_DMA_Przetworz_Pelny(void)
{
 80005f4:	b580      	push	{r7, lr}
 80005f6:	b082      	sub	sp, #8
 80005f8:	af00      	add	r7, sp, #0
    flaga_pelny = 0;
 80005fa:	4b16      	ldr	r3, [pc, #88]	@ (8000654 <ADC_DMA_Przetworz_Pelny+0x60>)
 80005fc:	2200      	movs	r2, #0
 80005fe:	701a      	strb	r2, [r3, #0]
    int16_t offset = Trigger_Szukaj(&trigger, &bufor_adc[ADC_BUFOR_ROZMIAR/2], ADC_BUFOR_ROZMIAR/2);
 8000600:	f44f 7200 	mov.w	r2, #512	@ 0x200
 8000604:	4914      	ldr	r1, [pc, #80]	@ (8000658 <ADC_DMA_Przetworz_Pelny+0x64>)
 8000606:	4815      	ldr	r0, [pc, #84]	@ (800065c <ADC_DMA_Przetworz_Pelny+0x68>)
 8000608:	f000 fd86 	bl	8001118 <Trigger_Szukaj>
 800060c:	4603      	mov	r3, r0
 800060e:	80fb      	strh	r3, [r7, #6]
    if (offset < 0) return;
 8000610:	f9b7 3006 	ldrsh.w	r3, [r7, #6]
 8000614:	2b00      	cmp	r3, #0
 8000616:	db19      	blt.n	800064c <ADC_DMA_Przetworz_Pelny+0x58>
    while(CDC_Transmit_FS((uint8_t*)&bufor_adc[ADC_BUFOR_ROZMIAR/2 + offset],
 8000618:	e002      	b.n	8000620 <ADC_DMA_Przetworz_Pelny+0x2c>
          (ADC_BUFOR_ROZMIAR/2 - offset) * 2) == USBD_BUSY)
    {
        HAL_Delay(1);
 800061a:	2001      	movs	r0, #1
 800061c:	f000 fe6c 	bl	80012f8 <HAL_Delay>
    while(CDC_Transmit_FS((uint8_t*)&bufor_adc[ADC_BUFOR_ROZMIAR/2 + offset],
 8000620:	f9b7 3006 	ldrsh.w	r3, [r7, #6]
 8000624:	f503 7300 	add.w	r3, r3, #512	@ 0x200
 8000628:	005b      	lsls	r3, r3, #1
 800062a:	4a0d      	ldr	r2, [pc, #52]	@ (8000660 <ADC_DMA_Przetworz_Pelny+0x6c>)
 800062c:	441a      	add	r2, r3
          (ADC_BUFOR_ROZMIAR/2 - offset) * 2) == USBD_BUSY)
 800062e:	f9b7 3006 	ldrsh.w	r3, [r7, #6]
 8000632:	f5c3 7300 	rsb	r3, r3, #512	@ 0x200
    while(CDC_Transmit_FS((uint8_t*)&bufor_adc[ADC_BUFOR_ROZMIAR/2 + offset],
 8000636:	b29b      	uxth	r3, r3
 8000638:	005b      	lsls	r3, r3, #1
 800063a:	b29b      	uxth	r3, r3
 800063c:	4619      	mov	r1, r3
 800063e:	4610      	mov	r0, r2
 8000640:	f008 fbe2 	bl	8008e08 <CDC_Transmit_FS>
 8000644:	4603      	mov	r3, r0
          (ADC_BUFOR_ROZMIAR/2 - offset) * 2) == USBD_BUSY)
 8000646:	2b01      	cmp	r3, #1
 8000648:	d0e7      	beq.n	800061a <ADC_DMA_Przetworz_Pelny+0x26>
 800064a:	e000      	b.n	800064e <ADC_DMA_Przetworz_Pelny+0x5a>
    if (offset < 0) return;
 800064c:	bf00      	nop
    }
}
 800064e:	3708      	adds	r7, #8
 8000650:	46bd      	mov	sp, r7
 8000652:	bd80      	pop	{r7, pc}
 8000654:	2000092d 	.word	0x2000092d
 8000658:	2000052c 	.word	0x2000052c
 800065c:	20000acc 	.word	0x20000acc
 8000660:	2000012c 	.word	0x2000012c

08000664 <main>:
/**
  * @brief  The application entry point.
  * @retval int
  */
int main(void)
{
 8000664:	b580      	push	{r7, lr}
 8000666:	af00      	add	r7, sp, #0
  /* USER CODE END 1 */

  /* MCU Configuration--------------------------------------------------------*/

  /* Reset of all peripherals, Initializes the Flash interface and the Systick. */
  HAL_Init();
 8000668:	f000 fdd4 	bl	8001214 <HAL_Init>
  /* USER CODE BEGIN Init */

  /* USER CODE END Init */

  /* Configure the system clock */
  SystemClock_Config();
 800066c:	f000 f846 	bl	80006fc <SystemClock_Config>
  /* USER CODE BEGIN SysInit */

  /* USER CODE END SysInit */

  /* Initialize all configured peripherals */
  MX_GPIO_Init();
 8000670:	f000 f9f6 	bl	8000a60 <MX_GPIO_Init>
  MX_DMA_Init();
 8000674:	f000 f9d4 	bl	8000a20 <MX_DMA_Init>
  MX_ADC1_Init();
 8000678:	f000 f8a8 	bl	80007cc <MX_ADC1_Init>
  MX_USB_DEVICE_Init();
 800067c:	f008 fb06 	bl	8008c8c <MX_USB_DEVICE_Init>
  MX_I2C1_Init();
 8000680:	f000 f8f6 	bl	8000870 <MX_I2C1_Init>
  MX_SPI2_Init();
 8000684:	f000 f922 	bl	80008cc <MX_SPI2_Init>
  MX_TIM1_Init();
 8000688:	f000 f956 	bl	8000938 <MX_TIM1_Init>
  MX_FATFS_Init();
 800068c:	f006 fa48 	bl	8006b20 <MX_FATFS_Init>
  /* USER CODE BEGIN 2 */
  HAL_Delay(2000);
 8000690:	f44f 60fa 	mov.w	r0, #2000	@ 0x7d0
 8000694:	f000 fe30 	bl	80012f8 <HAL_Delay>
  CDC_Transmit_FS((uint8_t*)"Hello World!\r\n", 14);
 8000698:	210e      	movs	r1, #14
 800069a:	4814      	ldr	r0, [pc, #80]	@ (80006ec <main+0x88>)
 800069c:	f008 fbb4 	bl	8008e08 <CDC_Transmit_FS>
  HAL_Delay(100);
 80006a0:	2064      	movs	r0, #100	@ 0x64
 80006a2:	f000 fe29 	bl	80012f8 <HAL_Delay>
  Trigger_Init(&trigger, TRIG_NONE, 0);
 80006a6:	2200      	movs	r2, #0
 80006a8:	2102      	movs	r1, #2
 80006aa:	4811      	ldr	r0, [pc, #68]	@ (80006f0 <main+0x8c>)
 80006ac:	f000 fd20 	bl	80010f0 <Trigger_Init>
  HAL_Delay(2000);
 80006b0:	f44f 60fa 	mov.w	r0, #2000	@ 0x7d0
 80006b4:	f000 fe20 	bl	80012f8 <HAL_Delay>
  CDC_Transmit_FS((uint8_t*)"Hello World!\r\n", 14);
 80006b8:	210e      	movs	r1, #14
 80006ba:	480c      	ldr	r0, [pc, #48]	@ (80006ec <main+0x88>)
 80006bc:	f008 fba4 	bl	8008e08 <CDC_Transmit_FS>
  HAL_Delay(100);
 80006c0:	2064      	movs	r0, #100	@ 0x64
 80006c2:	f000 fe19 	bl	80012f8 <HAL_Delay>
  ADC_DMA_Start();
 80006c6:	f7ff ff1d 	bl	8000504 <ADC_DMA_Start>
  ADC_DMA_Start();
 80006ca:	f7ff ff1b 	bl	8000504 <ADC_DMA_Start>

  /* Infinite loop */
  /* USER CODE BEGIN WHILE */
  while (1)
  {
	  if (flaga_polowa)
 80006ce:	4b09      	ldr	r3, [pc, #36]	@ (80006f4 <main+0x90>)
 80006d0:	781b      	ldrb	r3, [r3, #0]
 80006d2:	b2db      	uxtb	r3, r3
 80006d4:	2b00      	cmp	r3, #0
 80006d6:	d001      	beq.n	80006dc <main+0x78>
	         ADC_DMA_Przetworz_Polowe();
 80006d8:	f7ff ff58 	bl	800058c <ADC_DMA_Przetworz_Polowe>
	  if (flaga_pelny)
 80006dc:	4b06      	ldr	r3, [pc, #24]	@ (80006f8 <main+0x94>)
 80006de:	781b      	ldrb	r3, [r3, #0]
 80006e0:	b2db      	uxtb	r3, r3
 80006e2:	2b00      	cmp	r3, #0
 80006e4:	d0f3      	beq.n	80006ce <main+0x6a>
	         ADC_DMA_Przetworz_Pelny();
 80006e6:	f7ff ff85 	bl	80005f4 <ADC_DMA_Przetworz_Pelny>
	  if (flaga_polowa)
 80006ea:	e7f0      	b.n	80006ce <main+0x6a>
 80006ec:	08009738 	.word	0x08009738
 80006f0:	20000acc 	.word	0x20000acc
 80006f4:	2000092c 	.word	0x2000092c
 80006f8:	2000092d 	.word	0x2000092d

080006fc <SystemClock_Config>:
/**
  * @brief System Clock Configuration
  * @retval None
  */
void SystemClock_Config(void)
{
 80006fc:	b580      	push	{r7, lr}
 80006fe:	b094      	sub	sp, #80	@ 0x50
 8000700:	af00      	add	r7, sp, #0
  RCC_OscInitTypeDef RCC_OscInitStruct = {0};
 8000702:	f107 0320 	add.w	r3, r7, #32
 8000706:	2230      	movs	r2, #48	@ 0x30
 8000708:	2100      	movs	r1, #0
 800070a:	4618      	mov	r0, r3
 800070c:	f008 ffdc 	bl	80096c8 <memset>
  RCC_ClkInitTypeDef RCC_ClkInitStruct = {0};
 8000710:	f107 030c 	add.w	r3, r7, #12
 8000714:	2200      	movs	r2, #0
 8000716:	601a      	str	r2, [r3, #0]
 8000718:	605a      	str	r2, [r3, #4]
 800071a:	609a      	str	r2, [r3, #8]
 800071c:	60da      	str	r2, [r3, #12]
 800071e:	611a      	str	r2, [r3, #16]

  /** Configure the main internal regulator output voltage
  */
  __HAL_RCC_PWR_CLK_ENABLE();
 8000720:	2300      	movs	r3, #0
 8000722:	60bb      	str	r3, [r7, #8]
 8000724:	4b27      	ldr	r3, [pc, #156]	@ (80007c4 <SystemClock_Config+0xc8>)
 8000726:	6c1b      	ldr	r3, [r3, #64]	@ 0x40
 8000728:	4a26      	ldr	r2, [pc, #152]	@ (80007c4 <SystemClock_Config+0xc8>)
 800072a:	f043 5380 	orr.w	r3, r3, #268435456	@ 0x10000000
 800072e:	6413      	str	r3, [r2, #64]	@ 0x40
 8000730:	4b24      	ldr	r3, [pc, #144]	@ (80007c4 <SystemClock_Config+0xc8>)
 8000732:	6c1b      	ldr	r3, [r3, #64]	@ 0x40
 8000734:	f003 5380 	and.w	r3, r3, #268435456	@ 0x10000000
 8000738:	60bb      	str	r3, [r7, #8]
 800073a:	68bb      	ldr	r3, [r7, #8]
  __HAL_PWR_VOLTAGESCALING_CONFIG(PWR_REGULATOR_VOLTAGE_SCALE1);
 800073c:	2300      	movs	r3, #0
 800073e:	607b      	str	r3, [r7, #4]
 8000740:	4b21      	ldr	r3, [pc, #132]	@ (80007c8 <SystemClock_Config+0xcc>)
 8000742:	681b      	ldr	r3, [r3, #0]
 8000744:	4a20      	ldr	r2, [pc, #128]	@ (80007c8 <SystemClock_Config+0xcc>)
 8000746:	f443 4340 	orr.w	r3, r3, #49152	@ 0xc000
 800074a:	6013      	str	r3, [r2, #0]
 800074c:	4b1e      	ldr	r3, [pc, #120]	@ (80007c8 <SystemClock_Config+0xcc>)
 800074e:	681b      	ldr	r3, [r3, #0]
 8000750:	f403 4340 	and.w	r3, r3, #49152	@ 0xc000
 8000754:	607b      	str	r3, [r7, #4]
 8000756:	687b      	ldr	r3, [r7, #4]

  /** Initializes the RCC Oscillators according to the specified parameters
  * in the RCC_OscInitTypeDef structure.
  */
  RCC_OscInitStruct.OscillatorType = RCC_OSCILLATORTYPE_HSE;
 8000758:	2301      	movs	r3, #1
 800075a:	623b      	str	r3, [r7, #32]
  RCC_OscInitStruct.HSEState = RCC_HSE_ON;
 800075c:	f44f 3380 	mov.w	r3, #65536	@ 0x10000
 8000760:	627b      	str	r3, [r7, #36]	@ 0x24
  RCC_OscInitStruct.PLL.PLLState = RCC_PLL_ON;
 8000762:	2302      	movs	r3, #2
 8000764:	63bb      	str	r3, [r7, #56]	@ 0x38
  RCC_OscInitStruct.PLL.PLLSource = RCC_PLLSOURCE_HSE;
 8000766:	f44f 0380 	mov.w	r3, #4194304	@ 0x400000
 800076a:	63fb      	str	r3, [r7, #60]	@ 0x3c
  RCC_OscInitStruct.PLL.PLLM = 4;
 800076c:	2304      	movs	r3, #4
 800076e:	643b      	str	r3, [r7, #64]	@ 0x40
  RCC_OscInitStruct.PLL.PLLN = 96;
 8000770:	2360      	movs	r3, #96	@ 0x60
 8000772:	647b      	str	r3, [r7, #68]	@ 0x44
  RCC_OscInitStruct.PLL.PLLP = RCC_PLLP_DIV2;
 8000774:	2302      	movs	r3, #2
 8000776:	64bb      	str	r3, [r7, #72]	@ 0x48
  RCC_OscInitStruct.PLL.PLLQ = 4;
 8000778:	2304      	movs	r3, #4
 800077a:	64fb      	str	r3, [r7, #76]	@ 0x4c
  if (HAL_RCC_OscConfig(&RCC_OscInitStruct) != HAL_OK)
 800077c:	f107 0320 	add.w	r3, r7, #32
 8000780:	4618      	mov	r0, r3
 8000782:	f003 fb85 	bl	8003e90 <HAL_RCC_OscConfig>
 8000786:	4603      	mov	r3, r0
 8000788:	2b00      	cmp	r3, #0
 800078a:	d001      	beq.n	8000790 <SystemClock_Config+0x94>
  {
    Error_Handler();
 800078c:	f000 faaa 	bl	8000ce4 <Error_Handler>
  }

  /** Initializes the CPU, AHB and APB buses clocks
  */
  RCC_ClkInitStruct.ClockType = RCC_CLOCKTYPE_HCLK|RCC_CLOCKTYPE_SYSCLK
 8000790:	230f      	movs	r3, #15
 8000792:	60fb      	str	r3, [r7, #12]
                              |RCC_CLOCKTYPE_PCLK1|RCC_CLOCKTYPE_PCLK2;
  RCC_ClkInitStruct.SYSCLKSource = RCC_SYSCLKSOURCE_PLLCLK;
 8000794:	2302      	movs	r3, #2
 8000796:	613b      	str	r3, [r7, #16]
  RCC_ClkInitStruct.AHBCLKDivider = RCC_SYSCLK_DIV1;
 8000798:	2300      	movs	r3, #0
 800079a:	617b      	str	r3, [r7, #20]
  RCC_ClkInitStruct.APB1CLKDivider = RCC_HCLK_DIV2;
 800079c:	f44f 5380 	mov.w	r3, #4096	@ 0x1000
 80007a0:	61bb      	str	r3, [r7, #24]
  RCC_ClkInitStruct.APB2CLKDivider = RCC_HCLK_DIV1;
 80007a2:	2300      	movs	r3, #0
 80007a4:	61fb      	str	r3, [r7, #28]

  if (HAL_RCC_ClockConfig(&RCC_ClkInitStruct, FLASH_LATENCY_3) != HAL_OK)
 80007a6:	f107 030c 	add.w	r3, r7, #12
 80007aa:	2103      	movs	r1, #3
 80007ac:	4618      	mov	r0, r3
 80007ae:	f003 fde7 	bl	8004380 <HAL_RCC_ClockConfig>
 80007b2:	4603      	mov	r3, r0
 80007b4:	2b00      	cmp	r3, #0
 80007b6:	d001      	beq.n	80007bc <SystemClock_Config+0xc0>
  {
    Error_Handler();
 80007b8:	f000 fa94 	bl	8000ce4 <Error_Handler>
  }
}
 80007bc:	bf00      	nop
 80007be:	3750      	adds	r7, #80	@ 0x50
 80007c0:	46bd      	mov	sp, r7
 80007c2:	bd80      	pop	{r7, pc}
 80007c4:	40023800 	.word	0x40023800
 80007c8:	40007000 	.word	0x40007000

080007cc <MX_ADC1_Init>:
  * @brief ADC1 Initialization Function
  * @param None
  * @retval None
  */
static void MX_ADC1_Init(void)
{
 80007cc:	b580      	push	{r7, lr}
 80007ce:	b084      	sub	sp, #16
 80007d0:	af00      	add	r7, sp, #0

  /* USER CODE BEGIN ADC1_Init 0 */

  /* USER CODE END ADC1_Init 0 */

  ADC_ChannelConfTypeDef sConfig = {0};
 80007d2:	463b      	mov	r3, r7
 80007d4:	2200      	movs	r2, #0
 80007d6:	601a      	str	r2, [r3, #0]
 80007d8:	605a      	str	r2, [r3, #4]
 80007da:	609a      	str	r2, [r3, #8]
 80007dc:	60da      	str	r2, [r3, #12]

  /* USER CODE END ADC1_Init 1 */

  /** Configure the global features of the ADC (Clock, Resolution, Data Alignment and number of conversion)
  */
  hadc1.Instance = ADC1;
 80007de:	4b21      	ldr	r3, [pc, #132]	@ (8000864 <MX_ADC1_Init+0x98>)
 80007e0:	4a21      	ldr	r2, [pc, #132]	@ (8000868 <MX_ADC1_Init+0x9c>)
 80007e2:	601a      	str	r2, [r3, #0]
  hadc1.Init.ClockPrescaler = ADC_CLOCK_SYNC_PCLK_DIV4;
 80007e4:	4b1f      	ldr	r3, [pc, #124]	@ (8000864 <MX_ADC1_Init+0x98>)
 80007e6:	f44f 3280 	mov.w	r2, #65536	@ 0x10000
 80007ea:	605a      	str	r2, [r3, #4]
  hadc1.Init.Resolution = ADC_RESOLUTION_12B;
 80007ec:	4b1d      	ldr	r3, [pc, #116]	@ (8000864 <MX_ADC1_Init+0x98>)
 80007ee:	2200      	movs	r2, #0
 80007f0:	609a      	str	r2, [r3, #8]
  hadc1.Init.ScanConvMode = DISABLE;
 80007f2:	4b1c      	ldr	r3, [pc, #112]	@ (8000864 <MX_ADC1_Init+0x98>)
 80007f4:	2200      	movs	r2, #0
 80007f6:	611a      	str	r2, [r3, #16]
  hadc1.Init.ContinuousConvMode = ENABLE;
 80007f8:	4b1a      	ldr	r3, [pc, #104]	@ (8000864 <MX_ADC1_Init+0x98>)
 80007fa:	2201      	movs	r2, #1
 80007fc:	761a      	strb	r2, [r3, #24]
  hadc1.Init.DiscontinuousConvMode = DISABLE;
 80007fe:	4b19      	ldr	r3, [pc, #100]	@ (8000864 <MX_ADC1_Init+0x98>)
 8000800:	2200      	movs	r2, #0
 8000802:	f883 2020 	strb.w	r2, [r3, #32]
  hadc1.Init.ExternalTrigConvEdge = ADC_EXTERNALTRIGCONVEDGE_NONE;
 8000806:	4b17      	ldr	r3, [pc, #92]	@ (8000864 <MX_ADC1_Init+0x98>)
 8000808:	2200      	movs	r2, #0
 800080a:	62da      	str	r2, [r3, #44]	@ 0x2c
  hadc1.Init.ExternalTrigConv = ADC_SOFTWARE_START;
 800080c:	4b15      	ldr	r3, [pc, #84]	@ (8000864 <MX_ADC1_Init+0x98>)
 800080e:	4a17      	ldr	r2, [pc, #92]	@ (800086c <MX_ADC1_Init+0xa0>)
 8000810:	629a      	str	r2, [r3, #40]	@ 0x28
  hadc1.Init.DataAlign = ADC_DATAALIGN_RIGHT;
 8000812:	4b14      	ldr	r3, [pc, #80]	@ (8000864 <MX_ADC1_Init+0x98>)
 8000814:	2200      	movs	r2, #0
 8000816:	60da      	str	r2, [r3, #12]
  hadc1.Init.NbrOfConversion = 1;
 8000818:	4b12      	ldr	r3, [pc, #72]	@ (8000864 <MX_ADC1_Init+0x98>)
 800081a:	2201      	movs	r2, #1
 800081c:	61da      	str	r2, [r3, #28]
  hadc1.Init.DMAContinuousRequests = ENABLE;
 800081e:	4b11      	ldr	r3, [pc, #68]	@ (8000864 <MX_ADC1_Init+0x98>)
 8000820:	2201      	movs	r2, #1
 8000822:	f883 2030 	strb.w	r2, [r3, #48]	@ 0x30
  hadc1.Init.EOCSelection = ADC_EOC_SINGLE_CONV;
 8000826:	4b0f      	ldr	r3, [pc, #60]	@ (8000864 <MX_ADC1_Init+0x98>)
 8000828:	2201      	movs	r2, #1
 800082a:	615a      	str	r2, [r3, #20]
  if (HAL_ADC_Init(&hadc1) != HAL_OK)
 800082c:	480d      	ldr	r0, [pc, #52]	@ (8000864 <MX_ADC1_Init+0x98>)
 800082e:	f000 fd87 	bl	8001340 <HAL_ADC_Init>
 8000832:	4603      	mov	r3, r0
 8000834:	2b00      	cmp	r3, #0
 8000836:	d001      	beq.n	800083c <MX_ADC1_Init+0x70>
  {
    Error_Handler();
 8000838:	f000 fa54 	bl	8000ce4 <Error_Handler>
  }

  /** Configure for the selected ADC regular channel its corresponding rank in the sequencer and its sample time.
  */
  sConfig.Channel = ADC_CHANNEL_1;
 800083c:	2301      	movs	r3, #1
 800083e:	603b      	str	r3, [r7, #0]
  sConfig.Rank = 1;
 8000840:	2301      	movs	r3, #1
 8000842:	607b      	str	r3, [r7, #4]
  sConfig.SamplingTime = ADC_SAMPLETIME_3CYCLES;
 8000844:	2300      	movs	r3, #0
 8000846:	60bb      	str	r3, [r7, #8]
  if (HAL_ADC_ConfigChannel(&hadc1, &sConfig) != HAL_OK)
 8000848:	463b      	mov	r3, r7
 800084a:	4619      	mov	r1, r3
 800084c:	4805      	ldr	r0, [pc, #20]	@ (8000864 <MX_ADC1_Init+0x98>)
 800084e:	f000 feb9 	bl	80015c4 <HAL_ADC_ConfigChannel>
 8000852:	4603      	mov	r3, r0
 8000854:	2b00      	cmp	r3, #0
 8000856:	d001      	beq.n	800085c <MX_ADC1_Init+0x90>
  {
    Error_Handler();
 8000858:	f000 fa44 	bl	8000ce4 <Error_Handler>
  }
  /* USER CODE BEGIN ADC1_Init 2 */

  /* USER CODE END ADC1_Init 2 */

}
 800085c:	bf00      	nop
 800085e:	3710      	adds	r7, #16
 8000860:	46bd      	mov	sp, r7
 8000862:	bd80      	pop	{r7, pc}
 8000864:	20000930 	.word	0x20000930
 8000868:	40012000 	.word	0x40012000
 800086c:	0f000001 	.word	0x0f000001

08000870 <MX_I2C1_Init>:
  * @brief I2C1 Initialization Function
  * @param None
  * @retval None
  */
static void MX_I2C1_Init(void)
{
 8000870:	b580      	push	{r7, lr}
 8000872:	af00      	add	r7, sp, #0
  /* USER CODE END I2C1_Init 0 */

  /* USER CODE BEGIN I2C1_Init 1 */

  /* USER CODE END I2C1_Init 1 */
  hi2c1.Instance = I2C1;
 8000874:	4b12      	ldr	r3, [pc, #72]	@ (80008c0 <MX_I2C1_Init+0x50>)
 8000876:	4a13      	ldr	r2, [pc, #76]	@ (80008c4 <MX_I2C1_Init+0x54>)
 8000878:	601a      	str	r2, [r3, #0]
  hi2c1.Init.ClockSpeed = 100000;
 800087a:	4b11      	ldr	r3, [pc, #68]	@ (80008c0 <MX_I2C1_Init+0x50>)
 800087c:	4a12      	ldr	r2, [pc, #72]	@ (80008c8 <MX_I2C1_Init+0x58>)
 800087e:	605a      	str	r2, [r3, #4]
  hi2c1.Init.DutyCycle = I2C_DUTYCYCLE_2;
 8000880:	4b0f      	ldr	r3, [pc, #60]	@ (80008c0 <MX_I2C1_Init+0x50>)
 8000882:	2200      	movs	r2, #0
 8000884:	609a      	str	r2, [r3, #8]
  hi2c1.Init.OwnAddress1 = 0;
 8000886:	4b0e      	ldr	r3, [pc, #56]	@ (80008c0 <MX_I2C1_Init+0x50>)
 8000888:	2200      	movs	r2, #0
 800088a:	60da      	str	r2, [r3, #12]
  hi2c1.Init.AddressingMode = I2C_ADDRESSINGMODE_7BIT;
 800088c:	4b0c      	ldr	r3, [pc, #48]	@ (80008c0 <MX_I2C1_Init+0x50>)
 800088e:	f44f 4280 	mov.w	r2, #16384	@ 0x4000
 8000892:	611a      	str	r2, [r3, #16]
  hi2c1.Init.DualAddressMode = I2C_DUALADDRESS_DISABLE;
 8000894:	4b0a      	ldr	r3, [pc, #40]	@ (80008c0 <MX_I2C1_Init+0x50>)
 8000896:	2200      	movs	r2, #0
 8000898:	615a      	str	r2, [r3, #20]
  hi2c1.Init.OwnAddress2 = 0;
 800089a:	4b09      	ldr	r3, [pc, #36]	@ (80008c0 <MX_I2C1_Init+0x50>)
 800089c:	2200      	movs	r2, #0
 800089e:	619a      	str	r2, [r3, #24]
  hi2c1.Init.GeneralCallMode = I2C_GENERALCALL_DISABLE;
 80008a0:	4b07      	ldr	r3, [pc, #28]	@ (80008c0 <MX_I2C1_Init+0x50>)
 80008a2:	2200      	movs	r2, #0
 80008a4:	61da      	str	r2, [r3, #28]
  hi2c1.Init.NoStretchMode = I2C_NOSTRETCH_DISABLE;
 80008a6:	4b06      	ldr	r3, [pc, #24]	@ (80008c0 <MX_I2C1_Init+0x50>)
 80008a8:	2200      	movs	r2, #0
 80008aa:	621a      	str	r2, [r3, #32]
  if (HAL_I2C_Init(&hi2c1) != HAL_OK)
 80008ac:	4804      	ldr	r0, [pc, #16]	@ (80008c0 <MX_I2C1_Init+0x50>)
 80008ae:	f001 ff59 	bl	8002764 <HAL_I2C_Init>
 80008b2:	4603      	mov	r3, r0
 80008b4:	2b00      	cmp	r3, #0
 80008b6:	d001      	beq.n	80008bc <MX_I2C1_Init+0x4c>
  {
    Error_Handler();
 80008b8:	f000 fa14 	bl	8000ce4 <Error_Handler>
  }
  /* USER CODE BEGIN I2C1_Init 2 */

  /* USER CODE END I2C1_Init 2 */

}
 80008bc:	bf00      	nop
 80008be:	bd80      	pop	{r7, pc}
 80008c0:	200009d8 	.word	0x200009d8
 80008c4:	40005400 	.word	0x40005400
 80008c8:	000186a0 	.word	0x000186a0

080008cc <MX_SPI2_Init>:
  * @brief SPI2 Initialization Function
  * @param None
  * @retval None
  */
static void MX_SPI2_Init(void)
{
 80008cc:	b580      	push	{r7, lr}
 80008ce:	af00      	add	r7, sp, #0

  /* USER CODE BEGIN SPI2_Init 1 */

  /* USER CODE END SPI2_Init 1 */
  /* SPI2 parameter configuration*/
  hspi2.Instance = SPI2;
 80008d0:	4b17      	ldr	r3, [pc, #92]	@ (8000930 <MX_SPI2_Init+0x64>)
 80008d2:	4a18      	ldr	r2, [pc, #96]	@ (8000934 <MX_SPI2_Init+0x68>)
 80008d4:	601a      	str	r2, [r3, #0]
  hspi2.Init.Mode = SPI_MODE_MASTER;
 80008d6:	4b16      	ldr	r3, [pc, #88]	@ (8000930 <MX_SPI2_Init+0x64>)
 80008d8:	f44f 7282 	mov.w	r2, #260	@ 0x104
 80008dc:	605a      	str	r2, [r3, #4]
  hspi2.Init.Direction = SPI_DIRECTION_2LINES;
 80008de:	4b14      	ldr	r3, [pc, #80]	@ (8000930 <MX_SPI2_Init+0x64>)
 80008e0:	2200      	movs	r2, #0
 80008e2:	609a      	str	r2, [r3, #8]
  hspi2.Init.DataSize = SPI_DATASIZE_8BIT;
 80008e4:	4b12      	ldr	r3, [pc, #72]	@ (8000930 <MX_SPI2_Init+0x64>)
 80008e6:	2200      	movs	r2, #0
 80008e8:	60da      	str	r2, [r3, #12]
  hspi2.Init.CLKPolarity = SPI_POLARITY_LOW;
 80008ea:	4b11      	ldr	r3, [pc, #68]	@ (8000930 <MX_SPI2_Init+0x64>)
 80008ec:	2200      	movs	r2, #0
 80008ee:	611a      	str	r2, [r3, #16]
  hspi2.Init.CLKPhase = SPI_PHASE_1EDGE;
 80008f0:	4b0f      	ldr	r3, [pc, #60]	@ (8000930 <MX_SPI2_Init+0x64>)
 80008f2:	2200      	movs	r2, #0
 80008f4:	615a      	str	r2, [r3, #20]
  hspi2.Init.NSS = SPI_NSS_SOFT;
 80008f6:	4b0e      	ldr	r3, [pc, #56]	@ (8000930 <MX_SPI2_Init+0x64>)
 80008f8:	f44f 7200 	mov.w	r2, #512	@ 0x200
 80008fc:	619a      	str	r2, [r3, #24]
  hspi2.Init.BaudRatePrescaler = SPI_BAUDRATEPRESCALER_128;
 80008fe:	4b0c      	ldr	r3, [pc, #48]	@ (8000930 <MX_SPI2_Init+0x64>)
 8000900:	2230      	movs	r2, #48	@ 0x30
 8000902:	61da      	str	r2, [r3, #28]
  hspi2.Init.FirstBit = SPI_FIRSTBIT_MSB;
 8000904:	4b0a      	ldr	r3, [pc, #40]	@ (8000930 <MX_SPI2_Init+0x64>)
 8000906:	2200      	movs	r2, #0
 8000908:	621a      	str	r2, [r3, #32]
  hspi2.Init.TIMode = SPI_TIMODE_DISABLE;
 800090a:	4b09      	ldr	r3, [pc, #36]	@ (8000930 <MX_SPI2_Init+0x64>)
 800090c:	2200      	movs	r2, #0
 800090e:	625a      	str	r2, [r3, #36]	@ 0x24
  hspi2.Init.CRCCalculation = SPI_CRCCALCULATION_DISABLE;
 8000910:	4b07      	ldr	r3, [pc, #28]	@ (8000930 <MX_SPI2_Init+0x64>)
 8000912:	2200      	movs	r2, #0
 8000914:	629a      	str	r2, [r3, #40]	@ 0x28
  hspi2.Init.CRCPolynomial = 10;
 8000916:	4b06      	ldr	r3, [pc, #24]	@ (8000930 <MX_SPI2_Init+0x64>)
 8000918:	220a      	movs	r2, #10
 800091a:	62da      	str	r2, [r3, #44]	@ 0x2c
  if (HAL_SPI_Init(&hspi2) != HAL_OK)
 800091c:	4804      	ldr	r0, [pc, #16]	@ (8000930 <MX_SPI2_Init+0x64>)
 800091e:	f003 ff3b 	bl	8004798 <HAL_SPI_Init>
 8000922:	4603      	mov	r3, r0
 8000924:	2b00      	cmp	r3, #0
 8000926:	d001      	beq.n	800092c <MX_SPI2_Init+0x60>
  {
    Error_Handler();
 8000928:	f000 f9dc 	bl	8000ce4 <Error_Handler>
  }
  /* USER CODE BEGIN SPI2_Init 2 */

  /* USER CODE END SPI2_Init 2 */

}
 800092c:	bf00      	nop
 800092e:	bd80      	pop	{r7, pc}
 8000930:	20000a2c 	.word	0x20000a2c
 8000934:	40003800 	.word	0x40003800

08000938 <MX_TIM1_Init>:
  * @brief TIM1 Initialization Function
  * @param None
  * @retval None
  */
static void MX_TIM1_Init(void)
{
 8000938:	b580      	push	{r7, lr}
 800093a:	b08a      	sub	sp, #40	@ 0x28
 800093c:	af00      	add	r7, sp, #0

  /* USER CODE BEGIN TIM1_Init 0 */

  /* USER CODE END TIM1_Init 0 */

  TIM_ClockConfigTypeDef sClockSourceConfig = {0};
 800093e:	f107 0318 	add.w	r3, r7, #24
 8000942:	2200      	movs	r2, #0
 8000944:	601a      	str	r2, [r3, #0]
 8000946:	605a      	str	r2, [r3, #4]
 8000948:	609a      	str	r2, [r3, #8]
 800094a:	60da      	str	r2, [r3, #12]
  TIM_MasterConfigTypeDef sMasterConfig = {0};
 800094c:	f107 0310 	add.w	r3, r7, #16
 8000950:	2200      	movs	r2, #0
 8000952:	601a      	str	r2, [r3, #0]
 8000954:	605a      	str	r2, [r3, #4]
  TIM_IC_InitTypeDef sConfigIC = {0};
 8000956:	463b      	mov	r3, r7
 8000958:	2200      	movs	r2, #0
 800095a:	601a      	str	r2, [r3, #0]
 800095c:	605a      	str	r2, [r3, #4]
 800095e:	609a      	str	r2, [r3, #8]
 8000960:	60da      	str	r2, [r3, #12]

  /* USER CODE BEGIN TIM1_Init 1 */

  /* USER CODE END TIM1_Init 1 */
  htim1.Instance = TIM1;
 8000962:	4b2d      	ldr	r3, [pc, #180]	@ (8000a18 <MX_TIM1_Init+0xe0>)
 8000964:	4a2d      	ldr	r2, [pc, #180]	@ (8000a1c <MX_TIM1_Init+0xe4>)
 8000966:	601a      	str	r2, [r3, #0]
  htim1.Init.Prescaler = 99;
 8000968:	4b2b      	ldr	r3, [pc, #172]	@ (8000a18 <MX_TIM1_Init+0xe0>)
 800096a:	2263      	movs	r2, #99	@ 0x63
 800096c:	605a      	str	r2, [r3, #4]
  htim1.Init.CounterMode = TIM_COUNTERMODE_UP;
 800096e:	4b2a      	ldr	r3, [pc, #168]	@ (8000a18 <MX_TIM1_Init+0xe0>)
 8000970:	2200      	movs	r2, #0
 8000972:	609a      	str	r2, [r3, #8]
  htim1.Init.Period = 65535;
 8000974:	4b28      	ldr	r3, [pc, #160]	@ (8000a18 <MX_TIM1_Init+0xe0>)
 8000976:	f64f 72ff 	movw	r2, #65535	@ 0xffff
 800097a:	60da      	str	r2, [r3, #12]
  htim1.Init.ClockDivision = TIM_CLOCKDIVISION_DIV1;
 800097c:	4b26      	ldr	r3, [pc, #152]	@ (8000a18 <MX_TIM1_Init+0xe0>)
 800097e:	2200      	movs	r2, #0
 8000980:	611a      	str	r2, [r3, #16]
  htim1.Init.RepetitionCounter = 0;
 8000982:	4b25      	ldr	r3, [pc, #148]	@ (8000a18 <MX_TIM1_Init+0xe0>)
 8000984:	2200      	movs	r2, #0
 8000986:	615a      	str	r2, [r3, #20]
  htim1.Init.AutoReloadPreload = TIM_AUTORELOAD_PRELOAD_DISABLE;
 8000988:	4b23      	ldr	r3, [pc, #140]	@ (8000a18 <MX_TIM1_Init+0xe0>)
 800098a:	2200      	movs	r2, #0
 800098c:	619a      	str	r2, [r3, #24]
  if (HAL_TIM_Base_Init(&htim1) != HAL_OK)
 800098e:	4822      	ldr	r0, [pc, #136]	@ (8000a18 <MX_TIM1_Init+0xe0>)
 8000990:	f003 ff8b 	bl	80048aa <HAL_TIM_Base_Init>
 8000994:	4603      	mov	r3, r0
 8000996:	2b00      	cmp	r3, #0
 8000998:	d001      	beq.n	800099e <MX_TIM1_Init+0x66>
  {
    Error_Handler();
 800099a:	f000 f9a3 	bl	8000ce4 <Error_Handler>
  }
  sClockSourceConfig.ClockSource = TIM_CLOCKSOURCE_INTERNAL;
 800099e:	f44f 5380 	mov.w	r3, #4096	@ 0x1000
 80009a2:	61bb      	str	r3, [r7, #24]
  if (HAL_TIM_ConfigClockSource(&htim1, &sClockSourceConfig) != HAL_OK)
 80009a4:	f107 0318 	add.w	r3, r7, #24
 80009a8:	4619      	mov	r1, r3
 80009aa:	481b      	ldr	r0, [pc, #108]	@ (8000a18 <MX_TIM1_Init+0xe0>)
 80009ac:	f004 f9b1 	bl	8004d12 <HAL_TIM_ConfigClockSource>
 80009b0:	4603      	mov	r3, r0
 80009b2:	2b00      	cmp	r3, #0
 80009b4:	d001      	beq.n	80009ba <MX_TIM1_Init+0x82>
  {
    Error_Handler();
 80009b6:	f000 f995 	bl	8000ce4 <Error_Handler>
  }
  if (HAL_TIM_IC_Init(&htim1) != HAL_OK)
 80009ba:	4817      	ldr	r0, [pc, #92]	@ (8000a18 <MX_TIM1_Init+0xe0>)
 80009bc:	f003 ffc4 	bl	8004948 <HAL_TIM_IC_Init>
 80009c0:	4603      	mov	r3, r0
 80009c2:	2b00      	cmp	r3, #0
 80009c4:	d001      	beq.n	80009ca <MX_TIM1_Init+0x92>
  {
    Error_Handler();
 80009c6:	f000 f98d 	bl	8000ce4 <Error_Handler>
  }
  sMasterConfig.MasterOutputTrigger = TIM_TRGO_RESET;
 80009ca:	2300      	movs	r3, #0
 80009cc:	613b      	str	r3, [r7, #16]
  sMasterConfig.MasterSlaveMode = TIM_MASTERSLAVEMODE_DISABLE;
 80009ce:	2300      	movs	r3, #0
 80009d0:	617b      	str	r3, [r7, #20]
  if (HAL_TIMEx_MasterConfigSynchronization(&htim1, &sMasterConfig) != HAL_OK)
 80009d2:	f107 0310 	add.w	r3, r7, #16
 80009d6:	4619      	mov	r1, r3
 80009d8:	480f      	ldr	r0, [pc, #60]	@ (8000a18 <MX_TIM1_Init+0xe0>)
 80009da:	f004 fcd1 	bl	8005380 <HAL_TIMEx_MasterConfigSynchronization>
 80009de:	4603      	mov	r3, r0
 80009e0:	2b00      	cmp	r3, #0
 80009e2:	d001      	beq.n	80009e8 <MX_TIM1_Init+0xb0>
  {
    Error_Handler();
 80009e4:	f000 f97e 	bl	8000ce4 <Error_Handler>
  }
  sConfigIC.ICPolarity = TIM_INPUTCHANNELPOLARITY_RISING;
 80009e8:	2300      	movs	r3, #0
 80009ea:	603b      	str	r3, [r7, #0]
  sConfigIC.ICSelection = TIM_ICSELECTION_DIRECTTI;
 80009ec:	2301      	movs	r3, #1
 80009ee:	607b      	str	r3, [r7, #4]
  sConfigIC.ICPrescaler = TIM_ICPSC_DIV1;
 80009f0:	2300      	movs	r3, #0
 80009f2:	60bb      	str	r3, [r7, #8]
  sConfigIC.ICFilter = 0;
 80009f4:	2300      	movs	r3, #0
 80009f6:	60fb      	str	r3, [r7, #12]
  if (HAL_TIM_IC_ConfigChannel(&htim1, &sConfigIC, TIM_CHANNEL_1) != HAL_OK)
 80009f8:	463b      	mov	r3, r7
 80009fa:	2200      	movs	r2, #0
 80009fc:	4619      	mov	r1, r3
 80009fe:	4806      	ldr	r0, [pc, #24]	@ (8000a18 <MX_TIM1_Init+0xe0>)
 8000a00:	f004 f8eb 	bl	8004bda <HAL_TIM_IC_ConfigChannel>
 8000a04:	4603      	mov	r3, r0
 8000a06:	2b00      	cmp	r3, #0
 8000a08:	d001      	beq.n	8000a0e <MX_TIM1_Init+0xd6>
  {
    Error_Handler();
 8000a0a:	f000 f96b 	bl	8000ce4 <Error_Handler>
  }
  /* USER CODE BEGIN TIM1_Init 2 */

  /* USER CODE END TIM1_Init 2 */

}
 8000a0e:	bf00      	nop
 8000a10:	3728      	adds	r7, #40	@ 0x28
 8000a12:	46bd      	mov	sp, r7
 8000a14:	bd80      	pop	{r7, pc}
 8000a16:	bf00      	nop
 8000a18:	20000a84 	.word	0x20000a84
 8000a1c:	40010000 	.word	0x40010000

08000a20 <MX_DMA_Init>:

/**
  * Enable DMA controller clock
  */
static void MX_DMA_Init(void)
{
 8000a20:	b580      	push	{r7, lr}
 8000a22:	b082      	sub	sp, #8
 8000a24:	af00      	add	r7, sp, #0

  /* DMA controller clock enable */
  __HAL_RCC_DMA2_CLK_ENABLE();
 8000a26:	2300      	movs	r3, #0
 8000a28:	607b      	str	r3, [r7, #4]
 8000a2a:	4b0c      	ldr	r3, [pc, #48]	@ (8000a5c <MX_DMA_Init+0x3c>)
 8000a2c:	6b1b      	ldr	r3, [r3, #48]	@ 0x30
 8000a2e:	4a0b      	ldr	r2, [pc, #44]	@ (8000a5c <MX_DMA_Init+0x3c>)
 8000a30:	f443 0380 	orr.w	r3, r3, #4194304	@ 0x400000
 8000a34:	6313      	str	r3, [r2, #48]	@ 0x30
 8000a36:	4b09      	ldr	r3, [pc, #36]	@ (8000a5c <MX_DMA_Init+0x3c>)
 8000a38:	6b1b      	ldr	r3, [r3, #48]	@ 0x30
 8000a3a:	f403 0380 	and.w	r3, r3, #4194304	@ 0x400000
 8000a3e:	607b      	str	r3, [r7, #4]
 8000a40:	687b      	ldr	r3, [r7, #4]

  /* DMA interrupt init */
  /* DMA2_Stream0_IRQn interrupt configuration */
  HAL_NVIC_SetPriority(DMA2_Stream0_IRQn, 0, 0);
 8000a42:	2200      	movs	r2, #0
 8000a44:	2100      	movs	r1, #0
 8000a46:	2038      	movs	r0, #56	@ 0x38
 8000a48:	f001 f947 	bl	8001cda <HAL_NVIC_SetPriority>
  HAL_NVIC_EnableIRQ(DMA2_Stream0_IRQn);
 8000a4c:	2038      	movs	r0, #56	@ 0x38
 8000a4e:	f001 f960 	bl	8001d12 <HAL_NVIC_EnableIRQ>

}
 8000a52:	bf00      	nop
 8000a54:	3708      	adds	r7, #8
 8000a56:	46bd      	mov	sp, r7
 8000a58:	bd80      	pop	{r7, pc}
 8000a5a:	bf00      	nop
 8000a5c:	40023800 	.word	0x40023800

08000a60 <MX_GPIO_Init>:
  * @brief GPIO Initialization Function
  * @param None
  * @retval None
  */
static void MX_GPIO_Init(void)
{
 8000a60:	b580      	push	{r7, lr}
 8000a62:	b08c      	sub	sp, #48	@ 0x30
 8000a64:	af00      	add	r7, sp, #0
  GPIO_InitTypeDef GPIO_InitStruct = {0};
 8000a66:	f107 031c 	add.w	r3, r7, #28
 8000a6a:	2200      	movs	r2, #0
 8000a6c:	601a      	str	r2, [r3, #0]
 8000a6e:	605a      	str	r2, [r3, #4]
 8000a70:	609a      	str	r2, [r3, #8]
 8000a72:	60da      	str	r2, [r3, #12]
 8000a74:	611a      	str	r2, [r3, #16]
  /* USER CODE BEGIN MX_GPIO_Init_1 */

  /* USER CODE END MX_GPIO_Init_1 */

  /* GPIO Ports Clock Enable */
  __HAL_RCC_GPIOE_CLK_ENABLE();
 8000a76:	2300      	movs	r3, #0
 8000a78:	61bb      	str	r3, [r7, #24]
 8000a7a:	4b94      	ldr	r3, [pc, #592]	@ (8000ccc <MX_GPIO_Init+0x26c>)
 8000a7c:	6b1b      	ldr	r3, [r3, #48]	@ 0x30
 8000a7e:	4a93      	ldr	r2, [pc, #588]	@ (8000ccc <MX_GPIO_Init+0x26c>)
 8000a80:	f043 0310 	orr.w	r3, r3, #16
 8000a84:	6313      	str	r3, [r2, #48]	@ 0x30
 8000a86:	4b91      	ldr	r3, [pc, #580]	@ (8000ccc <MX_GPIO_Init+0x26c>)
 8000a88:	6b1b      	ldr	r3, [r3, #48]	@ 0x30
 8000a8a:	f003 0310 	and.w	r3, r3, #16
 8000a8e:	61bb      	str	r3, [r7, #24]
 8000a90:	69bb      	ldr	r3, [r7, #24]
  __HAL_RCC_GPIOC_CLK_ENABLE();
 8000a92:	2300      	movs	r3, #0
 8000a94:	617b      	str	r3, [r7, #20]
 8000a96:	4b8d      	ldr	r3, [pc, #564]	@ (8000ccc <MX_GPIO_Init+0x26c>)
 8000a98:	6b1b      	ldr	r3, [r3, #48]	@ 0x30
 8000a9a:	4a8c      	ldr	r2, [pc, #560]	@ (8000ccc <MX_GPIO_Init+0x26c>)
 8000a9c:	f043 0304 	orr.w	r3, r3, #4
 8000aa0:	6313      	str	r3, [r2, #48]	@ 0x30
 8000aa2:	4b8a      	ldr	r3, [pc, #552]	@ (8000ccc <MX_GPIO_Init+0x26c>)
 8000aa4:	6b1b      	ldr	r3, [r3, #48]	@ 0x30
 8000aa6:	f003 0304 	and.w	r3, r3, #4
 8000aaa:	617b      	str	r3, [r7, #20]
 8000aac:	697b      	ldr	r3, [r7, #20]
  __HAL_RCC_GPIOH_CLK_ENABLE();
 8000aae:	2300      	movs	r3, #0
 8000ab0:	613b      	str	r3, [r7, #16]
 8000ab2:	4b86      	ldr	r3, [pc, #536]	@ (8000ccc <MX_GPIO_Init+0x26c>)
 8000ab4:	6b1b      	ldr	r3, [r3, #48]	@ 0x30
 8000ab6:	4a85      	ldr	r2, [pc, #532]	@ (8000ccc <MX_GPIO_Init+0x26c>)
 8000ab8:	f043 0380 	orr.w	r3, r3, #128	@ 0x80
 8000abc:	6313      	str	r3, [r2, #48]	@ 0x30
 8000abe:	4b83      	ldr	r3, [pc, #524]	@ (8000ccc <MX_GPIO_Init+0x26c>)
 8000ac0:	6b1b      	ldr	r3, [r3, #48]	@ 0x30
 8000ac2:	f003 0380 	and.w	r3, r3, #128	@ 0x80
 8000ac6:	613b      	str	r3, [r7, #16]
 8000ac8:	693b      	ldr	r3, [r7, #16]
  __HAL_RCC_GPIOA_CLK_ENABLE();
 8000aca:	2300      	movs	r3, #0
 8000acc:	60fb      	str	r3, [r7, #12]
 8000ace:	4b7f      	ldr	r3, [pc, #508]	@ (8000ccc <MX_GPIO_Init+0x26c>)
 8000ad0:	6b1b      	ldr	r3, [r3, #48]	@ 0x30
 8000ad2:	4a7e      	ldr	r2, [pc, #504]	@ (8000ccc <MX_GPIO_Init+0x26c>)
 8000ad4:	f043 0301 	orr.w	r3, r3, #1
 8000ad8:	6313      	str	r3, [r2, #48]	@ 0x30
 8000ada:	4b7c      	ldr	r3, [pc, #496]	@ (8000ccc <MX_GPIO_Init+0x26c>)
 8000adc:	6b1b      	ldr	r3, [r3, #48]	@ 0x30
 8000ade:	f003 0301 	and.w	r3, r3, #1
 8000ae2:	60fb      	str	r3, [r7, #12]
 8000ae4:	68fb      	ldr	r3, [r7, #12]
  __HAL_RCC_GPIOB_CLK_ENABLE();
 8000ae6:	2300      	movs	r3, #0
 8000ae8:	60bb      	str	r3, [r7, #8]
 8000aea:	4b78      	ldr	r3, [pc, #480]	@ (8000ccc <MX_GPIO_Init+0x26c>)
 8000aec:	6b1b      	ldr	r3, [r3, #48]	@ 0x30
 8000aee:	4a77      	ldr	r2, [pc, #476]	@ (8000ccc <MX_GPIO_Init+0x26c>)
 8000af0:	f043 0302 	orr.w	r3, r3, #2
 8000af4:	6313      	str	r3, [r2, #48]	@ 0x30
 8000af6:	4b75      	ldr	r3, [pc, #468]	@ (8000ccc <MX_GPIO_Init+0x26c>)
 8000af8:	6b1b      	ldr	r3, [r3, #48]	@ 0x30
 8000afa:	f003 0302 	and.w	r3, r3, #2
 8000afe:	60bb      	str	r3, [r7, #8]
 8000b00:	68bb      	ldr	r3, [r7, #8]
  __HAL_RCC_GPIOD_CLK_ENABLE();
 8000b02:	2300      	movs	r3, #0
 8000b04:	607b      	str	r3, [r7, #4]
 8000b06:	4b71      	ldr	r3, [pc, #452]	@ (8000ccc <MX_GPIO_Init+0x26c>)
 8000b08:	6b1b      	ldr	r3, [r3, #48]	@ 0x30
 8000b0a:	4a70      	ldr	r2, [pc, #448]	@ (8000ccc <MX_GPIO_Init+0x26c>)
 8000b0c:	f043 0308 	orr.w	r3, r3, #8
 8000b10:	6313      	str	r3, [r2, #48]	@ 0x30
 8000b12:	4b6e      	ldr	r3, [pc, #440]	@ (8000ccc <MX_GPIO_Init+0x26c>)
 8000b14:	6b1b      	ldr	r3, [r3, #48]	@ 0x30
 8000b16:	f003 0308 	and.w	r3, r3, #8
 8000b1a:	607b      	str	r3, [r7, #4]
 8000b1c:	687b      	ldr	r3, [r7, #4]

  /*Configure GPIO pin Output Level */
  HAL_GPIO_WritePin(CS_I2C_SPI_GPIO_Port, CS_I2C_SPI_Pin, GPIO_PIN_RESET);
 8000b1e:	2200      	movs	r2, #0
 8000b20:	2108      	movs	r1, #8
 8000b22:	486b      	ldr	r0, [pc, #428]	@ (8000cd0 <MX_GPIO_Init+0x270>)
 8000b24:	f001 fe04 	bl	8002730 <HAL_GPIO_WritePin>

  /*Configure GPIO pin Output Level */
  HAL_GPIO_WritePin(OTG_FS_PowerSwitchOn_GPIO_Port, OTG_FS_PowerSwitchOn_Pin, GPIO_PIN_SET);
 8000b28:	2201      	movs	r2, #1
 8000b2a:	2101      	movs	r1, #1
 8000b2c:	4869      	ldr	r0, [pc, #420]	@ (8000cd4 <MX_GPIO_Init+0x274>)
 8000b2e:	f001 fdff 	bl	8002730 <HAL_GPIO_WritePin>

  /*Configure GPIO pin Output Level */
  HAL_GPIO_WritePin(GPIOB, SD_CS_Pin|DDS_CS_Pin, GPIO_PIN_RESET);
 8000b32:	2200      	movs	r2, #0
 8000b34:	2103      	movs	r1, #3
 8000b36:	4868      	ldr	r0, [pc, #416]	@ (8000cd8 <MX_GPIO_Init+0x278>)
 8000b38:	f001 fdfa 	bl	8002730 <HAL_GPIO_WritePin>

  /*Configure GPIO pin Output Level */
  HAL_GPIO_WritePin(GPIOD, LD4_Pin|LD3_Pin|LD5_Pin|LD6_Pin
 8000b3c:	2200      	movs	r2, #0
 8000b3e:	f24f 0110 	movw	r1, #61456	@ 0xf010
 8000b42:	4866      	ldr	r0, [pc, #408]	@ (8000cdc <MX_GPIO_Init+0x27c>)
 8000b44:	f001 fdf4 	bl	8002730 <HAL_GPIO_WritePin>
                          |Audio_RST_Pin, GPIO_PIN_RESET);

  /*Configure GPIO pin : PE2 */
  GPIO_InitStruct.Pin = GPIO_PIN_2;
 8000b48:	2304      	movs	r3, #4
 8000b4a:	61fb      	str	r3, [r7, #28]
  GPIO_InitStruct.Mode = GPIO_MODE_INPUT;
 8000b4c:	2300      	movs	r3, #0
 8000b4e:	623b      	str	r3, [r7, #32]
  GPIO_InitStruct.Pull = GPIO_NOPULL;
 8000b50:	2300      	movs	r3, #0
 8000b52:	627b      	str	r3, [r7, #36]	@ 0x24
  HAL_GPIO_Init(GPIOE, &GPIO_InitStruct);
 8000b54:	f107 031c 	add.w	r3, r7, #28
 8000b58:	4619      	mov	r1, r3
 8000b5a:	485d      	ldr	r0, [pc, #372]	@ (8000cd0 <MX_GPIO_Init+0x270>)
 8000b5c:	f001 fc64 	bl	8002428 <HAL_GPIO_Init>

  /*Configure GPIO pin : CS_I2C_SPI_Pin */
  GPIO_InitStruct.Pin = CS_I2C_SPI_Pin;
 8000b60:	2308      	movs	r3, #8
 8000b62:	61fb      	str	r3, [r7, #28]
  GPIO_InitStruct.Mode = GPIO_MODE_OUTPUT_PP;
 8000b64:	2301      	movs	r3, #1
 8000b66:	623b      	str	r3, [r7, #32]
  GPIO_InitStruct.Pull = GPIO_NOPULL;
 8000b68:	2300      	movs	r3, #0
 8000b6a:	627b      	str	r3, [r7, #36]	@ 0x24
  GPIO_InitStruct.Speed = GPIO_SPEED_FREQ_LOW;
 8000b6c:	2300      	movs	r3, #0
 8000b6e:	62bb      	str	r3, [r7, #40]	@ 0x28
  HAL_GPIO_Init(CS_I2C_SPI_GPIO_Port, &GPIO_InitStruct);
 8000b70:	f107 031c 	add.w	r3, r7, #28
 8000b74:	4619      	mov	r1, r3
 8000b76:	4856      	ldr	r0, [pc, #344]	@ (8000cd0 <MX_GPIO_Init+0x270>)
 8000b78:	f001 fc56 	bl	8002428 <HAL_GPIO_Init>

  /*Configure GPIO pins : PE4 PE5 MEMS_INT2_Pin */
  GPIO_InitStruct.Pin = GPIO_PIN_4|GPIO_PIN_5|MEMS_INT2_Pin;
 8000b7c:	2332      	movs	r3, #50	@ 0x32
 8000b7e:	61fb      	str	r3, [r7, #28]
  GPIO_InitStruct.Mode = GPIO_MODE_EVT_RISING;
 8000b80:	f44f 1390 	mov.w	r3, #1179648	@ 0x120000
 8000b84:	623b      	str	r3, [r7, #32]
  GPIO_InitStruct.Pull = GPIO_NOPULL;
 8000b86:	2300      	movs	r3, #0
 8000b88:	627b      	str	r3, [r7, #36]	@ 0x24
  HAL_GPIO_Init(GPIOE, &GPIO_InitStruct);
 8000b8a:	f107 031c 	add.w	r3, r7, #28
 8000b8e:	4619      	mov	r1, r3
 8000b90:	484f      	ldr	r0, [pc, #316]	@ (8000cd0 <MX_GPIO_Init+0x270>)
 8000b92:	f001 fc49 	bl	8002428 <HAL_GPIO_Init>

  /*Configure GPIO pin : OTG_FS_PowerSwitchOn_Pin */
  GPIO_InitStruct.Pin = OTG_FS_PowerSwitchOn_Pin;
 8000b96:	2301      	movs	r3, #1
 8000b98:	61fb      	str	r3, [r7, #28]
  GPIO_InitStruct.Mode = GPIO_MODE_OUTPUT_PP;
 8000b9a:	2301      	movs	r3, #1
 8000b9c:	623b      	str	r3, [r7, #32]
  GPIO_InitStruct.Pull = GPIO_NOPULL;
 8000b9e:	2300      	movs	r3, #0
 8000ba0:	627b      	str	r3, [r7, #36]	@ 0x24
  GPIO_InitStruct.Speed = GPIO_SPEED_FREQ_LOW;
 8000ba2:	2300      	movs	r3, #0
 8000ba4:	62bb      	str	r3, [r7, #40]	@ 0x28
  HAL_GPIO_Init(OTG_FS_PowerSwitchOn_GPIO_Port, &GPIO_InitStruct);
 8000ba6:	f107 031c 	add.w	r3, r7, #28
 8000baa:	4619      	mov	r1, r3
 8000bac:	4849      	ldr	r0, [pc, #292]	@ (8000cd4 <MX_GPIO_Init+0x274>)
 8000bae:	f001 fc3b 	bl	8002428 <HAL_GPIO_Init>

  /*Configure GPIO pin : PDM_OUT_Pin */
  GPIO_InitStruct.Pin = PDM_OUT_Pin;
 8000bb2:	2308      	movs	r3, #8
 8000bb4:	61fb      	str	r3, [r7, #28]
  GPIO_InitStruct.Mode = GPIO_MODE_AF_PP;
 8000bb6:	2302      	movs	r3, #2
 8000bb8:	623b      	str	r3, [r7, #32]
  GPIO_InitStruct.Pull = GPIO_NOPULL;
 8000bba:	2300      	movs	r3, #0
 8000bbc:	627b      	str	r3, [r7, #36]	@ 0x24
  GPIO_InitStruct.Speed = GPIO_SPEED_FREQ_LOW;
 8000bbe:	2300      	movs	r3, #0
 8000bc0:	62bb      	str	r3, [r7, #40]	@ 0x28
  GPIO_InitStruct.Alternate = GPIO_AF5_SPI2;
 8000bc2:	2305      	movs	r3, #5
 8000bc4:	62fb      	str	r3, [r7, #44]	@ 0x2c
  HAL_GPIO_Init(PDM_OUT_GPIO_Port, &GPIO_InitStruct);
 8000bc6:	f107 031c 	add.w	r3, r7, #28
 8000bca:	4619      	mov	r1, r3
 8000bcc:	4841      	ldr	r0, [pc, #260]	@ (8000cd4 <MX_GPIO_Init+0x274>)
 8000bce:	f001 fc2b 	bl	8002428 <HAL_GPIO_Init>

  /*Configure GPIO pin : PA0 */
  GPIO_InitStruct.Pin = GPIO_PIN_0;
 8000bd2:	2301      	movs	r3, #1
 8000bd4:	61fb      	str	r3, [r7, #28]
  GPIO_InitStruct.Mode = GPIO_MODE_EVT_RISING;
 8000bd6:	f44f 1390 	mov.w	r3, #1179648	@ 0x120000
 8000bda:	623b      	str	r3, [r7, #32]
  GPIO_InitStruct.Pull = GPIO_NOPULL;
 8000bdc:	2300      	movs	r3, #0
 8000bde:	627b      	str	r3, [r7, #36]	@ 0x24
  HAL_GPIO_Init(GPIOA, &GPIO_InitStruct);
 8000be0:	f107 031c 	add.w	r3, r7, #28
 8000be4:	4619      	mov	r1, r3
 8000be6:	483e      	ldr	r0, [pc, #248]	@ (8000ce0 <MX_GPIO_Init+0x280>)
 8000be8:	f001 fc1e 	bl	8002428 <HAL_GPIO_Init>

  /*Configure GPIO pin : I2S3_WS_Pin */
  GPIO_InitStruct.Pin = I2S3_WS_Pin;
 8000bec:	2310      	movs	r3, #16
 8000bee:	61fb      	str	r3, [r7, #28]
  GPIO_InitStruct.Mode = GPIO_MODE_AF_PP;
 8000bf0:	2302      	movs	r3, #2
 8000bf2:	623b      	str	r3, [r7, #32]
  GPIO_InitStruct.Pull = GPIO_NOPULL;
 8000bf4:	2300      	movs	r3, #0
 8000bf6:	627b      	str	r3, [r7, #36]	@ 0x24
  GPIO_InitStruct.Speed = GPIO_SPEED_FREQ_LOW;
 8000bf8:	2300      	movs	r3, #0
 8000bfa:	62bb      	str	r3, [r7, #40]	@ 0x28
  GPIO_InitStruct.Alternate = GPIO_AF6_SPI3;
 8000bfc:	2306      	movs	r3, #6
 8000bfe:	62fb      	str	r3, [r7, #44]	@ 0x2c
  HAL_GPIO_Init(I2S3_WS_GPIO_Port, &GPIO_InitStruct);
 8000c00:	f107 031c 	add.w	r3, r7, #28
 8000c04:	4619      	mov	r1, r3
 8000c06:	4836      	ldr	r0, [pc, #216]	@ (8000ce0 <MX_GPIO_Init+0x280>)
 8000c08:	f001 fc0e 	bl	8002428 <HAL_GPIO_Init>

  /*Configure GPIO pins : SPI1_SCK_Pin SPI1_MISO_Pin SPI1_MOSI_Pin */
  GPIO_InitStruct.Pin = SPI1_SCK_Pin|SPI1_MISO_Pin|SPI1_MOSI_Pin;
 8000c0c:	23e0      	movs	r3, #224	@ 0xe0
 8000c0e:	61fb      	str	r3, [r7, #28]
  GPIO_InitStruct.Mode = GPIO_MODE_AF_PP;
 8000c10:	2302      	movs	r3, #2
 8000c12:	623b      	str	r3, [r7, #32]
  GPIO_InitStruct.Pull = GPIO_NOPULL;
 8000c14:	2300      	movs	r3, #0
 8000c16:	627b      	str	r3, [r7, #36]	@ 0x24
  GPIO_InitStruct.Speed = GPIO_SPEED_FREQ_VERY_HIGH;
 8000c18:	2303      	movs	r3, #3
 8000c1a:	62bb      	str	r3, [r7, #40]	@ 0x28
  GPIO_InitStruct.Alternate = GPIO_AF5_SPI1;
 8000c1c:	2305      	movs	r3, #5
 8000c1e:	62fb      	str	r3, [r7, #44]	@ 0x2c
  HAL_GPIO_Init(GPIOA, &GPIO_InitStruct);
 8000c20:	f107 031c 	add.w	r3, r7, #28
 8000c24:	4619      	mov	r1, r3
 8000c26:	482e      	ldr	r0, [pc, #184]	@ (8000ce0 <MX_GPIO_Init+0x280>)
 8000c28:	f001 fbfe 	bl	8002428 <HAL_GPIO_Init>

  /*Configure GPIO pins : SD_CS_Pin DDS_CS_Pin */
  GPIO_InitStruct.Pin = SD_CS_Pin|DDS_CS_Pin;
 8000c2c:	2303      	movs	r3, #3
 8000c2e:	61fb      	str	r3, [r7, #28]
  GPIO_InitStruct.Mode = GPIO_MODE_OUTPUT_PP;
 8000c30:	2301      	movs	r3, #1
 8000c32:	623b      	str	r3, [r7, #32]
  GPIO_InitStruct.Pull = GPIO_NOPULL;
 8000c34:	2300      	movs	r3, #0
 8000c36:	627b      	str	r3, [r7, #36]	@ 0x24
  GPIO_InitStruct.Speed = GPIO_SPEED_FREQ_LOW;
 8000c38:	2300      	movs	r3, #0
 8000c3a:	62bb      	str	r3, [r7, #40]	@ 0x28
  HAL_GPIO_Init(GPIOB, &GPIO_InitStruct);
 8000c3c:	f107 031c 	add.w	r3, r7, #28
 8000c40:	4619      	mov	r1, r3
 8000c42:	4825      	ldr	r0, [pc, #148]	@ (8000cd8 <MX_GPIO_Init+0x278>)
 8000c44:	f001 fbf0 	bl	8002428 <HAL_GPIO_Init>

  /*Configure GPIO pins : CLK_IN_Pin PB12 */
  GPIO_InitStruct.Pin = CLK_IN_Pin|GPIO_PIN_12;
 8000c48:	f44f 53a0 	mov.w	r3, #5120	@ 0x1400
 8000c4c:	61fb      	str	r3, [r7, #28]
  GPIO_InitStruct.Mode = GPIO_MODE_AF_PP;
 8000c4e:	2302      	movs	r3, #2
 8000c50:	623b      	str	r3, [r7, #32]
  GPIO_InitStruct.Pull = GPIO_NOPULL;
 8000c52:	2300      	movs	r3, #0
 8000c54:	627b      	str	r3, [r7, #36]	@ 0x24
  GPIO_InitStruct.Speed = GPIO_SPEED_FREQ_LOW;
 8000c56:	2300      	movs	r3, #0
 8000c58:	62bb      	str	r3, [r7, #40]	@ 0x28
  GPIO_InitStruct.Alternate = GPIO_AF5_SPI2;
 8000c5a:	2305      	movs	r3, #5
 8000c5c:	62fb      	str	r3, [r7, #44]	@ 0x2c
  HAL_GPIO_Init(GPIOB, &GPIO_InitStruct);
 8000c5e:	f107 031c 	add.w	r3, r7, #28
 8000c62:	4619      	mov	r1, r3
 8000c64:	481c      	ldr	r0, [pc, #112]	@ (8000cd8 <MX_GPIO_Init+0x278>)
 8000c66:	f001 fbdf 	bl	8002428 <HAL_GPIO_Init>

  /*Configure GPIO pins : LD4_Pin LD3_Pin LD5_Pin LD6_Pin
                           Audio_RST_Pin */
  GPIO_InitStruct.Pin = LD4_Pin|LD3_Pin|LD5_Pin|LD6_Pin
 8000c6a:	f24f 0310 	movw	r3, #61456	@ 0xf010
 8000c6e:	61fb      	str	r3, [r7, #28]
                          |Audio_RST_Pin;
  GPIO_InitStruct.Mode = GPIO_MODE_OUTPUT_PP;
 8000c70:	2301      	movs	r3, #1
 8000c72:	623b      	str	r3, [r7, #32]
  GPIO_InitStruct.Pull = GPIO_NOPULL;
 8000c74:	2300      	movs	r3, #0
 8000c76:	627b      	str	r3, [r7, #36]	@ 0x24
  GPIO_InitStruct.Speed = GPIO_SPEED_FREQ_LOW;
 8000c78:	2300      	movs	r3, #0
 8000c7a:	62bb      	str	r3, [r7, #40]	@ 0x28
  HAL_GPIO_Init(GPIOD, &GPIO_InitStruct);
 8000c7c:	f107 031c 	add.w	r3, r7, #28
 8000c80:	4619      	mov	r1, r3
 8000c82:	4816      	ldr	r0, [pc, #88]	@ (8000cdc <MX_GPIO_Init+0x27c>)
 8000c84:	f001 fbd0 	bl	8002428 <HAL_GPIO_Init>

  /*Configure GPIO pins : I2S3_MCK_Pin I2S3_SCK_Pin I2S3_SD_Pin */
  GPIO_InitStruct.Pin = I2S3_MCK_Pin|I2S3_SCK_Pin|I2S3_SD_Pin;
 8000c88:	f44f 53a4 	mov.w	r3, #5248	@ 0x1480
 8000c8c:	61fb      	str	r3, [r7, #28]
  GPIO_InitStruct.Mode = GPIO_MODE_AF_PP;
 8000c8e:	2302      	movs	r3, #2
 8000c90:	623b      	str	r3, [r7, #32]
  GPIO_InitStruct.Pull = GPIO_NOPULL;
 8000c92:	2300      	movs	r3, #0
 8000c94:	627b      	str	r3, [r7, #36]	@ 0x24
  GPIO_InitStruct.Speed = GPIO_SPEED_FREQ_LOW;
 8000c96:	2300      	movs	r3, #0
 8000c98:	62bb      	str	r3, [r7, #40]	@ 0x28
  GPIO_InitStruct.Alternate = GPIO_AF6_SPI3;
 8000c9a:	2306      	movs	r3, #6
 8000c9c:	62fb      	str	r3, [r7, #44]	@ 0x2c
  HAL_GPIO_Init(GPIOC, &GPIO_InitStruct);
 8000c9e:	f107 031c 	add.w	r3, r7, #28
 8000ca2:	4619      	mov	r1, r3
 8000ca4:	480b      	ldr	r0, [pc, #44]	@ (8000cd4 <MX_GPIO_Init+0x274>)
 8000ca6:	f001 fbbf 	bl	8002428 <HAL_GPIO_Init>

  /*Configure GPIO pin : OTG_FS_OverCurrent_Pin */
  GPIO_InitStruct.Pin = OTG_FS_OverCurrent_Pin;
 8000caa:	2320      	movs	r3, #32
 8000cac:	61fb      	str	r3, [r7, #28]
  GPIO_InitStruct.Mode = GPIO_MODE_INPUT;
 8000cae:	2300      	movs	r3, #0
 8000cb0:	623b      	str	r3, [r7, #32]
  GPIO_InitStruct.Pull = GPIO_NOPULL;
 8000cb2:	2300      	movs	r3, #0
 8000cb4:	627b      	str	r3, [r7, #36]	@ 0x24
  HAL_GPIO_Init(OTG_FS_OverCurrent_GPIO_Port, &GPIO_InitStruct);
 8000cb6:	f107 031c 	add.w	r3, r7, #28
 8000cba:	4619      	mov	r1, r3
 8000cbc:	4807      	ldr	r0, [pc, #28]	@ (8000cdc <MX_GPIO_Init+0x27c>)
 8000cbe:	f001 fbb3 	bl	8002428 <HAL_GPIO_Init>

  /* USER CODE BEGIN MX_GPIO_Init_2 */

  /* USER CODE END MX_GPIO_Init_2 */
}
 8000cc2:	bf00      	nop
 8000cc4:	3730      	adds	r7, #48	@ 0x30
 8000cc6:	46bd      	mov	sp, r7
 8000cc8:	bd80      	pop	{r7, pc}
 8000cca:	bf00      	nop
 8000ccc:	40023800 	.word	0x40023800
 8000cd0:	40021000 	.word	0x40021000
 8000cd4:	40020800 	.word	0x40020800
 8000cd8:	40020400 	.word	0x40020400
 8000cdc:	40020c00 	.word	0x40020c00
 8000ce0:	40020000 	.word	0x40020000

08000ce4 <Error_Handler>:
/**
  * @brief  This function is executed in case of error occurrence.
  * @retval None
  */
void Error_Handler(void)
{
 8000ce4:	b480      	push	{r7}
 8000ce6:	af00      	add	r7, sp, #0
  \details Disables IRQ interrupts by setting special-purpose register PRIMASK.
           Can only be executed in Privileged modes.
 */
__STATIC_FORCEINLINE void __disable_irq(void)
{
  __ASM volatile ("cpsid i" : : : "memory");
 8000ce8:	b672      	cpsid	i
}
 8000cea:	bf00      	nop
  /* USER CODE BEGIN Error_Handler_Debug */
  /* User can add his own implementation to report the HAL error return state */
  __disable_irq();
  while (1)
 8000cec:	bf00      	nop
 8000cee:	e7fd      	b.n	8000cec <Error_Handler+0x8>

08000cf0 <HAL_MspInit>:
/* USER CODE END 0 */
/**
  * Initializes the Global MSP.
  */
void HAL_MspInit(void)
{
 8000cf0:	b580      	push	{r7, lr}
 8000cf2:	b082      	sub	sp, #8
 8000cf4:	af00      	add	r7, sp, #0

  /* USER CODE BEGIN MspInit 0 */

  /* USER CODE END MspInit 0 */

  __HAL_RCC_SYSCFG_CLK_ENABLE();
 8000cf6:	2300      	movs	r3, #0
 8000cf8:	607b      	str	r3, [r7, #4]
 8000cfa:	4b10      	ldr	r3, [pc, #64]	@ (8000d3c <HAL_MspInit+0x4c>)
 8000cfc:	6c5b      	ldr	r3, [r3, #68]	@ 0x44
 8000cfe:	4a0f      	ldr	r2, [pc, #60]	@ (8000d3c <HAL_MspInit+0x4c>)
 8000d00:	f443 4380 	orr.w	r3, r3, #16384	@ 0x4000
 8000d04:	6453      	str	r3, [r2, #68]	@ 0x44
 8000d06:	4b0d      	ldr	r3, [pc, #52]	@ (8000d3c <HAL_MspInit+0x4c>)
 8000d08:	6c5b      	ldr	r3, [r3, #68]	@ 0x44
 8000d0a:	f403 4380 	and.w	r3, r3, #16384	@ 0x4000
 8000d0e:	607b      	str	r3, [r7, #4]
 8000d10:	687b      	ldr	r3, [r7, #4]
  __HAL_RCC_PWR_CLK_ENABLE();
 8000d12:	2300      	movs	r3, #0
 8000d14:	603b      	str	r3, [r7, #0]
 8000d16:	4b09      	ldr	r3, [pc, #36]	@ (8000d3c <HAL_MspInit+0x4c>)
 8000d18:	6c1b      	ldr	r3, [r3, #64]	@ 0x40
 8000d1a:	4a08      	ldr	r2, [pc, #32]	@ (8000d3c <HAL_MspInit+0x4c>)
 8000d1c:	f043 5380 	orr.w	r3, r3, #268435456	@ 0x10000000
 8000d20:	6413      	str	r3, [r2, #64]	@ 0x40
 8000d22:	4b06      	ldr	r3, [pc, #24]	@ (8000d3c <HAL_MspInit+0x4c>)
 8000d24:	6c1b      	ldr	r3, [r3, #64]	@ 0x40
 8000d26:	f003 5380 	and.w	r3, r3, #268435456	@ 0x10000000
 8000d2a:	603b      	str	r3, [r7, #0]
 8000d2c:	683b      	ldr	r3, [r7, #0]

  HAL_NVIC_SetPriorityGrouping(NVIC_PRIORITYGROUP_0);
 8000d2e:	2007      	movs	r0, #7
 8000d30:	f000 ffc8 	bl	8001cc4 <HAL_NVIC_SetPriorityGrouping>
  /* System interrupt init*/

  /* USER CODE BEGIN MspInit 1 */

  /* USER CODE END MspInit 1 */
}
 8000d34:	bf00      	nop
 8000d36:	3708      	adds	r7, #8
 8000d38:	46bd      	mov	sp, r7
 8000d3a:	bd80      	pop	{r7, pc}
 8000d3c:	40023800 	.word	0x40023800

08000d40 <HAL_ADC_MspInit>:
  * This function configures the hardware resources used in this example
  * @param hadc: ADC handle pointer
  * @retval None
  */
void HAL_ADC_MspInit(ADC_HandleTypeDef* hadc)
{
 8000d40:	b580      	push	{r7, lr}
 8000d42:	b08a      	sub	sp, #40	@ 0x28
 8000d44:	af00      	add	r7, sp, #0
 8000d46:	6078      	str	r0, [r7, #4]
  GPIO_InitTypeDef GPIO_InitStruct = {0};
 8000d48:	f107 0314 	add.w	r3, r7, #20
 8000d4c:	2200      	movs	r2, #0
 8000d4e:	601a      	str	r2, [r3, #0]
 8000d50:	605a      	str	r2, [r3, #4]
 8000d52:	609a      	str	r2, [r3, #8]
 8000d54:	60da      	str	r2, [r3, #12]
 8000d56:	611a      	str	r2, [r3, #16]
  if(hadc->Instance==ADC1)
 8000d58:	687b      	ldr	r3, [r7, #4]
 8000d5a:	681b      	ldr	r3, [r3, #0]
 8000d5c:	4a2f      	ldr	r2, [pc, #188]	@ (8000e1c <HAL_ADC_MspInit+0xdc>)
 8000d5e:	4293      	cmp	r3, r2
 8000d60:	d157      	bne.n	8000e12 <HAL_ADC_MspInit+0xd2>
  {
    /* USER CODE BEGIN ADC1_MspInit 0 */

    /* USER CODE END ADC1_MspInit 0 */
    /* Peripheral clock enable */
    __HAL_RCC_ADC1_CLK_ENABLE();
 8000d62:	2300      	movs	r3, #0
 8000d64:	613b      	str	r3, [r7, #16]
 8000d66:	4b2e      	ldr	r3, [pc, #184]	@ (8000e20 <HAL_ADC_MspInit+0xe0>)
 8000d68:	6c5b      	ldr	r3, [r3, #68]	@ 0x44
 8000d6a:	4a2d      	ldr	r2, [pc, #180]	@ (8000e20 <HAL_ADC_MspInit+0xe0>)
 8000d6c:	f443 7380 	orr.w	r3, r3, #256	@ 0x100
 8000d70:	6453      	str	r3, [r2, #68]	@ 0x44
 8000d72:	4b2b      	ldr	r3, [pc, #172]	@ (8000e20 <HAL_ADC_MspInit+0xe0>)
 8000d74:	6c5b      	ldr	r3, [r3, #68]	@ 0x44
 8000d76:	f403 7380 	and.w	r3, r3, #256	@ 0x100
 8000d7a:	613b      	str	r3, [r7, #16]
 8000d7c:	693b      	ldr	r3, [r7, #16]

    __HAL_RCC_GPIOA_CLK_ENABLE();
 8000d7e:	2300      	movs	r3, #0
 8000d80:	60fb      	str	r3, [r7, #12]
 8000d82:	4b27      	ldr	r3, [pc, #156]	@ (8000e20 <HAL_ADC_MspInit+0xe0>)
 8000d84:	6b1b      	ldr	r3, [r3, #48]	@ 0x30
 8000d86:	4a26      	ldr	r2, [pc, #152]	@ (8000e20 <HAL_ADC_MspInit+0xe0>)
 8000d88:	f043 0301 	orr.w	r3, r3, #1
 8000d8c:	6313      	str	r3, [r2, #48]	@ 0x30
 8000d8e:	4b24      	ldr	r3, [pc, #144]	@ (8000e20 <HAL_ADC_MspInit+0xe0>)
 8000d90:	6b1b      	ldr	r3, [r3, #48]	@ 0x30
 8000d92:	f003 0301 	and.w	r3, r3, #1
 8000d96:	60fb      	str	r3, [r7, #12]
 8000d98:	68fb      	ldr	r3, [r7, #12]
    /**ADC1 GPIO Configuration
    PA1     ------> ADC1_IN1
    */
    GPIO_InitStruct.Pin = GPIO_PIN_1;
 8000d9a:	2302      	movs	r3, #2
 8000d9c:	617b      	str	r3, [r7, #20]
    GPIO_InitStruct.Mode = GPIO_MODE_ANALOG;
 8000d9e:	2303      	movs	r3, #3
 8000da0:	61bb      	str	r3, [r7, #24]
    GPIO_InitStruct.Pull = GPIO_NOPULL;
 8000da2:	2300      	movs	r3, #0
 8000da4:	61fb      	str	r3, [r7, #28]
    HAL_GPIO_Init(GPIOA, &GPIO_InitStruct);
 8000da6:	f107 0314 	add.w	r3, r7, #20
 8000daa:	4619      	mov	r1, r3
 8000dac:	481d      	ldr	r0, [pc, #116]	@ (8000e24 <HAL_ADC_MspInit+0xe4>)
 8000dae:	f001 fb3b 	bl	8002428 <HAL_GPIO_Init>

    /* ADC1 DMA Init */
    /* ADC1 Init */
    hdma_adc1.Instance = DMA2_Stream0;
 8000db2:	4b1d      	ldr	r3, [pc, #116]	@ (8000e28 <HAL_ADC_MspInit+0xe8>)
 8000db4:	4a1d      	ldr	r2, [pc, #116]	@ (8000e2c <HAL_ADC_MspInit+0xec>)
 8000db6:	601a      	str	r2, [r3, #0]
    hdma_adc1.Init.Channel = DMA_CHANNEL_0;
 8000db8:	4b1b      	ldr	r3, [pc, #108]	@ (8000e28 <HAL_ADC_MspInit+0xe8>)
 8000dba:	2200      	movs	r2, #0
 8000dbc:	605a      	str	r2, [r3, #4]
    hdma_adc1.Init.Direction = DMA_PERIPH_TO_MEMORY;
 8000dbe:	4b1a      	ldr	r3, [pc, #104]	@ (8000e28 <HAL_ADC_MspInit+0xe8>)
 8000dc0:	2200      	movs	r2, #0
 8000dc2:	609a      	str	r2, [r3, #8]
    hdma_adc1.Init.PeriphInc = DMA_PINC_DISABLE;
 8000dc4:	4b18      	ldr	r3, [pc, #96]	@ (8000e28 <HAL_ADC_MspInit+0xe8>)
 8000dc6:	2200      	movs	r2, #0
 8000dc8:	60da      	str	r2, [r3, #12]
    hdma_adc1.Init.MemInc = DMA_MINC_ENABLE;
 8000dca:	4b17      	ldr	r3, [pc, #92]	@ (8000e28 <HAL_ADC_MspInit+0xe8>)
 8000dcc:	f44f 6280 	mov.w	r2, #1024	@ 0x400
 8000dd0:	611a      	str	r2, [r3, #16]
    hdma_adc1.Init.PeriphDataAlignment = DMA_PDATAALIGN_HALFWORD;
 8000dd2:	4b15      	ldr	r3, [pc, #84]	@ (8000e28 <HAL_ADC_MspInit+0xe8>)
 8000dd4:	f44f 6200 	mov.w	r2, #2048	@ 0x800
 8000dd8:	615a      	str	r2, [r3, #20]
    hdma_adc1.Init.MemDataAlignment = DMA_MDATAALIGN_HALFWORD;
 8000dda:	4b13      	ldr	r3, [pc, #76]	@ (8000e28 <HAL_ADC_MspInit+0xe8>)
 8000ddc:	f44f 5200 	mov.w	r2, #8192	@ 0x2000
 8000de0:	619a      	str	r2, [r3, #24]
    hdma_adc1.Init.Mode = DMA_CIRCULAR;
 8000de2:	4b11      	ldr	r3, [pc, #68]	@ (8000e28 <HAL_ADC_MspInit+0xe8>)
 8000de4:	f44f 7280 	mov.w	r2, #256	@ 0x100
 8000de8:	61da      	str	r2, [r3, #28]
    hdma_adc1.Init.Priority = DMA_PRIORITY_LOW;
 8000dea:	4b0f      	ldr	r3, [pc, #60]	@ (8000e28 <HAL_ADC_MspInit+0xe8>)
 8000dec:	2200      	movs	r2, #0
 8000dee:	621a      	str	r2, [r3, #32]
    hdma_adc1.Init.FIFOMode = DMA_FIFOMODE_DISABLE;
 8000df0:	4b0d      	ldr	r3, [pc, #52]	@ (8000e28 <HAL_ADC_MspInit+0xe8>)
 8000df2:	2200      	movs	r2, #0
 8000df4:	625a      	str	r2, [r3, #36]	@ 0x24
    if (HAL_DMA_Init(&hdma_adc1) != HAL_OK)
 8000df6:	480c      	ldr	r0, [pc, #48]	@ (8000e28 <HAL_ADC_MspInit+0xe8>)
 8000df8:	f000 ffa6 	bl	8001d48 <HAL_DMA_Init>
 8000dfc:	4603      	mov	r3, r0
 8000dfe:	2b00      	cmp	r3, #0
 8000e00:	d001      	beq.n	8000e06 <HAL_ADC_MspInit+0xc6>
    {
      Error_Handler();
 8000e02:	f7ff ff6f 	bl	8000ce4 <Error_Handler>
    }

    __HAL_LINKDMA(hadc,DMA_Handle,hdma_adc1);
 8000e06:	687b      	ldr	r3, [r7, #4]
 8000e08:	4a07      	ldr	r2, [pc, #28]	@ (8000e28 <HAL_ADC_MspInit+0xe8>)
 8000e0a:	639a      	str	r2, [r3, #56]	@ 0x38
 8000e0c:	4a06      	ldr	r2, [pc, #24]	@ (8000e28 <HAL_ADC_MspInit+0xe8>)
 8000e0e:	687b      	ldr	r3, [r7, #4]
 8000e10:	6393      	str	r3, [r2, #56]	@ 0x38

    /* USER CODE END ADC1_MspInit 1 */

  }

}
 8000e12:	bf00      	nop
 8000e14:	3728      	adds	r7, #40	@ 0x28
 8000e16:	46bd      	mov	sp, r7
 8000e18:	bd80      	pop	{r7, pc}
 8000e1a:	bf00      	nop
 8000e1c:	40012000 	.word	0x40012000
 8000e20:	40023800 	.word	0x40023800
 8000e24:	40020000 	.word	0x40020000
 8000e28:	20000978 	.word	0x20000978
 8000e2c:	40026410 	.word	0x40026410

08000e30 <HAL_I2C_MspInit>:
  * This function configures the hardware resources used in this example
  * @param hi2c: I2C handle pointer
  * @retval None
  */
void HAL_I2C_MspInit(I2C_HandleTypeDef* hi2c)
{
 8000e30:	b580      	push	{r7, lr}
 8000e32:	b08a      	sub	sp, #40	@ 0x28
 8000e34:	af00      	add	r7, sp, #0
 8000e36:	6078      	str	r0, [r7, #4]
  GPIO_InitTypeDef GPIO_InitStruct = {0};
 8000e38:	f107 0314 	add.w	r3, r7, #20
 8000e3c:	2200      	movs	r2, #0
 8000e3e:	601a      	str	r2, [r3, #0]
 8000e40:	605a      	str	r2, [r3, #4]
 8000e42:	609a      	str	r2, [r3, #8]
 8000e44:	60da      	str	r2, [r3, #12]
 8000e46:	611a      	str	r2, [r3, #16]
  if(hi2c->Instance==I2C1)
 8000e48:	687b      	ldr	r3, [r7, #4]
 8000e4a:	681b      	ldr	r3, [r3, #0]
 8000e4c:	4a19      	ldr	r2, [pc, #100]	@ (8000eb4 <HAL_I2C_MspInit+0x84>)
 8000e4e:	4293      	cmp	r3, r2
 8000e50:	d12c      	bne.n	8000eac <HAL_I2C_MspInit+0x7c>
  {
    /* USER CODE BEGIN I2C1_MspInit 0 */

    /* USER CODE END I2C1_MspInit 0 */

    __HAL_RCC_GPIOB_CLK_ENABLE();
 8000e52:	2300      	movs	r3, #0
 8000e54:	613b      	str	r3, [r7, #16]
 8000e56:	4b18      	ldr	r3, [pc, #96]	@ (8000eb8 <HAL_I2C_MspInit+0x88>)
 8000e58:	6b1b      	ldr	r3, [r3, #48]	@ 0x30
 8000e5a:	4a17      	ldr	r2, [pc, #92]	@ (8000eb8 <HAL_I2C_MspInit+0x88>)
 8000e5c:	f043 0302 	orr.w	r3, r3, #2
 8000e60:	6313      	str	r3, [r2, #48]	@ 0x30
 8000e62:	4b15      	ldr	r3, [pc, #84]	@ (8000eb8 <HAL_I2C_MspInit+0x88>)
 8000e64:	6b1b      	ldr	r3, [r3, #48]	@ 0x30
 8000e66:	f003 0302 	and.w	r3, r3, #2
 8000e6a:	613b      	str	r3, [r7, #16]
 8000e6c:	693b      	ldr	r3, [r7, #16]
    /**I2C1 GPIO Configuration
    PB6     ------> I2C1_SCL
    PB9     ------> I2C1_SDA
    */
    GPIO_InitStruct.Pin = Audio_SCL_Pin|Audio_SDA_Pin;
 8000e6e:	f44f 7310 	mov.w	r3, #576	@ 0x240
 8000e72:	617b      	str	r3, [r7, #20]
    GPIO_InitStruct.Mode = GPIO_MODE_AF_OD;
 8000e74:	2312      	movs	r3, #18
 8000e76:	61bb      	str	r3, [r7, #24]
    GPIO_InitStruct.Pull = GPIO_NOPULL;
 8000e78:	2300      	movs	r3, #0
 8000e7a:	61fb      	str	r3, [r7, #28]
    GPIO_InitStruct.Speed = GPIO_SPEED_FREQ_LOW;
 8000e7c:	2300      	movs	r3, #0
 8000e7e:	623b      	str	r3, [r7, #32]
    GPIO_InitStruct.Alternate = GPIO_AF4_I2C1;
 8000e80:	2304      	movs	r3, #4
 8000e82:	627b      	str	r3, [r7, #36]	@ 0x24
    HAL_GPIO_Init(GPIOB, &GPIO_InitStruct);
 8000e84:	f107 0314 	add.w	r3, r7, #20
 8000e88:	4619      	mov	r1, r3
 8000e8a:	480c      	ldr	r0, [pc, #48]	@ (8000ebc <HAL_I2C_MspInit+0x8c>)
 8000e8c:	f001 facc 	bl	8002428 <HAL_GPIO_Init>

    /* Peripheral clock enable */
    __HAL_RCC_I2C1_CLK_ENABLE();
 8000e90:	2300      	movs	r3, #0
 8000e92:	60fb      	str	r3, [r7, #12]
 8000e94:	4b08      	ldr	r3, [pc, #32]	@ (8000eb8 <HAL_I2C_MspInit+0x88>)
 8000e96:	6c1b      	ldr	r3, [r3, #64]	@ 0x40
 8000e98:	4a07      	ldr	r2, [pc, #28]	@ (8000eb8 <HAL_I2C_MspInit+0x88>)
 8000e9a:	f443 1300 	orr.w	r3, r3, #2097152	@ 0x200000
 8000e9e:	6413      	str	r3, [r2, #64]	@ 0x40
 8000ea0:	4b05      	ldr	r3, [pc, #20]	@ (8000eb8 <HAL_I2C_MspInit+0x88>)
 8000ea2:	6c1b      	ldr	r3, [r3, #64]	@ 0x40
 8000ea4:	f403 1300 	and.w	r3, r3, #2097152	@ 0x200000
 8000ea8:	60fb      	str	r3, [r7, #12]
 8000eaa:	68fb      	ldr	r3, [r7, #12]

    /* USER CODE END I2C1_MspInit 1 */

  }

}
 8000eac:	bf00      	nop
 8000eae:	3728      	adds	r7, #40	@ 0x28
 8000eb0:	46bd      	mov	sp, r7
 8000eb2:	bd80      	pop	{r7, pc}
 8000eb4:	40005400 	.word	0x40005400
 8000eb8:	40023800 	.word	0x40023800
 8000ebc:	40020400 	.word	0x40020400

08000ec0 <HAL_SPI_MspInit>:
  * This function configures the hardware resources used in this example
  * @param hspi: SPI handle pointer
  * @retval None
  */
void HAL_SPI_MspInit(SPI_HandleTypeDef* hspi)
{
 8000ec0:	b580      	push	{r7, lr}
 8000ec2:	b08a      	sub	sp, #40	@ 0x28
 8000ec4:	af00      	add	r7, sp, #0
 8000ec6:	6078      	str	r0, [r7, #4]
  GPIO_InitTypeDef GPIO_InitStruct = {0};
 8000ec8:	f107 0314 	add.w	r3, r7, #20
 8000ecc:	2200      	movs	r2, #0
 8000ece:	601a      	str	r2, [r3, #0]
 8000ed0:	605a      	str	r2, [r3, #4]
 8000ed2:	609a      	str	r2, [r3, #8]
 8000ed4:	60da      	str	r2, [r3, #12]
 8000ed6:	611a      	str	r2, [r3, #16]
  if(hspi->Instance==SPI2)
 8000ed8:	687b      	ldr	r3, [r7, #4]
 8000eda:	681b      	ldr	r3, [r3, #0]
 8000edc:	4a28      	ldr	r2, [pc, #160]	@ (8000f80 <HAL_SPI_MspInit+0xc0>)
 8000ede:	4293      	cmp	r3, r2
 8000ee0:	d14a      	bne.n	8000f78 <HAL_SPI_MspInit+0xb8>
  {
    /* USER CODE BEGIN SPI2_MspInit 0 */

    /* USER CODE END SPI2_MspInit 0 */
    /* Peripheral clock enable */
    __HAL_RCC_SPI2_CLK_ENABLE();
 8000ee2:	2300      	movs	r3, #0
 8000ee4:	613b      	str	r3, [r7, #16]
 8000ee6:	4b27      	ldr	r3, [pc, #156]	@ (8000f84 <HAL_SPI_MspInit+0xc4>)
 8000ee8:	6c1b      	ldr	r3, [r3, #64]	@ 0x40
 8000eea:	4a26      	ldr	r2, [pc, #152]	@ (8000f84 <HAL_SPI_MspInit+0xc4>)
 8000eec:	f443 4380 	orr.w	r3, r3, #16384	@ 0x4000
 8000ef0:	6413      	str	r3, [r2, #64]	@ 0x40
 8000ef2:	4b24      	ldr	r3, [pc, #144]	@ (8000f84 <HAL_SPI_MspInit+0xc4>)
 8000ef4:	6c1b      	ldr	r3, [r3, #64]	@ 0x40
 8000ef6:	f403 4380 	and.w	r3, r3, #16384	@ 0x4000
 8000efa:	613b      	str	r3, [r7, #16]
 8000efc:	693b      	ldr	r3, [r7, #16]

    __HAL_RCC_GPIOC_CLK_ENABLE();
 8000efe:	2300      	movs	r3, #0
 8000f00:	60fb      	str	r3, [r7, #12]
 8000f02:	4b20      	ldr	r3, [pc, #128]	@ (8000f84 <HAL_SPI_MspInit+0xc4>)
 8000f04:	6b1b      	ldr	r3, [r3, #48]	@ 0x30
 8000f06:	4a1f      	ldr	r2, [pc, #124]	@ (8000f84 <HAL_SPI_MspInit+0xc4>)
 8000f08:	f043 0304 	orr.w	r3, r3, #4
 8000f0c:	6313      	str	r3, [r2, #48]	@ 0x30
 8000f0e:	4b1d      	ldr	r3, [pc, #116]	@ (8000f84 <HAL_SPI_MspInit+0xc4>)
 8000f10:	6b1b      	ldr	r3, [r3, #48]	@ 0x30
 8000f12:	f003 0304 	and.w	r3, r3, #4
 8000f16:	60fb      	str	r3, [r7, #12]
 8000f18:	68fb      	ldr	r3, [r7, #12]
    __HAL_RCC_GPIOB_CLK_ENABLE();
 8000f1a:	2300      	movs	r3, #0
 8000f1c:	60bb      	str	r3, [r7, #8]
 8000f1e:	4b19      	ldr	r3, [pc, #100]	@ (8000f84 <HAL_SPI_MspInit+0xc4>)
 8000f20:	6b1b      	ldr	r3, [r3, #48]	@ 0x30
 8000f22:	4a18      	ldr	r2, [pc, #96]	@ (8000f84 <HAL_SPI_MspInit+0xc4>)
 8000f24:	f043 0302 	orr.w	r3, r3, #2
 8000f28:	6313      	str	r3, [r2, #48]	@ 0x30
 8000f2a:	4b16      	ldr	r3, [pc, #88]	@ (8000f84 <HAL_SPI_MspInit+0xc4>)
 8000f2c:	6b1b      	ldr	r3, [r3, #48]	@ 0x30
 8000f2e:	f003 0302 	and.w	r3, r3, #2
 8000f32:	60bb      	str	r3, [r7, #8]
 8000f34:	68bb      	ldr	r3, [r7, #8]
    /**SPI2 GPIO Configuration
    PC2     ------> SPI2_MISO
    PB13     ------> SPI2_SCK
    PB15     ------> SPI2_MOSI
    */
    GPIO_InitStruct.Pin = GPIO_PIN_2;
 8000f36:	2304      	movs	r3, #4
 8000f38:	617b      	str	r3, [r7, #20]
    GPIO_InitStruct.Mode = GPIO_MODE_AF_PP;
 8000f3a:	2302      	movs	r3, #2
 8000f3c:	61bb      	str	r3, [r7, #24]
    GPIO_InitStruct.Pull = GPIO_NOPULL;
 8000f3e:	2300      	movs	r3, #0
 8000f40:	61fb      	str	r3, [r7, #28]
    GPIO_InitStruct.Speed = GPIO_SPEED_FREQ_VERY_HIGH;
 8000f42:	2303      	movs	r3, #3
 8000f44:	623b      	str	r3, [r7, #32]
    GPIO_InitStruct.Alternate = GPIO_AF5_SPI2;
 8000f46:	2305      	movs	r3, #5
 8000f48:	627b      	str	r3, [r7, #36]	@ 0x24
    HAL_GPIO_Init(GPIOC, &GPIO_InitStruct);
 8000f4a:	f107 0314 	add.w	r3, r7, #20
 8000f4e:	4619      	mov	r1, r3
 8000f50:	480d      	ldr	r0, [pc, #52]	@ (8000f88 <HAL_SPI_MspInit+0xc8>)
 8000f52:	f001 fa69 	bl	8002428 <HAL_GPIO_Init>

    GPIO_InitStruct.Pin = GPIO_PIN_13|GPIO_PIN_15;
 8000f56:	f44f 4320 	mov.w	r3, #40960	@ 0xa000
 8000f5a:	617b      	str	r3, [r7, #20]
    GPIO_InitStruct.Mode = GPIO_MODE_AF_PP;
 8000f5c:	2302      	movs	r3, #2
 8000f5e:	61bb      	str	r3, [r7, #24]
    GPIO_InitStruct.Pull = GPIO_NOPULL;
 8000f60:	2300      	movs	r3, #0
 8000f62:	61fb      	str	r3, [r7, #28]
    GPIO_InitStruct.Speed = GPIO_SPEED_FREQ_VERY_HIGH;
 8000f64:	2303      	movs	r3, #3
 8000f66:	623b      	str	r3, [r7, #32]
    GPIO_InitStruct.Alternate = GPIO_AF5_SPI2;
 8000f68:	2305      	movs	r3, #5
 8000f6a:	627b      	str	r3, [r7, #36]	@ 0x24
    HAL_GPIO_Init(GPIOB, &GPIO_InitStruct);
 8000f6c:	f107 0314 	add.w	r3, r7, #20
 8000f70:	4619      	mov	r1, r3
 8000f72:	4806      	ldr	r0, [pc, #24]	@ (8000f8c <HAL_SPI_MspInit+0xcc>)
 8000f74:	f001 fa58 	bl	8002428 <HAL_GPIO_Init>

    /* USER CODE END SPI2_MspInit 1 */

  }

}
 8000f78:	bf00      	nop
 8000f7a:	3728      	adds	r7, #40	@ 0x28
 8000f7c:	46bd      	mov	sp, r7
 8000f7e:	bd80      	pop	{r7, pc}
 8000f80:	40003800 	.word	0x40003800
 8000f84:	40023800 	.word	0x40023800
 8000f88:	40020800 	.word	0x40020800
 8000f8c:	40020400 	.word	0x40020400

08000f90 <HAL_TIM_Base_MspInit>:
  * This function configures the hardware resources used in this example
  * @param htim_base: TIM_Base handle pointer
  * @retval None
  */
void HAL_TIM_Base_MspInit(TIM_HandleTypeDef* htim_base)
{
 8000f90:	b580      	push	{r7, lr}
 8000f92:	b08a      	sub	sp, #40	@ 0x28
 8000f94:	af00      	add	r7, sp, #0
 8000f96:	6078      	str	r0, [r7, #4]
  GPIO_InitTypeDef GPIO_InitStruct = {0};
 8000f98:	f107 0314 	add.w	r3, r7, #20
 8000f9c:	2200      	movs	r2, #0
 8000f9e:	601a      	str	r2, [r3, #0]
 8000fa0:	605a      	str	r2, [r3, #4]
 8000fa2:	609a      	str	r2, [r3, #8]
 8000fa4:	60da      	str	r2, [r3, #12]
 8000fa6:	611a      	str	r2, [r3, #16]
  if(htim_base->Instance==TIM1)
 8000fa8:	687b      	ldr	r3, [r7, #4]
 8000faa:	681b      	ldr	r3, [r3, #0]
 8000fac:	4a1d      	ldr	r2, [pc, #116]	@ (8001024 <HAL_TIM_Base_MspInit+0x94>)
 8000fae:	4293      	cmp	r3, r2
 8000fb0:	d134      	bne.n	800101c <HAL_TIM_Base_MspInit+0x8c>
  {
    /* USER CODE BEGIN TIM1_MspInit 0 */

    /* USER CODE END TIM1_MspInit 0 */
    /* Peripheral clock enable */
    __HAL_RCC_TIM1_CLK_ENABLE();
 8000fb2:	2300      	movs	r3, #0
 8000fb4:	613b      	str	r3, [r7, #16]
 8000fb6:	4b1c      	ldr	r3, [pc, #112]	@ (8001028 <HAL_TIM_Base_MspInit+0x98>)
 8000fb8:	6c5b      	ldr	r3, [r3, #68]	@ 0x44
 8000fba:	4a1b      	ldr	r2, [pc, #108]	@ (8001028 <HAL_TIM_Base_MspInit+0x98>)
 8000fbc:	f043 0301 	orr.w	r3, r3, #1
 8000fc0:	6453      	str	r3, [r2, #68]	@ 0x44
 8000fc2:	4b19      	ldr	r3, [pc, #100]	@ (8001028 <HAL_TIM_Base_MspInit+0x98>)
 8000fc4:	6c5b      	ldr	r3, [r3, #68]	@ 0x44
 8000fc6:	f003 0301 	and.w	r3, r3, #1
 8000fca:	613b      	str	r3, [r7, #16]
 8000fcc:	693b      	ldr	r3, [r7, #16]

    __HAL_RCC_GPIOE_CLK_ENABLE();
 8000fce:	2300      	movs	r3, #0
 8000fd0:	60fb      	str	r3, [r7, #12]
 8000fd2:	4b15      	ldr	r3, [pc, #84]	@ (8001028 <HAL_TIM_Base_MspInit+0x98>)
 8000fd4:	6b1b      	ldr	r3, [r3, #48]	@ 0x30
 8000fd6:	4a14      	ldr	r2, [pc, #80]	@ (8001028 <HAL_TIM_Base_MspInit+0x98>)
 8000fd8:	f043 0310 	orr.w	r3, r3, #16
 8000fdc:	6313      	str	r3, [r2, #48]	@ 0x30
 8000fde:	4b12      	ldr	r3, [pc, #72]	@ (8001028 <HAL_TIM_Base_MspInit+0x98>)
 8000fe0:	6b1b      	ldr	r3, [r3, #48]	@ 0x30
 8000fe2:	f003 0310 	and.w	r3, r3, #16
 8000fe6:	60fb      	str	r3, [r7, #12]
 8000fe8:	68fb      	ldr	r3, [r7, #12]
    /**TIM1 GPIO Configuration
    PE9     ------> TIM1_CH1
    */
    GPIO_InitStruct.Pin = GPIO_PIN_9;
 8000fea:	f44f 7300 	mov.w	r3, #512	@ 0x200
 8000fee:	617b      	str	r3, [r7, #20]
    GPIO_InitStruct.Mode = GPIO_MODE_AF_PP;
 8000ff0:	2302      	movs	r3, #2
 8000ff2:	61bb      	str	r3, [r7, #24]
    GPIO_InitStruct.Pull = GPIO_NOPULL;
 8000ff4:	2300      	movs	r3, #0
 8000ff6:	61fb      	str	r3, [r7, #28]
    GPIO_InitStruct.Speed = GPIO_SPEED_FREQ_LOW;
 8000ff8:	2300      	movs	r3, #0
 8000ffa:	623b      	str	r3, [r7, #32]
    GPIO_InitStruct.Alternate = GPIO_AF1_TIM1;
 8000ffc:	2301      	movs	r3, #1
 8000ffe:	627b      	str	r3, [r7, #36]	@ 0x24
    HAL_GPIO_Init(GPIOE, &GPIO_InitStruct);
 8001000:	f107 0314 	add.w	r3, r7, #20
 8001004:	4619      	mov	r1, r3
 8001006:	4809      	ldr	r0, [pc, #36]	@ (800102c <HAL_TIM_Base_MspInit+0x9c>)
 8001008:	f001 fa0e 	bl	8002428 <HAL_GPIO_Init>

    /* TIM1 interrupt Init */
    HAL_NVIC_SetPriority(TIM1_CC_IRQn, 0, 0);
 800100c:	2200      	movs	r2, #0
 800100e:	2100      	movs	r1, #0
 8001010:	201b      	movs	r0, #27
 8001012:	f000 fe62 	bl	8001cda <HAL_NVIC_SetPriority>
    HAL_NVIC_EnableIRQ(TIM1_CC_IRQn);
 8001016:	201b      	movs	r0, #27
 8001018:	f000 fe7b 	bl	8001d12 <HAL_NVIC_EnableIRQ>

    /* USER CODE END TIM1_MspInit 1 */

  }

}
 800101c:	bf00      	nop
 800101e:	3728      	adds	r7, #40	@ 0x28
 8001020:	46bd      	mov	sp, r7
 8001022:	bd80      	pop	{r7, pc}
 8001024:	40010000 	.word	0x40010000
 8001028:	40023800 	.word	0x40023800
 800102c:	40021000 	.word	0x40021000

08001030 <NMI_Handler>:
/******************************************************************************/
/**
  * @brief This function handles Non maskable interrupt.
  */
void NMI_Handler(void)
{
 8001030:	b480      	push	{r7}
 8001032:	af00      	add	r7, sp, #0
  /* USER CODE BEGIN NonMaskableInt_IRQn 0 */

  /* USER CODE END NonMaskableInt_IRQn 0 */
  /* USER CODE BEGIN NonMaskableInt_IRQn 1 */
   while (1)
 8001034:	bf00      	nop
 8001036:	e7fd      	b.n	8001034 <NMI_Handler+0x4>

08001038 <HardFault_Handler>:

/**
  * @brief This function handles Hard fault interrupt.
  */
void HardFault_Handler(void)
{
 8001038:	b480      	push	{r7}
 800103a:	af00      	add	r7, sp, #0
  /* USER CODE BEGIN HardFault_IRQn 0 */

  /* USER CODE END HardFault_IRQn 0 */
  while (1)
 800103c:	bf00      	nop
 800103e:	e7fd      	b.n	800103c <HardFault_Handler+0x4>

08001040 <MemManage_Handler>:

/**
  * @brief This function handles Memory management fault.
  */
void MemManage_Handler(void)
{
 8001040:	b480      	push	{r7}
 8001042:	af00      	add	r7, sp, #0
  /* USER CODE BEGIN MemoryManagement_IRQn 0 */

  /* USER CODE END MemoryManagement_IRQn 0 */
  while (1)
 8001044:	bf00      	nop
 8001046:	e7fd      	b.n	8001044 <MemManage_Handler+0x4>

08001048 <BusFault_Handler>:

/**
  * @brief This function handles Pre-fetch fault, memory access fault.
  */
void BusFault_Handler(void)
{
 8001048:	b480      	push	{r7}
 800104a:	af00      	add	r7, sp, #0
  /* USER CODE BEGIN BusFault_IRQn 0 */

  /* USER CODE END BusFault_IRQn 0 */
  while (1)
 800104c:	bf00      	nop
 800104e:	e7fd      	b.n	800104c <BusFault_Handler+0x4>

08001050 <UsageFault_Handler>:

/**
  * @brief This function handles Undefined instruction or illegal state.
  */
void UsageFault_Handler(void)
{
 8001050:	b480      	push	{r7}
 8001052:	af00      	add	r7, sp, #0
  /* USER CODE BEGIN UsageFault_IRQn 0 */

  /* USER CODE END UsageFault_IRQn 0 */
  while (1)
 8001054:	bf00      	nop
 8001056:	e7fd      	b.n	8001054 <UsageFault_Handler+0x4>

08001058 <SVC_Handler>:

/**
  * @brief This function handles System service call via SWI instruction.
  */
void SVC_Handler(void)
{
 8001058:	b480      	push	{r7}
 800105a:	af00      	add	r7, sp, #0

  /* USER CODE END SVCall_IRQn 0 */
  /* USER CODE BEGIN SVCall_IRQn 1 */

  /* USER CODE END SVCall_IRQn 1 */
}
 800105c:	bf00      	nop
 800105e:	46bd      	mov	sp, r7
 8001060:	f85d 7b04 	ldr.w	r7, [sp], #4
 8001064:	4770      	bx	lr

08001066 <DebugMon_Handler>:

/**
  * @brief This function handles Debug monitor.
  */
void DebugMon_Handler(void)
{
 8001066:	b480      	push	{r7}
 8001068:	af00      	add	r7, sp, #0

  /* USER CODE END DebugMonitor_IRQn 0 */
  /* USER CODE BEGIN DebugMonitor_IRQn 1 */

  /* USER CODE END DebugMonitor_IRQn 1 */
}
 800106a:	bf00      	nop
 800106c:	46bd      	mov	sp, r7
 800106e:	f85d 7b04 	ldr.w	r7, [sp], #4
 8001072:	4770      	bx	lr

08001074 <PendSV_Handler>:

/**
  * @brief This function handles Pendable request for system service.
  */
void PendSV_Handler(void)
{
 8001074:	b480      	push	{r7}
 8001076:	af00      	add	r7, sp, #0

  /* USER CODE END PendSV_IRQn 0 */
  /* USER CODE BEGIN PendSV_IRQn 1 */

  /* USER CODE END PendSV_IRQn 1 */
}
 8001078:	bf00      	nop
 800107a:	46bd      	mov	sp, r7
 800107c:	f85d 7b04 	ldr.w	r7, [sp], #4
 8001080:	4770      	bx	lr

08001082 <SysTick_Handler>:

/**
  * @brief This function handles System tick timer.
  */
void SysTick_Handler(void)
{
 8001082:	b580      	push	{r7, lr}
 8001084:	af00      	add	r7, sp, #0
  /* USER CODE BEGIN SysTick_IRQn 0 */

  /* USER CODE END SysTick_IRQn 0 */
  HAL_IncTick();
 8001086:	f000 f917 	bl	80012b8 <HAL_IncTick>
  /* USER CODE BEGIN SysTick_IRQn 1 */

  /* USER CODE END SysTick_IRQn 1 */
}
 800108a:	bf00      	nop
 800108c:	bd80      	pop	{r7, pc}
	...

08001090 <TIM1_CC_IRQHandler>:

/**
  * @brief This function handles TIM1 capture compare interrupt.
  */
void TIM1_CC_IRQHandler(void)
{
 8001090:	b580      	push	{r7, lr}
 8001092:	af00      	add	r7, sp, #0
  /* USER CODE BEGIN TIM1_CC_IRQn 0 */

  /* USER CODE END TIM1_CC_IRQn 0 */
  HAL_TIM_IRQHandler(&htim1);
 8001094:	4802      	ldr	r0, [pc, #8]	@ (80010a0 <TIM1_CC_IRQHandler+0x10>)
 8001096:	f003 fcb0 	bl	80049fa <HAL_TIM_IRQHandler>
  /* USER CODE BEGIN TIM1_CC_IRQn 1 */

  /* USER CODE END TIM1_CC_IRQn 1 */
}
 800109a:	bf00      	nop
 800109c:	bd80      	pop	{r7, pc}
 800109e:	bf00      	nop
 80010a0:	20000a84 	.word	0x20000a84

080010a4 <DMA2_Stream0_IRQHandler>:

/**
  * @brief This function handles DMA2 stream0 global interrupt.
  */
void DMA2_Stream0_IRQHandler(void)
{
 80010a4:	b580      	push	{r7, lr}
 80010a6:	af00      	add	r7, sp, #0
  /* USER CODE BEGIN DMA2_Stream0_IRQn 0 */

  /* USER CODE END DMA2_Stream0_IRQn 0 */
  HAL_DMA_IRQHandler(&hdma_adc1);
 80010a8:	4802      	ldr	r0, [pc, #8]	@ (80010b4 <DMA2_Stream0_IRQHandler+0x10>)
 80010aa:	f000 ff53 	bl	8001f54 <HAL_DMA_IRQHandler>
  /* USER CODE BEGIN DMA2_Stream0_IRQn 1 */

  /* USER CODE END DMA2_Stream0_IRQn 1 */
}
 80010ae:	bf00      	nop
 80010b0:	bd80      	pop	{r7, pc}
 80010b2:	bf00      	nop
 80010b4:	20000978 	.word	0x20000978

080010b8 <OTG_FS_IRQHandler>:

/**
  * @brief This function handles USB On The Go FS global interrupt.
  */
void OTG_FS_IRQHandler(void)
{
 80010b8:	b580      	push	{r7, lr}
 80010ba:	af00      	add	r7, sp, #0
  /* USER CODE BEGIN OTG_FS_IRQn 0 */

  /* USER CODE END OTG_FS_IRQn 0 */
  HAL_PCD_IRQHandler(&hpcd_USB_OTG_FS);
 80010bc:	4802      	ldr	r0, [pc, #8]	@ (80010c8 <OTG_FS_IRQHandler+0x10>)
 80010be:	f001 fdd9 	bl	8002c74 <HAL_PCD_IRQHandler>
  /* USER CODE BEGIN OTG_FS_IRQn 1 */

  /* USER CODE END OTG_FS_IRQn 1 */
}
 80010c2:	bf00      	nop
 80010c4:	bd80      	pop	{r7, pc}
 80010c6:	bf00      	nop
 80010c8:	20001fc8 	.word	0x20001fc8

080010cc <SystemInit>:
  *         configuration.
  * @param  None
  * @retval None
  */
void SystemInit(void)
{
 80010cc:	b480      	push	{r7}
 80010ce:	af00      	add	r7, sp, #0
  /* FPU settings ------------------------------------------------------------*/
  #if (__FPU_PRESENT == 1) && (__FPU_USED == 1)
    SCB->CPACR |= ((3UL << 10*2)|(3UL << 11*2));  /* set CP10 and CP11 Full Access */
 80010d0:	4b06      	ldr	r3, [pc, #24]	@ (80010ec <SystemInit+0x20>)
 80010d2:	f8d3 3088 	ldr.w	r3, [r3, #136]	@ 0x88
 80010d6:	4a05      	ldr	r2, [pc, #20]	@ (80010ec <SystemInit+0x20>)
 80010d8:	f443 0370 	orr.w	r3, r3, #15728640	@ 0xf00000
 80010dc:	f8c2 3088 	str.w	r3, [r2, #136]	@ 0x88

  /* Configure the Vector Table location -------------------------------------*/
#if defined(USER_VECT_TAB_ADDRESS)
  SCB->VTOR = VECT_TAB_BASE_ADDRESS | VECT_TAB_OFFSET; /* Vector Table Relocation in Internal SRAM */
#endif /* USER_VECT_TAB_ADDRESS */
}
 80010e0:	bf00      	nop
 80010e2:	46bd      	mov	sp, r7
 80010e4:	f85d 7b04 	ldr.w	r7, [sp], #4
 80010e8:	4770      	bx	lr
 80010ea:	bf00      	nop
 80010ec:	e000ed00 	.word	0xe000ed00

080010f0 <Trigger_Init>:
 */

#include "trigger.h"

void Trigger_Init(Trigger_t *trig, TriggerMode_t mode, uint16_t poziom)
{
 80010f0:	b480      	push	{r7}
 80010f2:	b083      	sub	sp, #12
 80010f4:	af00      	add	r7, sp, #0
 80010f6:	6078      	str	r0, [r7, #4]
 80010f8:	460b      	mov	r3, r1
 80010fa:	70fb      	strb	r3, [r7, #3]
 80010fc:	4613      	mov	r3, r2
 80010fe:	803b      	strh	r3, [r7, #0]
    trig->mode = mode;
 8001100:	687b      	ldr	r3, [r7, #4]
 8001102:	78fa      	ldrb	r2, [r7, #3]
 8001104:	701a      	strb	r2, [r3, #0]
    trig->poziom = poziom;
 8001106:	687b      	ldr	r3, [r7, #4]
 8001108:	883a      	ldrh	r2, [r7, #0]
 800110a:	805a      	strh	r2, [r3, #2]
}
 800110c:	bf00      	nop
 800110e:	370c      	adds	r7, #12
 8001110:	46bd      	mov	sp, r7
 8001112:	f85d 7b04 	ldr.w	r7, [sp], #4
 8001116:	4770      	bx	lr

08001118 <Trigger_Szukaj>:

int16_t Trigger_Szukaj(Trigger_t *trig, uint16_t *bufor, uint16_t rozmiar)
{
 8001118:	b480      	push	{r7}
 800111a:	b087      	sub	sp, #28
 800111c:	af00      	add	r7, sp, #0
 800111e:	60f8      	str	r0, [r7, #12]
 8001120:	60b9      	str	r1, [r7, #8]
 8001122:	4613      	mov	r3, r2
 8001124:	80fb      	strh	r3, [r7, #6]
    if (trig->mode == TRIG_NONE)
 8001126:	68fb      	ldr	r3, [r7, #12]
 8001128:	781b      	ldrb	r3, [r3, #0]
 800112a:	2b02      	cmp	r3, #2
 800112c:	d101      	bne.n	8001132 <Trigger_Szukaj+0x1a>
        return 0;
 800112e:	2300      	movs	r3, #0
 8001130:	e040      	b.n	80011b4 <Trigger_Szukaj+0x9c>

    for (int i = 0; i < rozmiar - 1; i++)
 8001132:	2300      	movs	r3, #0
 8001134:	617b      	str	r3, [r7, #20]
 8001136:	e036      	b.n	80011a6 <Trigger_Szukaj+0x8e>
    {
        if (trig->mode == TRIG_RISING)
 8001138:	68fb      	ldr	r3, [r7, #12]
 800113a:	781b      	ldrb	r3, [r3, #0]
 800113c:	2b00      	cmp	r3, #0
 800113e:	d115      	bne.n	800116c <Trigger_Szukaj+0x54>
        {
            if (bufor[i] < trig->poziom && bufor[i+1] >= trig->poziom)
 8001140:	697b      	ldr	r3, [r7, #20]
 8001142:	005b      	lsls	r3, r3, #1
 8001144:	68ba      	ldr	r2, [r7, #8]
 8001146:	4413      	add	r3, r2
 8001148:	881a      	ldrh	r2, [r3, #0]
 800114a:	68fb      	ldr	r3, [r7, #12]
 800114c:	885b      	ldrh	r3, [r3, #2]
 800114e:	429a      	cmp	r2, r3
 8001150:	d226      	bcs.n	80011a0 <Trigger_Szukaj+0x88>
 8001152:	697b      	ldr	r3, [r7, #20]
 8001154:	3301      	adds	r3, #1
 8001156:	005b      	lsls	r3, r3, #1
 8001158:	68ba      	ldr	r2, [r7, #8]
 800115a:	4413      	add	r3, r2
 800115c:	881a      	ldrh	r2, [r3, #0]
 800115e:	68fb      	ldr	r3, [r7, #12]
 8001160:	885b      	ldrh	r3, [r3, #2]
 8001162:	429a      	cmp	r2, r3
 8001164:	d31c      	bcc.n	80011a0 <Trigger_Szukaj+0x88>
                return i;
 8001166:	697b      	ldr	r3, [r7, #20]
 8001168:	b21b      	sxth	r3, r3
 800116a:	e023      	b.n	80011b4 <Trigger_Szukaj+0x9c>
        }
        else if (trig->mode == TRIG_FALLING)
 800116c:	68fb      	ldr	r3, [r7, #12]
 800116e:	781b      	ldrb	r3, [r3, #0]
 8001170:	2b01      	cmp	r3, #1
 8001172:	d115      	bne.n	80011a0 <Trigger_Szukaj+0x88>
        {
            if (bufor[i] > trig->poziom && bufor[i+1] <= trig->poziom)
 8001174:	697b      	ldr	r3, [r7, #20]
 8001176:	005b      	lsls	r3, r3, #1
 8001178:	68ba      	ldr	r2, [r7, #8]
 800117a:	4413      	add	r3, r2
 800117c:	881a      	ldrh	r2, [r3, #0]
 800117e:	68fb      	ldr	r3, [r7, #12]
 8001180:	885b      	ldrh	r3, [r3, #2]
 8001182:	429a      	cmp	r2, r3
 8001184:	d90c      	bls.n	80011a0 <Trigger_Szukaj+0x88>
 8001186:	697b      	ldr	r3, [r7, #20]
 8001188:	3301      	adds	r3, #1
 800118a:	005b      	lsls	r3, r3, #1
 800118c:	68ba      	ldr	r2, [r7, #8]
 800118e:	4413      	add	r3, r2
 8001190:	881a      	ldrh	r2, [r3, #0]
 8001192:	68fb      	ldr	r3, [r7, #12]
 8001194:	885b      	ldrh	r3, [r3, #2]
 8001196:	429a      	cmp	r2, r3
 8001198:	d802      	bhi.n	80011a0 <Trigger_Szukaj+0x88>
                return i;
 800119a:	697b      	ldr	r3, [r7, #20]
 800119c:	b21b      	sxth	r3, r3
 800119e:	e009      	b.n	80011b4 <Trigger_Szukaj+0x9c>
    for (int i = 0; i < rozmiar - 1; i++)
 80011a0:	697b      	ldr	r3, [r7, #20]
 80011a2:	3301      	adds	r3, #1
 80011a4:	617b      	str	r3, [r7, #20]
 80011a6:	88fb      	ldrh	r3, [r7, #6]
 80011a8:	3b01      	subs	r3, #1
 80011aa:	697a      	ldr	r2, [r7, #20]
 80011ac:	429a      	cmp	r2, r3
 80011ae:	dbc3      	blt.n	8001138 <Trigger_Szukaj+0x20>
        }
    }

    return -1;
 80011b0:	f04f 33ff 	mov.w	r3, #4294967295
}
 80011b4:	4618      	mov	r0, r3
 80011b6:	371c      	adds	r7, #28
 80011b8:	46bd      	mov	sp, r7
 80011ba:	f85d 7b04 	ldr.w	r7, [sp], #4
 80011be:	4770      	bx	lr

080011c0 <Reset_Handler>:

    .section  .text.Reset_Handler
  .weak  Reset_Handler
  .type  Reset_Handler, %function
Reset_Handler:  
  ldr   sp, =_estack    		 /* set stack pointer */
 80011c0:	f8df d034 	ldr.w	sp, [pc, #52]	@ 80011f8 <LoopFillZerobss+0xe>

/* Call the clock system initialization function.*/
  bl  SystemInit   
 80011c4:	f7ff ff82 	bl	80010cc <SystemInit>

/* Copy the data segment initializers from flash to SRAM */  
  ldr r0, =_sdata
 80011c8:	480c      	ldr	r0, [pc, #48]	@ (80011fc <LoopFillZerobss+0x12>)
  ldr r1, =_edata
 80011ca:	490d      	ldr	r1, [pc, #52]	@ (8001200 <LoopFillZerobss+0x16>)
  ldr r2, =_sidata
 80011cc:	4a0d      	ldr	r2, [pc, #52]	@ (8001204 <LoopFillZerobss+0x1a>)
  movs r3, #0
 80011ce:	2300      	movs	r3, #0
  b LoopCopyDataInit
 80011d0:	e002      	b.n	80011d8 <LoopCopyDataInit>

080011d2 <CopyDataInit>:

CopyDataInit:
  ldr r4, [r2, r3]
 80011d2:	58d4      	ldr	r4, [r2, r3]
  str r4, [r0, r3]
 80011d4:	50c4      	str	r4, [r0, r3]
  adds r3, r3, #4
 80011d6:	3304      	adds	r3, #4

080011d8 <LoopCopyDataInit>:

LoopCopyDataInit:
  adds r4, r0, r3
 80011d8:	18c4      	adds	r4, r0, r3
  cmp r4, r1
 80011da:	428c      	cmp	r4, r1
  bcc CopyDataInit
 80011dc:	d3f9      	bcc.n	80011d2 <CopyDataInit>
  
/* Zero fill the bss segment. */
  ldr r2, =_sbss
 80011de:	4a0a      	ldr	r2, [pc, #40]	@ (8001208 <LoopFillZerobss+0x1e>)
  ldr r4, =_ebss
 80011e0:	4c0a      	ldr	r4, [pc, #40]	@ (800120c <LoopFillZerobss+0x22>)
  movs r3, #0
 80011e2:	2300      	movs	r3, #0
  b LoopFillZerobss
 80011e4:	e001      	b.n	80011ea <LoopFillZerobss>

080011e6 <FillZerobss>:

FillZerobss:
  str  r3, [r2]
 80011e6:	6013      	str	r3, [r2, #0]
  adds r2, r2, #4
 80011e8:	3204      	adds	r2, #4

080011ea <LoopFillZerobss>:

LoopFillZerobss:
  cmp r2, r4
 80011ea:	42a2      	cmp	r2, r4
  bcc FillZerobss
 80011ec:	d3fb      	bcc.n	80011e6 <FillZerobss>

/* Call static constructors */
    bl __libc_init_array
 80011ee:	f008 fa73 	bl	80096d8 <__libc_init_array>
/* Call the application's entry point.*/
  bl  main
 80011f2:	f7ff fa37 	bl	8000664 <main>
  bx  lr    
 80011f6:	4770      	bx	lr
  ldr   sp, =_estack    		 /* set stack pointer */
 80011f8:	20020000 	.word	0x20020000
  ldr r0, =_sdata
 80011fc:	20000000 	.word	0x20000000
  ldr r1, =_edata
 8001200:	20000110 	.word	0x20000110
  ldr r2, =_sidata
 8001204:	080097c0 	.word	0x080097c0
  ldr r2, =_sbss
 8001208:	20000110 	.word	0x20000110
  ldr r4, =_ebss
 800120c:	200026cc 	.word	0x200026cc

08001210 <ADC_IRQHandler>:
 * @retval None       
*/
    .section  .text.Default_Handler,"ax",%progbits
Default_Handler:
Infinite_Loop:
  b  Infinite_Loop
 8001210:	e7fe      	b.n	8001210 <ADC_IRQHandler>
	...

08001214 <HAL_Init>:
  *         need to ensure that the SysTick time base is always set to 1 millisecond
  *         to have correct HAL operation.
  * @retval HAL status
  */
HAL_StatusTypeDef HAL_Init(void)
{
 8001214:	b580      	push	{r7, lr}
 8001216:	af00      	add	r7, sp, #0
  /* Configure Flash prefetch, Instruction cache, Data cache */ 
#if (INSTRUCTION_CACHE_ENABLE != 0U)
  __HAL_FLASH_INSTRUCTION_CACHE_ENABLE();
 8001218:	4b0e      	ldr	r3, [pc, #56]	@ (8001254 <HAL_Init+0x40>)
 800121a:	681b      	ldr	r3, [r3, #0]
 800121c:	4a0d      	ldr	r2, [pc, #52]	@ (8001254 <HAL_Init+0x40>)
 800121e:	f443 7300 	orr.w	r3, r3, #512	@ 0x200
 8001222:	6013      	str	r3, [r2, #0]
#endif /* INSTRUCTION_CACHE_ENABLE */

#if (DATA_CACHE_ENABLE != 0U)
  __HAL_FLASH_DATA_CACHE_ENABLE();
 8001224:	4b0b      	ldr	r3, [pc, #44]	@ (8001254 <HAL_Init+0x40>)
 8001226:	681b      	ldr	r3, [r3, #0]
 8001228:	4a0a      	ldr	r2, [pc, #40]	@ (8001254 <HAL_Init+0x40>)
 800122a:	f443 6380 	orr.w	r3, r3, #1024	@ 0x400
 800122e:	6013      	str	r3, [r2, #0]
#endif /* DATA_CACHE_ENABLE */

#if (PREFETCH_ENABLE != 0U)
  __HAL_FLASH_PREFETCH_BUFFER_ENABLE();
 8001230:	4b08      	ldr	r3, [pc, #32]	@ (8001254 <HAL_Init+0x40>)
 8001232:	681b      	ldr	r3, [r3, #0]
 8001234:	4a07      	ldr	r2, [pc, #28]	@ (8001254 <HAL_Init+0x40>)
 8001236:	f443 7380 	orr.w	r3, r3, #256	@ 0x100
 800123a:	6013      	str	r3, [r2, #0]
#endif /* PREFETCH_ENABLE */

  /* Set Interrupt Group Priority */
  HAL_NVIC_SetPriorityGrouping(NVIC_PRIORITYGROUP_4);
 800123c:	2003      	movs	r0, #3
 800123e:	f000 fd41 	bl	8001cc4 <HAL_NVIC_SetPriorityGrouping>

  /* Use systick as time base source and configure 1ms tick (default clock after Reset is HSI) */
  HAL_InitTick(TICK_INT_PRIORITY);
 8001242:	2000      	movs	r0, #0
 8001244:	f000 f808 	bl	8001258 <HAL_InitTick>

  /* Init the low level hardware */
  HAL_MspInit();
 8001248:	f7ff fd52 	bl	8000cf0 <HAL_MspInit>

  /* Return function status */
  return HAL_OK;
 800124c:	2300      	movs	r3, #0
}
 800124e:	4618      	mov	r0, r3
 8001250:	bd80      	pop	{r7, pc}
 8001252:	bf00      	nop
 8001254:	40023c00 	.word	0x40023c00

08001258 <HAL_InitTick>:
  *       implementation  in user file.
  * @param TickPriority Tick interrupt priority.
  * @retval HAL status
  */
__weak HAL_StatusTypeDef HAL_InitTick(uint32_t TickPriority)
{
 8001258:	b580      	push	{r7, lr}
 800125a:	b082      	sub	sp, #8
 800125c:	af00      	add	r7, sp, #0
 800125e:	6078      	str	r0, [r7, #4]
  /* Configure the SysTick to have interrupt in 1ms time basis*/
  if (HAL_SYSTICK_Config(SystemCoreClock / (1000U / uwTickFreq)) > 0U)
 8001260:	4b12      	ldr	r3, [pc, #72]	@ (80012ac <HAL_InitTick+0x54>)
 8001262:	681a      	ldr	r2, [r3, #0]
 8001264:	4b12      	ldr	r3, [pc, #72]	@ (80012b0 <HAL_InitTick+0x58>)
 8001266:	781b      	ldrb	r3, [r3, #0]
 8001268:	4619      	mov	r1, r3
 800126a:	f44f 737a 	mov.w	r3, #1000	@ 0x3e8
 800126e:	fbb3 f3f1 	udiv	r3, r3, r1
 8001272:	fbb2 f3f3 	udiv	r3, r2, r3
 8001276:	4618      	mov	r0, r3
 8001278:	f000 fd59 	bl	8001d2e <HAL_SYSTICK_Config>
 800127c:	4603      	mov	r3, r0
 800127e:	2b00      	cmp	r3, #0
 8001280:	d001      	beq.n	8001286 <HAL_InitTick+0x2e>
  {
    return HAL_ERROR;
 8001282:	2301      	movs	r3, #1
 8001284:	e00e      	b.n	80012a4 <HAL_InitTick+0x4c>
  }

  /* Configure the SysTick IRQ priority */
  if (TickPriority < (1UL << __NVIC_PRIO_BITS))
 8001286:	687b      	ldr	r3, [r7, #4]
 8001288:	2b0f      	cmp	r3, #15
 800128a:	d80a      	bhi.n	80012a2 <HAL_InitTick+0x4a>
  {
    HAL_NVIC_SetPriority(SysTick_IRQn, TickPriority, 0U);
 800128c:	2200      	movs	r2, #0
 800128e:	6879      	ldr	r1, [r7, #4]
 8001290:	f04f 30ff 	mov.w	r0, #4294967295
 8001294:	f000 fd21 	bl	8001cda <HAL_NVIC_SetPriority>
    uwTickPrio = TickPriority;
 8001298:	4a06      	ldr	r2, [pc, #24]	@ (80012b4 <HAL_InitTick+0x5c>)
 800129a:	687b      	ldr	r3, [r7, #4]
 800129c:	6013      	str	r3, [r2, #0]
  {
    return HAL_ERROR;
  }

  /* Return function status */
  return HAL_OK;
 800129e:	2300      	movs	r3, #0
 80012a0:	e000      	b.n	80012a4 <HAL_InitTick+0x4c>
    return HAL_ERROR;
 80012a2:	2301      	movs	r3, #1
}
 80012a4:	4618      	mov	r0, r3
 80012a6:	3708      	adds	r7, #8
 80012a8:	46bd      	mov	sp, r7
 80012aa:	bd80      	pop	{r7, pc}
 80012ac:	20000000 	.word	0x20000000
 80012b0:	20000008 	.word	0x20000008
 80012b4:	20000004 	.word	0x20000004

080012b8 <HAL_IncTick>:
 * @note This function is declared as __weak to be overwritten in case of other 
  *      implementations in user file.
  * @retval None
  */
__weak void HAL_IncTick(void)
{
 80012b8:	b480      	push	{r7}
 80012ba:	af00      	add	r7, sp, #0
  uwTick += uwTickFreq;
 80012bc:	4b06      	ldr	r3, [pc, #24]	@ (80012d8 <HAL_IncTick+0x20>)
 80012be:	781b      	ldrb	r3, [r3, #0]
 80012c0:	461a      	mov	r2, r3
 80012c2:	4b06      	ldr	r3, [pc, #24]	@ (80012dc <HAL_IncTick+0x24>)
 80012c4:	681b      	ldr	r3, [r3, #0]
 80012c6:	4413      	add	r3, r2
 80012c8:	4a04      	ldr	r2, [pc, #16]	@ (80012dc <HAL_IncTick+0x24>)
 80012ca:	6013      	str	r3, [r2, #0]
}
 80012cc:	bf00      	nop
 80012ce:	46bd      	mov	sp, r7
 80012d0:	f85d 7b04 	ldr.w	r7, [sp], #4
 80012d4:	4770      	bx	lr
 80012d6:	bf00      	nop
 80012d8:	20000008 	.word	0x20000008
 80012dc:	20000ad0 	.word	0x20000ad0

080012e0 <HAL_GetTick>:
  * @note This function is declared as __weak to be overwritten in case of other 
  *       implementations in user file.
  * @retval tick value
  */
__weak uint32_t HAL_GetTick(void)
{
 80012e0:	b480      	push	{r7}
 80012e2:	af00      	add	r7, sp, #0
  return uwTick;
 80012e4:	4b03      	ldr	r3, [pc, #12]	@ (80012f4 <HAL_GetTick+0x14>)
 80012e6:	681b      	ldr	r3, [r3, #0]
}
 80012e8:	4618      	mov	r0, r3
 80012ea:	46bd      	mov	sp, r7
 80012ec:	f85d 7b04 	ldr.w	r7, [sp], #4
 80012f0:	4770      	bx	lr
 80012f2:	bf00      	nop
 80012f4:	20000ad0 	.word	0x20000ad0

080012f8 <HAL_Delay>:
  *       implementations in user file.
  * @param Delay specifies the delay time length, in milliseconds.
  * @retval None
  */
__weak void HAL_Delay(uint32_t Delay)
{
 80012f8:	b580      	push	{r7, lr}
 80012fa:	b084      	sub	sp, #16
 80012fc:	af00      	add	r7, sp, #0
 80012fe:	6078      	str	r0, [r7, #4]
  uint32_t tickstart = HAL_GetTick();
 8001300:	f7ff ffee 	bl	80012e0 <HAL_GetTick>
 8001304:	60b8      	str	r0, [r7, #8]
  uint32_t wait = Delay;
 8001306:	687b      	ldr	r3, [r7, #4]
 8001308:	60fb      	str	r3, [r7, #12]

  /* Add a freq to guarantee minimum wait */
  if (wait < HAL_MAX_DELAY)
 800130a:	68fb      	ldr	r3, [r7, #12]
 800130c:	f1b3 3fff 	cmp.w	r3, #4294967295
 8001310:	d005      	beq.n	800131e <HAL_Delay+0x26>
  {
    wait += (uint32_t)(uwTickFreq);
 8001312:	4b0a      	ldr	r3, [pc, #40]	@ (800133c <HAL_Delay+0x44>)
 8001314:	781b      	ldrb	r3, [r3, #0]
 8001316:	461a      	mov	r2, r3
 8001318:	68fb      	ldr	r3, [r7, #12]
 800131a:	4413      	add	r3, r2
 800131c:	60fb      	str	r3, [r7, #12]
  }

  while((HAL_GetTick() - tickstart) < wait)
 800131e:	bf00      	nop
 8001320:	f7ff ffde 	bl	80012e0 <HAL_GetTick>
 8001324:	4602      	mov	r2, r0
 8001326:	68bb      	ldr	r3, [r7, #8]
 8001328:	1ad3      	subs	r3, r2, r3
 800132a:	68fa      	ldr	r2, [r7, #12]
 800132c:	429a      	cmp	r2, r3
 800132e:	d8f7      	bhi.n	8001320 <HAL_Delay+0x28>
  {
  }
}
 8001330:	bf00      	nop
 8001332:	bf00      	nop
 8001334:	3710      	adds	r7, #16
 8001336:	46bd      	mov	sp, r7
 8001338:	bd80      	pop	{r7, pc}
 800133a:	bf00      	nop
 800133c:	20000008 	.word	0x20000008

08001340 <HAL_ADC_Init>:
  * @param  hadc pointer to a ADC_HandleTypeDef structure that contains
  *         the configuration information for the specified ADC.
  * @retval HAL status
  */
HAL_StatusTypeDef HAL_ADC_Init(ADC_HandleTypeDef *hadc)
{
 8001340:	b580      	push	{r7, lr}
 8001342:	b084      	sub	sp, #16
 8001344:	af00      	add	r7, sp, #0
 8001346:	6078      	str	r0, [r7, #4]
  HAL_StatusTypeDef tmp_hal_status = HAL_OK;
 8001348:	2300      	movs	r3, #0
 800134a:	73fb      	strb	r3, [r7, #15]

  /* Check ADC handle */
  if (hadc == NULL)
 800134c:	687b      	ldr	r3, [r7, #4]
 800134e:	2b00      	cmp	r3, #0
 8001350:	d101      	bne.n	8001356 <HAL_ADC_Init+0x16>
  {
    return HAL_ERROR;
 8001352:	2301      	movs	r3, #1
 8001354:	e033      	b.n	80013be <HAL_ADC_Init+0x7e>
  if (hadc->Init.ExternalTrigConv != ADC_SOFTWARE_START)
  {
    assert_param(IS_ADC_EXT_TRIG_EDGE(hadc->Init.ExternalTrigConvEdge));
  }

  if (hadc->State == HAL_ADC_STATE_RESET)
 8001356:	687b      	ldr	r3, [r7, #4]
 8001358:	6c1b      	ldr	r3, [r3, #64]	@ 0x40
 800135a:	2b00      	cmp	r3, #0
 800135c:	d109      	bne.n	8001372 <HAL_ADC_Init+0x32>

    /* Init the low level hardware */
    hadc->MspInitCallback(hadc);
#else
    /* Init the low level hardware */
    HAL_ADC_MspInit(hadc);
 800135e:	6878      	ldr	r0, [r7, #4]
 8001360:	f7ff fcee 	bl	8000d40 <HAL_ADC_MspInit>
#endif /* USE_HAL_ADC_REGISTER_CALLBACKS */

    /* Initialize ADC error code */
    ADC_CLEAR_ERRORCODE(hadc);
 8001364:	687b      	ldr	r3, [r7, #4]
 8001366:	2200      	movs	r2, #0
 8001368:	645a      	str	r2, [r3, #68]	@ 0x44

    /* Allocate lock resource and initialize it */
    hadc->Lock = HAL_UNLOCKED;
 800136a:	687b      	ldr	r3, [r7, #4]
 800136c:	2200      	movs	r2, #0
 800136e:	f883 203c 	strb.w	r2, [r3, #60]	@ 0x3c
  }

  /* Configuration of ADC parameters if previous preliminary actions are      */
  /* correctly completed.                                                     */
  if (HAL_IS_BIT_CLR(hadc->State, HAL_ADC_STATE_ERROR_INTERNAL))
 8001372:	687b      	ldr	r3, [r7, #4]
 8001374:	6c1b      	ldr	r3, [r3, #64]	@ 0x40
 8001376:	f003 0310 	and.w	r3, r3, #16
 800137a:	2b00      	cmp	r3, #0
 800137c:	d118      	bne.n	80013b0 <HAL_ADC_Init+0x70>
  {
    /* Set ADC state */
    ADC_STATE_CLR_SET(hadc->State,
 800137e:	687b      	ldr	r3, [r7, #4]
 8001380:	6c1b      	ldr	r3, [r3, #64]	@ 0x40
 8001382:	f423 5388 	bic.w	r3, r3, #4352	@ 0x1100
 8001386:	f023 0302 	bic.w	r3, r3, #2
 800138a:	f043 0202 	orr.w	r2, r3, #2
 800138e:	687b      	ldr	r3, [r7, #4]
 8001390:	641a      	str	r2, [r3, #64]	@ 0x40
                      HAL_ADC_STATE_REG_BUSY | HAL_ADC_STATE_INJ_BUSY,
                      HAL_ADC_STATE_BUSY_INTERNAL);

    /* Set ADC parameters */
    ADC_Init(hadc);
 8001392:	6878      	ldr	r0, [r7, #4]
 8001394:	f000 fa48 	bl	8001828 <ADC_Init>

    /* Set ADC error code to none */
    ADC_CLEAR_ERRORCODE(hadc);
 8001398:	687b      	ldr	r3, [r7, #4]
 800139a:	2200      	movs	r2, #0
 800139c:	645a      	str	r2, [r3, #68]	@ 0x44

    /* Set the ADC state */
    ADC_STATE_CLR_SET(hadc->State,
 800139e:	687b      	ldr	r3, [r7, #4]
 80013a0:	6c1b      	ldr	r3, [r3, #64]	@ 0x40
 80013a2:	f023 0303 	bic.w	r3, r3, #3
 80013a6:	f043 0201 	orr.w	r2, r3, #1
 80013aa:	687b      	ldr	r3, [r7, #4]
 80013ac:	641a      	str	r2, [r3, #64]	@ 0x40
 80013ae:	e001      	b.n	80013b4 <HAL_ADC_Init+0x74>
                      HAL_ADC_STATE_BUSY_INTERNAL,
                      HAL_ADC_STATE_READY);
  }
  else
  {
    tmp_hal_status = HAL_ERROR;
 80013b0:	2301      	movs	r3, #1
 80013b2:	73fb      	strb	r3, [r7, #15]
  }

  /* Release Lock */
  __HAL_UNLOCK(hadc);
 80013b4:	687b      	ldr	r3, [r7, #4]
 80013b6:	2200      	movs	r2, #0
 80013b8:	f883 203c 	strb.w	r2, [r3, #60]	@ 0x3c

  /* Return function status */
  return tmp_hal_status;
 80013bc:	7bfb      	ldrb	r3, [r7, #15]
}
 80013be:	4618      	mov	r0, r3
 80013c0:	3710      	adds	r7, #16
 80013c2:	46bd      	mov	sp, r7
 80013c4:	bd80      	pop	{r7, pc}
	...

080013c8 <HAL_ADC_Start_DMA>:
  * @param  pData The destination Buffer address.
  * @param  Length The length of data to be transferred from ADC peripheral to memory.
  * @retval HAL status
  */
HAL_StatusTypeDef HAL_ADC_Start_DMA(ADC_HandleTypeDef *hadc, uint32_t *pData, uint32_t Length)
{
 80013c8:	b580      	push	{r7, lr}
 80013ca:	b088      	sub	sp, #32
 80013cc:	af00      	add	r7, sp, #0
 80013ce:	60f8      	str	r0, [r7, #12]
 80013d0:	60b9      	str	r1, [r7, #8]
 80013d2:	607a      	str	r2, [r7, #4]
  __IO uint32_t counter = 0U;
 80013d4:	2300      	movs	r3, #0
 80013d6:	617b      	str	r3, [r7, #20]
  ADC_Common_TypeDef *tmpADC_Common;
  HAL_StatusTypeDef tmp_hal_status = HAL_OK;
 80013d8:	2300      	movs	r3, #0
 80013da:	77fb      	strb	r3, [r7, #31]
  /* Check the parameters */
  assert_param(IS_FUNCTIONAL_STATE(hadc->Init.ContinuousConvMode));
  assert_param(IS_ADC_EXT_TRIG_EDGE(hadc->Init.ExternalTrigConvEdge));

  /* Process locked */
  __HAL_LOCK(hadc);
 80013dc:	68fb      	ldr	r3, [r7, #12]
 80013de:	f893 303c 	ldrb.w	r3, [r3, #60]	@ 0x3c
 80013e2:	2b01      	cmp	r3, #1
 80013e4:	d101      	bne.n	80013ea <HAL_ADC_Start_DMA+0x22>
 80013e6:	2302      	movs	r3, #2
 80013e8:	e0d0      	b.n	800158c <HAL_ADC_Start_DMA+0x1c4>
 80013ea:	68fb      	ldr	r3, [r7, #12]
 80013ec:	2201      	movs	r2, #1
 80013ee:	f883 203c 	strb.w	r2, [r3, #60]	@ 0x3c

  /* Enable the ADC peripheral */
  /* Check if ADC peripheral is disabled in order to enable it and wait during
  Tstab time the ADC's stabilization */
  if ((hadc->Instance->CR2 & ADC_CR2_ADON) != ADC_CR2_ADON)
 80013f2:	68fb      	ldr	r3, [r7, #12]
 80013f4:	681b      	ldr	r3, [r3, #0]
 80013f6:	689b      	ldr	r3, [r3, #8]
 80013f8:	f003 0301 	and.w	r3, r3, #1
 80013fc:	2b01      	cmp	r3, #1
 80013fe:	d018      	beq.n	8001432 <HAL_ADC_Start_DMA+0x6a>
  {
    /* Enable the Peripheral */
    __HAL_ADC_ENABLE(hadc);
 8001400:	68fb      	ldr	r3, [r7, #12]
 8001402:	681b      	ldr	r3, [r3, #0]
 8001404:	689a      	ldr	r2, [r3, #8]
 8001406:	68fb      	ldr	r3, [r7, #12]
 8001408:	681b      	ldr	r3, [r3, #0]
 800140a:	f042 0201 	orr.w	r2, r2, #1
 800140e:	609a      	str	r2, [r3, #8]

    /* Delay for ADC stabilization time */
    /* Compute number of CPU cycles to wait for */
    counter = (ADC_STAB_DELAY_US * (SystemCoreClock / 1000000U));
 8001410:	4b60      	ldr	r3, [pc, #384]	@ (8001594 <HAL_ADC_Start_DMA+0x1cc>)
 8001412:	681b      	ldr	r3, [r3, #0]
 8001414:	4a60      	ldr	r2, [pc, #384]	@ (8001598 <HAL_ADC_Start_DMA+0x1d0>)
 8001416:	fba2 2303 	umull	r2, r3, r2, r3
 800141a:	0c9a      	lsrs	r2, r3, #18
 800141c:	4613      	mov	r3, r2
 800141e:	005b      	lsls	r3, r3, #1
 8001420:	4413      	add	r3, r2
 8001422:	617b      	str	r3, [r7, #20]
    while (counter != 0U)
 8001424:	e002      	b.n	800142c <HAL_ADC_Start_DMA+0x64>
    {
      counter--;
 8001426:	697b      	ldr	r3, [r7, #20]
 8001428:	3b01      	subs	r3, #1
 800142a:	617b      	str	r3, [r7, #20]
    while (counter != 0U)
 800142c:	697b      	ldr	r3, [r7, #20]
 800142e:	2b00      	cmp	r3, #0
 8001430:	d1f9      	bne.n	8001426 <HAL_ADC_Start_DMA+0x5e>
    }
  }

  /* Check ADC DMA Mode                                                     */
  /* - disable the DMA Mode if it is already enabled                        */
  if ((hadc->Instance->CR2 & ADC_CR2_DMA) == ADC_CR2_DMA)
 8001432:	68fb      	ldr	r3, [r7, #12]
 8001434:	681b      	ldr	r3, [r3, #0]
 8001436:	689b      	ldr	r3, [r3, #8]
 8001438:	f403 7380 	and.w	r3, r3, #256	@ 0x100
 800143c:	f5b3 7f80 	cmp.w	r3, #256	@ 0x100
 8001440:	d107      	bne.n	8001452 <HAL_ADC_Start_DMA+0x8a>
  {
    CLEAR_BIT(hadc->Instance->CR2, ADC_CR2_DMA);
 8001442:	68fb      	ldr	r3, [r7, #12]
 8001444:	681b      	ldr	r3, [r3, #0]
 8001446:	689a      	ldr	r2, [r3, #8]
 8001448:	68fb      	ldr	r3, [r7, #12]
 800144a:	681b      	ldr	r3, [r3, #0]
 800144c:	f422 7280 	bic.w	r2, r2, #256	@ 0x100
 8001450:	609a      	str	r2, [r3, #8]
  }

  /* Start conversion if ADC is effectively enabled */
  if (HAL_IS_BIT_SET(hadc->Instance->CR2, ADC_CR2_ADON))
 8001452:	68fb      	ldr	r3, [r7, #12]
 8001454:	681b      	ldr	r3, [r3, #0]
 8001456:	689b      	ldr	r3, [r3, #8]
 8001458:	f003 0301 	and.w	r3, r3, #1
 800145c:	2b01      	cmp	r3, #1
 800145e:	f040 8088 	bne.w	8001572 <HAL_ADC_Start_DMA+0x1aa>
  {
    /* Set ADC state                                                          */
    /* - Clear state bitfield related to regular group conversion results     */
    /* - Set state bitfield related to regular group operation                */
    ADC_STATE_CLR_SET(hadc->State,
 8001462:	68fb      	ldr	r3, [r7, #12]
 8001464:	6c1b      	ldr	r3, [r3, #64]	@ 0x40
 8001466:	f423 63e0 	bic.w	r3, r3, #1792	@ 0x700
 800146a:	f023 0301 	bic.w	r3, r3, #1
 800146e:	f443 7280 	orr.w	r2, r3, #256	@ 0x100
 8001472:	68fb      	ldr	r3, [r7, #12]
 8001474:	641a      	str	r2, [r3, #64]	@ 0x40
                      HAL_ADC_STATE_READY | HAL_ADC_STATE_REG_EOC | HAL_ADC_STATE_REG_OVR,
                      HAL_ADC_STATE_REG_BUSY);

    /* If conversions on group regular are also triggering group injected,    */
    /* update ADC state.                                                      */
    if (READ_BIT(hadc->Instance->CR1, ADC_CR1_JAUTO) != RESET)
 8001476:	68fb      	ldr	r3, [r7, #12]
 8001478:	681b      	ldr	r3, [r3, #0]
 800147a:	685b      	ldr	r3, [r3, #4]
 800147c:	f403 6380 	and.w	r3, r3, #1024	@ 0x400
 8001480:	2b00      	cmp	r3, #0
 8001482:	d007      	beq.n	8001494 <HAL_ADC_Start_DMA+0xcc>
    {
      ADC_STATE_CLR_SET(hadc->State, HAL_ADC_STATE_INJ_EOC, HAL_ADC_STATE_INJ_BUSY);
 8001484:	68fb      	ldr	r3, [r7, #12]
 8001486:	6c1b      	ldr	r3, [r3, #64]	@ 0x40
 8001488:	f423 5340 	bic.w	r3, r3, #12288	@ 0x3000
 800148c:	f443 5280 	orr.w	r2, r3, #4096	@ 0x1000
 8001490:	68fb      	ldr	r3, [r7, #12]
 8001492:	641a      	str	r2, [r3, #64]	@ 0x40
    }

    /* State machine update: Check if an injected conversion is ongoing */
    if (HAL_IS_BIT_SET(hadc->State, HAL_ADC_STATE_INJ_BUSY))
 8001494:	68fb      	ldr	r3, [r7, #12]
 8001496:	6c1b      	ldr	r3, [r3, #64]	@ 0x40
 8001498:	f403 5380 	and.w	r3, r3, #4096	@ 0x1000
 800149c:	f5b3 5f80 	cmp.w	r3, #4096	@ 0x1000
 80014a0:	d106      	bne.n	80014b0 <HAL_ADC_Start_DMA+0xe8>
    {
      /* Reset ADC error code fields related to conversions on group regular */
      CLEAR_BIT(hadc->ErrorCode, (HAL_ADC_ERROR_OVR | HAL_ADC_ERROR_DMA));
 80014a2:	68fb      	ldr	r3, [r7, #12]
 80014a4:	6c5b      	ldr	r3, [r3, #68]	@ 0x44
 80014a6:	f023 0206 	bic.w	r2, r3, #6
 80014aa:	68fb      	ldr	r3, [r7, #12]
 80014ac:	645a      	str	r2, [r3, #68]	@ 0x44
 80014ae:	e002      	b.n	80014b6 <HAL_ADC_Start_DMA+0xee>
    }
    else
    {
      /* Reset ADC all error code fields */
      ADC_CLEAR_ERRORCODE(hadc);
 80014b0:	68fb      	ldr	r3, [r7, #12]
 80014b2:	2200      	movs	r2, #0
 80014b4:	645a      	str	r2, [r3, #68]	@ 0x44
    }

    /* Process unlocked */
    /* Unlock before starting ADC conversions: in case of potential           */
    /* interruption, to let the process to ADC IRQ Handler.                   */
    __HAL_UNLOCK(hadc);
 80014b6:	68fb      	ldr	r3, [r7, #12]
 80014b8:	2200      	movs	r2, #0
 80014ba:	f883 203c 	strb.w	r2, [r3, #60]	@ 0x3c

    /* Pointer to the common control register to which is belonging hadc    */
    /* (Depending on STM32F4 product, there may be up to 3 ADCs and 1 common */
    /* control register)                                                    */
    tmpADC_Common = ADC_COMMON_REGISTER(hadc);
 80014be:	4b37      	ldr	r3, [pc, #220]	@ (800159c <HAL_ADC_Start_DMA+0x1d4>)
 80014c0:	61bb      	str	r3, [r7, #24]

    /* Set the DMA transfer complete callback */
    hadc->DMA_Handle->XferCpltCallback = ADC_DMAConvCplt;
 80014c2:	68fb      	ldr	r3, [r7, #12]
 80014c4:	6b9b      	ldr	r3, [r3, #56]	@ 0x38
 80014c6:	4a36      	ldr	r2, [pc, #216]	@ (80015a0 <HAL_ADC_Start_DMA+0x1d8>)
 80014c8:	63da      	str	r2, [r3, #60]	@ 0x3c

    /* Set the DMA half transfer complete callback */
    hadc->DMA_Handle->XferHalfCpltCallback = ADC_DMAHalfConvCplt;
 80014ca:	68fb      	ldr	r3, [r7, #12]
 80014cc:	6b9b      	ldr	r3, [r3, #56]	@ 0x38
 80014ce:	4a35      	ldr	r2, [pc, #212]	@ (80015a4 <HAL_ADC_Start_DMA+0x1dc>)
 80014d0:	641a      	str	r2, [r3, #64]	@ 0x40

    /* Set the DMA error callback */
    hadc->DMA_Handle->XferErrorCallback = ADC_DMAError;
 80014d2:	68fb      	ldr	r3, [r7, #12]
 80014d4:	6b9b      	ldr	r3, [r3, #56]	@ 0x38
 80014d6:	4a34      	ldr	r2, [pc, #208]	@ (80015a8 <HAL_ADC_Start_DMA+0x1e0>)
 80014d8:	64da      	str	r2, [r3, #76]	@ 0x4c
    /* Manage ADC and DMA start: ADC overrun interruption, DMA start, ADC     */
    /* start (in case of SW start):                                           */

    /* Clear regular group conversion flag and overrun flag */
    /* (To ensure of no unknown state from potential previous ADC operations) */
    __HAL_ADC_CLEAR_FLAG(hadc, ADC_FLAG_EOC | ADC_FLAG_OVR);
 80014da:	68fb      	ldr	r3, [r7, #12]
 80014dc:	681b      	ldr	r3, [r3, #0]
 80014de:	f06f 0222 	mvn.w	r2, #34	@ 0x22
 80014e2:	601a      	str	r2, [r3, #0]

    /* Enable ADC overrun interrupt */
    __HAL_ADC_ENABLE_IT(hadc, ADC_IT_OVR);
 80014e4:	68fb      	ldr	r3, [r7, #12]
 80014e6:	681b      	ldr	r3, [r3, #0]
 80014e8:	685a      	ldr	r2, [r3, #4]
 80014ea:	68fb      	ldr	r3, [r7, #12]
 80014ec:	681b      	ldr	r3, [r3, #0]
 80014ee:	f042 6280 	orr.w	r2, r2, #67108864	@ 0x4000000
 80014f2:	605a      	str	r2, [r3, #4]

    /* Enable ADC DMA mode */
    hadc->Instance->CR2 |= ADC_CR2_DMA;
 80014f4:	68fb      	ldr	r3, [r7, #12]
 80014f6:	681b      	ldr	r3, [r3, #0]
 80014f8:	689a      	ldr	r2, [r3, #8]
 80014fa:	68fb      	ldr	r3, [r7, #12]
 80014fc:	681b      	ldr	r3, [r3, #0]
 80014fe:	f442 7280 	orr.w	r2, r2, #256	@ 0x100
 8001502:	609a      	str	r2, [r3, #8]

    /* Start the DMA channel */
    tmp_hal_status = HAL_DMA_Start_IT(hadc->DMA_Handle, (uint32_t)&hadc->Instance->DR, (uint32_t)pData, Length);
 8001504:	68fb      	ldr	r3, [r7, #12]
 8001506:	6b98      	ldr	r0, [r3, #56]	@ 0x38
 8001508:	68fb      	ldr	r3, [r7, #12]
 800150a:	681b      	ldr	r3, [r3, #0]
 800150c:	334c      	adds	r3, #76	@ 0x4c
 800150e:	4619      	mov	r1, r3
 8001510:	68ba      	ldr	r2, [r7, #8]
 8001512:	687b      	ldr	r3, [r7, #4]
 8001514:	f000 fcc6 	bl	8001ea4 <HAL_DMA_Start_IT>
 8001518:	4603      	mov	r3, r0
 800151a:	77fb      	strb	r3, [r7, #31]

    /* Check if Multimode enabled */
    if (HAL_IS_BIT_CLR(tmpADC_Common->CCR, ADC_CCR_MULTI))
 800151c:	69bb      	ldr	r3, [r7, #24]
 800151e:	685b      	ldr	r3, [r3, #4]
 8001520:	f003 031f 	and.w	r3, r3, #31
 8001524:	2b00      	cmp	r3, #0
 8001526:	d10f      	bne.n	8001548 <HAL_ADC_Start_DMA+0x180>
      if ((hadc->Instance == ADC1) || ((hadc->Instance == ADC2) && ((ADC->CCR & ADC_CCR_MULTI_Msk) < ADC_CCR_MULTI_0)) \
          || ((hadc->Instance == ADC3) && ((ADC->CCR & ADC_CCR_MULTI_Msk) < ADC_CCR_MULTI_4)))
      {
#endif /* ADC2 || ADC3 */
        /* if no external trigger present enable software conversion of regular channels */
        if ((hadc->Instance->CR2 & ADC_CR2_EXTEN) == RESET)
 8001528:	68fb      	ldr	r3, [r7, #12]
 800152a:	681b      	ldr	r3, [r3, #0]
 800152c:	689b      	ldr	r3, [r3, #8]
 800152e:	f003 5340 	and.w	r3, r3, #805306368	@ 0x30000000
 8001532:	2b00      	cmp	r3, #0
 8001534:	d129      	bne.n	800158a <HAL_ADC_Start_DMA+0x1c2>
        {
          /* Enable the selected ADC software conversion for regular group */
          hadc->Instance->CR2 |= (uint32_t)ADC_CR2_SWSTART;
 8001536:	68fb      	ldr	r3, [r7, #12]
 8001538:	681b      	ldr	r3, [r3, #0]
 800153a:	689a      	ldr	r2, [r3, #8]
 800153c:	68fb      	ldr	r3, [r7, #12]
 800153e:	681b      	ldr	r3, [r3, #0]
 8001540:	f042 4280 	orr.w	r2, r2, #1073741824	@ 0x40000000
 8001544:	609a      	str	r2, [r3, #8]
 8001546:	e020      	b.n	800158a <HAL_ADC_Start_DMA+0x1c2>
#endif /* ADC2 || ADC3 */
    }
    else
    {
      /* if instance of handle correspond to ADC1 and  no external trigger present enable software conversion of regular channels */
      if ((hadc->Instance == ADC1) && ((hadc->Instance->CR2 & ADC_CR2_EXTEN) == RESET))
 8001548:	68fb      	ldr	r3, [r7, #12]
 800154a:	681b      	ldr	r3, [r3, #0]
 800154c:	4a17      	ldr	r2, [pc, #92]	@ (80015ac <HAL_ADC_Start_DMA+0x1e4>)
 800154e:	4293      	cmp	r3, r2
 8001550:	d11b      	bne.n	800158a <HAL_ADC_Start_DMA+0x1c2>
 8001552:	68fb      	ldr	r3, [r7, #12]
 8001554:	681b      	ldr	r3, [r3, #0]
 8001556:	689b      	ldr	r3, [r3, #8]
 8001558:	f003 5340 	and.w	r3, r3, #805306368	@ 0x30000000
 800155c:	2b00      	cmp	r3, #0
 800155e:	d114      	bne.n	800158a <HAL_ADC_Start_DMA+0x1c2>
      {
        /* Enable the selected ADC software conversion for regular group */
        hadc->Instance->CR2 |= (uint32_t)ADC_CR2_SWSTART;
 8001560:	68fb      	ldr	r3, [r7, #12]
 8001562:	681b      	ldr	r3, [r3, #0]
 8001564:	689a      	ldr	r2, [r3, #8]
 8001566:	68fb      	ldr	r3, [r7, #12]
 8001568:	681b      	ldr	r3, [r3, #0]
 800156a:	f042 4280 	orr.w	r2, r2, #1073741824	@ 0x40000000
 800156e:	609a      	str	r2, [r3, #8]
 8001570:	e00b      	b.n	800158a <HAL_ADC_Start_DMA+0x1c2>
    }
  }
  else
  {
    /* Update ADC state machine to error */
    SET_BIT(hadc->State, HAL_ADC_STATE_ERROR_INTERNAL);
 8001572:	68fb      	ldr	r3, [r7, #12]
 8001574:	6c1b      	ldr	r3, [r3, #64]	@ 0x40
 8001576:	f043 0210 	orr.w	r2, r3, #16
 800157a:	68fb      	ldr	r3, [r7, #12]
 800157c:	641a      	str	r2, [r3, #64]	@ 0x40

    /* Set ADC error code to ADC IP internal error */
    SET_BIT(hadc->ErrorCode, HAL_ADC_ERROR_INTERNAL);
 800157e:	68fb      	ldr	r3, [r7, #12]
 8001580:	6c5b      	ldr	r3, [r3, #68]	@ 0x44
 8001582:	f043 0201 	orr.w	r2, r3, #1
 8001586:	68fb      	ldr	r3, [r7, #12]
 8001588:	645a      	str	r2, [r3, #68]	@ 0x44
  }

  /* Return function status */
  return tmp_hal_status;
 800158a:	7ffb      	ldrb	r3, [r7, #31]
}
 800158c:	4618      	mov	r0, r3
 800158e:	3720      	adds	r7, #32
 8001590:	46bd      	mov	sp, r7
 8001592:	bd80      	pop	{r7, pc}
 8001594:	20000000 	.word	0x20000000
 8001598:	431bde83 	.word	0x431bde83
 800159c:	40012300 	.word	0x40012300
 80015a0:	08001a21 	.word	0x08001a21
 80015a4:	08001adb 	.word	0x08001adb
 80015a8:	08001af7 	.word	0x08001af7
 80015ac:	40012000 	.word	0x40012000

080015b0 <HAL_ADC_ErrorCallback>:
  * @param  hadc pointer to a ADC_HandleTypeDef structure that contains
  *         the configuration information for the specified ADC.
  * @retval None
  */
__weak void HAL_ADC_ErrorCallback(ADC_HandleTypeDef *hadc)
{
 80015b0:	b480      	push	{r7}
 80015b2:	b083      	sub	sp, #12
 80015b4:	af00      	add	r7, sp, #0
 80015b6:	6078      	str	r0, [r7, #4]
  /* Prevent unused argument(s) compilation warning */
  UNUSED(hadc);
  /* NOTE : This function Should not be modified, when the callback is needed,
            the HAL_ADC_ErrorCallback could be implemented in the user file
   */
}
 80015b8:	bf00      	nop
 80015ba:	370c      	adds	r7, #12
 80015bc:	46bd      	mov	sp, r7
 80015be:	f85d 7b04 	ldr.w	r7, [sp], #4
 80015c2:	4770      	bx	lr

080015c4 <HAL_ADC_ConfigChannel>:
*         the configuration information for the specified ADC.
* @param  sConfig ADC configuration structure.
* @retval HAL status
*/
HAL_StatusTypeDef HAL_ADC_ConfigChannel(ADC_HandleTypeDef *hadc, ADC_ChannelConfTypeDef *sConfig)
{
 80015c4:	b480      	push	{r7}
 80015c6:	b085      	sub	sp, #20
 80015c8:	af00      	add	r7, sp, #0
 80015ca:	6078      	str	r0, [r7, #4]
 80015cc:	6039      	str	r1, [r7, #0]
  __IO uint32_t counter = 0U;
 80015ce:	2300      	movs	r3, #0
 80015d0:	60bb      	str	r3, [r7, #8]
  assert_param(IS_ADC_CHANNEL(sConfig->Channel));
  assert_param(IS_ADC_REGULAR_RANK(sConfig->Rank));
  assert_param(IS_ADC_SAMPLE_TIME(sConfig->SamplingTime));

  /* Process locked */
  __HAL_LOCK(hadc);
 80015d2:	687b      	ldr	r3, [r7, #4]
 80015d4:	f893 303c 	ldrb.w	r3, [r3, #60]	@ 0x3c
 80015d8:	2b01      	cmp	r3, #1
 80015da:	d101      	bne.n	80015e0 <HAL_ADC_ConfigChannel+0x1c>
 80015dc:	2302      	movs	r3, #2
 80015de:	e113      	b.n	8001808 <HAL_ADC_ConfigChannel+0x244>
 80015e0:	687b      	ldr	r3, [r7, #4]
 80015e2:	2201      	movs	r2, #1
 80015e4:	f883 203c 	strb.w	r2, [r3, #60]	@ 0x3c

  /* if ADC_Channel_10 ... ADC_Channel_18 is selected */
  if (sConfig->Channel > ADC_CHANNEL_9)
 80015e8:	683b      	ldr	r3, [r7, #0]
 80015ea:	681b      	ldr	r3, [r3, #0]
 80015ec:	2b09      	cmp	r3, #9
 80015ee:	d925      	bls.n	800163c <HAL_ADC_ConfigChannel+0x78>
  {
    /* Clear the old sample time */
    hadc->Instance->SMPR1 &= ~ADC_SMPR1(ADC_SMPR1_SMP10, sConfig->Channel);
 80015f0:	687b      	ldr	r3, [r7, #4]
 80015f2:	681b      	ldr	r3, [r3, #0]
 80015f4:	68d9      	ldr	r1, [r3, #12]
 80015f6:	683b      	ldr	r3, [r7, #0]
 80015f8:	681b      	ldr	r3, [r3, #0]
 80015fa:	b29b      	uxth	r3, r3
 80015fc:	461a      	mov	r2, r3
 80015fe:	4613      	mov	r3, r2
 8001600:	005b      	lsls	r3, r3, #1
 8001602:	4413      	add	r3, r2
 8001604:	3b1e      	subs	r3, #30
 8001606:	2207      	movs	r2, #7
 8001608:	fa02 f303 	lsl.w	r3, r2, r3
 800160c:	43da      	mvns	r2, r3
 800160e:	687b      	ldr	r3, [r7, #4]
 8001610:	681b      	ldr	r3, [r3, #0]
 8001612:	400a      	ands	r2, r1
 8001614:	60da      	str	r2, [r3, #12]

    /* Set the new sample time */
    hadc->Instance->SMPR1 |= ADC_SMPR1(sConfig->SamplingTime, sConfig->Channel);
 8001616:	687b      	ldr	r3, [r7, #4]
 8001618:	681b      	ldr	r3, [r3, #0]
 800161a:	68d9      	ldr	r1, [r3, #12]
 800161c:	683b      	ldr	r3, [r7, #0]
 800161e:	689a      	ldr	r2, [r3, #8]
 8001620:	683b      	ldr	r3, [r7, #0]
 8001622:	681b      	ldr	r3, [r3, #0]
 8001624:	b29b      	uxth	r3, r3
 8001626:	4618      	mov	r0, r3
 8001628:	4603      	mov	r3, r0
 800162a:	005b      	lsls	r3, r3, #1
 800162c:	4403      	add	r3, r0
 800162e:	3b1e      	subs	r3, #30
 8001630:	409a      	lsls	r2, r3
 8001632:	687b      	ldr	r3, [r7, #4]
 8001634:	681b      	ldr	r3, [r3, #0]
 8001636:	430a      	orrs	r2, r1
 8001638:	60da      	str	r2, [r3, #12]
 800163a:	e022      	b.n	8001682 <HAL_ADC_ConfigChannel+0xbe>
  }
  else /* ADC_Channel include in ADC_Channel_[0..9] */
  {
    /* Clear the old sample time */
    hadc->Instance->SMPR2 &= ~ADC_SMPR2(ADC_SMPR2_SMP0, sConfig->Channel);
 800163c:	687b      	ldr	r3, [r7, #4]
 800163e:	681b      	ldr	r3, [r3, #0]
 8001640:	6919      	ldr	r1, [r3, #16]
 8001642:	683b      	ldr	r3, [r7, #0]
 8001644:	681b      	ldr	r3, [r3, #0]
 8001646:	b29b      	uxth	r3, r3
 8001648:	461a      	mov	r2, r3
 800164a:	4613      	mov	r3, r2
 800164c:	005b      	lsls	r3, r3, #1
 800164e:	4413      	add	r3, r2
 8001650:	2207      	movs	r2, #7
 8001652:	fa02 f303 	lsl.w	r3, r2, r3
 8001656:	43da      	mvns	r2, r3
 8001658:	687b      	ldr	r3, [r7, #4]
 800165a:	681b      	ldr	r3, [r3, #0]
 800165c:	400a      	ands	r2, r1
 800165e:	611a      	str	r2, [r3, #16]

    /* Set the new sample time */
    hadc->Instance->SMPR2 |= ADC_SMPR2(sConfig->SamplingTime, sConfig->Channel);
 8001660:	687b      	ldr	r3, [r7, #4]
 8001662:	681b      	ldr	r3, [r3, #0]
 8001664:	6919      	ldr	r1, [r3, #16]
 8001666:	683b      	ldr	r3, [r7, #0]
 8001668:	689a      	ldr	r2, [r3, #8]
 800166a:	683b      	ldr	r3, [r7, #0]
 800166c:	681b      	ldr	r3, [r3, #0]
 800166e:	b29b      	uxth	r3, r3
 8001670:	4618      	mov	r0, r3
 8001672:	4603      	mov	r3, r0
 8001674:	005b      	lsls	r3, r3, #1
 8001676:	4403      	add	r3, r0
 8001678:	409a      	lsls	r2, r3
 800167a:	687b      	ldr	r3, [r7, #4]
 800167c:	681b      	ldr	r3, [r3, #0]
 800167e:	430a      	orrs	r2, r1
 8001680:	611a      	str	r2, [r3, #16]
  }

  /* For Rank 1 to 6 */
  if (sConfig->Rank < 7U)
 8001682:	683b      	ldr	r3, [r7, #0]
 8001684:	685b      	ldr	r3, [r3, #4]
 8001686:	2b06      	cmp	r3, #6
 8001688:	d824      	bhi.n	80016d4 <HAL_ADC_ConfigChannel+0x110>
  {
    /* Clear the old SQx bits for the selected rank */
    hadc->Instance->SQR3 &= ~ADC_SQR3_RK(ADC_SQR3_SQ1, sConfig->Rank);
 800168a:	687b      	ldr	r3, [r7, #4]
 800168c:	681b      	ldr	r3, [r3, #0]
 800168e:	6b59      	ldr	r1, [r3, #52]	@ 0x34
 8001690:	683b      	ldr	r3, [r7, #0]
 8001692:	685a      	ldr	r2, [r3, #4]
 8001694:	4613      	mov	r3, r2
 8001696:	009b      	lsls	r3, r3, #2
 8001698:	4413      	add	r3, r2
 800169a:	3b05      	subs	r3, #5
 800169c:	221f      	movs	r2, #31
 800169e:	fa02 f303 	lsl.w	r3, r2, r3
 80016a2:	43da      	mvns	r2, r3
 80016a4:	687b      	ldr	r3, [r7, #4]
 80016a6:	681b      	ldr	r3, [r3, #0]
 80016a8:	400a      	ands	r2, r1
 80016aa:	635a      	str	r2, [r3, #52]	@ 0x34

    /* Set the SQx bits for the selected rank */
    hadc->Instance->SQR3 |= ADC_SQR3_RK(sConfig->Channel, sConfig->Rank);
 80016ac:	687b      	ldr	r3, [r7, #4]
 80016ae:	681b      	ldr	r3, [r3, #0]
 80016b0:	6b59      	ldr	r1, [r3, #52]	@ 0x34
 80016b2:	683b      	ldr	r3, [r7, #0]
 80016b4:	681b      	ldr	r3, [r3, #0]
 80016b6:	b29b      	uxth	r3, r3
 80016b8:	4618      	mov	r0, r3
 80016ba:	683b      	ldr	r3, [r7, #0]
 80016bc:	685a      	ldr	r2, [r3, #4]
 80016be:	4613      	mov	r3, r2
 80016c0:	009b      	lsls	r3, r3, #2
 80016c2:	4413      	add	r3, r2
 80016c4:	3b05      	subs	r3, #5
 80016c6:	fa00 f203 	lsl.w	r2, r0, r3
 80016ca:	687b      	ldr	r3, [r7, #4]
 80016cc:	681b      	ldr	r3, [r3, #0]
 80016ce:	430a      	orrs	r2, r1
 80016d0:	635a      	str	r2, [r3, #52]	@ 0x34
 80016d2:	e04c      	b.n	800176e <HAL_ADC_ConfigChannel+0x1aa>
  }
  /* For Rank 7 to 12 */
  else if (sConfig->Rank < 13U)
 80016d4:	683b      	ldr	r3, [r7, #0]
 80016d6:	685b      	ldr	r3, [r3, #4]
 80016d8:	2b0c      	cmp	r3, #12
 80016da:	d824      	bhi.n	8001726 <HAL_ADC_ConfigChannel+0x162>
  {
    /* Clear the old SQx bits for the selected rank */
    hadc->Instance->SQR2 &= ~ADC_SQR2_RK(ADC_SQR2_SQ7, sConfig->Rank);
 80016dc:	687b      	ldr	r3, [r7, #4]
 80016de:	681b      	ldr	r3, [r3, #0]
 80016e0:	6b19      	ldr	r1, [r3, #48]	@ 0x30
 80016e2:	683b      	ldr	r3, [r7, #0]
 80016e4:	685a      	ldr	r2, [r3, #4]
 80016e6:	4613      	mov	r3, r2
 80016e8:	009b      	lsls	r3, r3, #2
 80016ea:	4413      	add	r3, r2
 80016ec:	3b23      	subs	r3, #35	@ 0x23
 80016ee:	221f      	movs	r2, #31
 80016f0:	fa02 f303 	lsl.w	r3, r2, r3
 80016f4:	43da      	mvns	r2, r3
 80016f6:	687b      	ldr	r3, [r7, #4]
 80016f8:	681b      	ldr	r3, [r3, #0]
 80016fa:	400a      	ands	r2, r1
 80016fc:	631a      	str	r2, [r3, #48]	@ 0x30

    /* Set the SQx bits for the selected rank */
    hadc->Instance->SQR2 |= ADC_SQR2_RK(sConfig->Channel, sConfig->Rank);
 80016fe:	687b      	ldr	r3, [r7, #4]
 8001700:	681b      	ldr	r3, [r3, #0]
 8001702:	6b19      	ldr	r1, [r3, #48]	@ 0x30
 8001704:	683b      	ldr	r3, [r7, #0]
 8001706:	681b      	ldr	r3, [r3, #0]
 8001708:	b29b      	uxth	r3, r3
 800170a:	4618      	mov	r0, r3
 800170c:	683b      	ldr	r3, [r7, #0]
 800170e:	685a      	ldr	r2, [r3, #4]
 8001710:	4613      	mov	r3, r2
 8001712:	009b      	lsls	r3, r3, #2
 8001714:	4413      	add	r3, r2
 8001716:	3b23      	subs	r3, #35	@ 0x23
 8001718:	fa00 f203 	lsl.w	r2, r0, r3
 800171c:	687b      	ldr	r3, [r7, #4]
 800171e:	681b      	ldr	r3, [r3, #0]
 8001720:	430a      	orrs	r2, r1
 8001722:	631a      	str	r2, [r3, #48]	@ 0x30
 8001724:	e023      	b.n	800176e <HAL_ADC_ConfigChannel+0x1aa>
  }
  /* For Rank 13 to 16 */
  else
  {
    /* Clear the old SQx bits for the selected rank */
    hadc->Instance->SQR1 &= ~ADC_SQR1_RK(ADC_SQR1_SQ13, sConfig->Rank);
 8001726:	687b      	ldr	r3, [r7, #4]
 8001728:	681b      	ldr	r3, [r3, #0]
 800172a:	6ad9      	ldr	r1, [r3, #44]	@ 0x2c
 800172c:	683b      	ldr	r3, [r7, #0]
 800172e:	685a      	ldr	r2, [r3, #4]
 8001730:	4613      	mov	r3, r2
 8001732:	009b      	lsls	r3, r3, #2
 8001734:	4413      	add	r3, r2
 8001736:	3b41      	subs	r3, #65	@ 0x41
 8001738:	221f      	movs	r2, #31
 800173a:	fa02 f303 	lsl.w	r3, r2, r3
 800173e:	43da      	mvns	r2, r3
 8001740:	687b      	ldr	r3, [r7, #4]
 8001742:	681b      	ldr	r3, [r3, #0]
 8001744:	400a      	ands	r2, r1
 8001746:	62da      	str	r2, [r3, #44]	@ 0x2c

    /* Set the SQx bits for the selected rank */
    hadc->Instance->SQR1 |= ADC_SQR1_RK(sConfig->Channel, sConfig->Rank);
 8001748:	687b      	ldr	r3, [r7, #4]
 800174a:	681b      	ldr	r3, [r3, #0]
 800174c:	6ad9      	ldr	r1, [r3, #44]	@ 0x2c
 800174e:	683b      	ldr	r3, [r7, #0]
 8001750:	681b      	ldr	r3, [r3, #0]
 8001752:	b29b      	uxth	r3, r3
 8001754:	4618      	mov	r0, r3
 8001756:	683b      	ldr	r3, [r7, #0]
 8001758:	685a      	ldr	r2, [r3, #4]
 800175a:	4613      	mov	r3, r2
 800175c:	009b      	lsls	r3, r3, #2
 800175e:	4413      	add	r3, r2
 8001760:	3b41      	subs	r3, #65	@ 0x41
 8001762:	fa00 f203 	lsl.w	r2, r0, r3
 8001766:	687b      	ldr	r3, [r7, #4]
 8001768:	681b      	ldr	r3, [r3, #0]
 800176a:	430a      	orrs	r2, r1
 800176c:	62da      	str	r2, [r3, #44]	@ 0x2c
  }

  /* Pointer to the common control register to which is belonging hadc    */
  /* (Depending on STM32F4 product, there may be up to 3 ADCs and 1 common */
  /* control register)                                                    */
  tmpADC_Common = ADC_COMMON_REGISTER(hadc);
 800176e:	4b29      	ldr	r3, [pc, #164]	@ (8001814 <HAL_ADC_ConfigChannel+0x250>)
 8001770:	60fb      	str	r3, [r7, #12]

  /* if ADC1 Channel_18 is selected for VBAT Channel ennable VBATE */
  if ((hadc->Instance == ADC1) && (sConfig->Channel == ADC_CHANNEL_VBAT))
 8001772:	687b      	ldr	r3, [r7, #4]
 8001774:	681b      	ldr	r3, [r3, #0]
 8001776:	4a28      	ldr	r2, [pc, #160]	@ (8001818 <HAL_ADC_ConfigChannel+0x254>)
 8001778:	4293      	cmp	r3, r2
 800177a:	d10f      	bne.n	800179c <HAL_ADC_ConfigChannel+0x1d8>
 800177c:	683b      	ldr	r3, [r7, #0]
 800177e:	681b      	ldr	r3, [r3, #0]
 8001780:	2b12      	cmp	r3, #18
 8001782:	d10b      	bne.n	800179c <HAL_ADC_ConfigChannel+0x1d8>
  {
    /* Disable the TEMPSENSOR channel in case of using board with multiplixed ADC_CHANNEL_VBAT & ADC_CHANNEL_TEMPSENSOR*/
    if ((uint16_t)ADC_CHANNEL_TEMPSENSOR == (uint16_t)ADC_CHANNEL_VBAT)
    {
      tmpADC_Common->CCR &= ~ADC_CCR_TSVREFE;
 8001784:	68fb      	ldr	r3, [r7, #12]
 8001786:	685b      	ldr	r3, [r3, #4]
 8001788:	f423 0200 	bic.w	r2, r3, #8388608	@ 0x800000
 800178c:	68fb      	ldr	r3, [r7, #12]
 800178e:	605a      	str	r2, [r3, #4]
    }
    /* Enable the VBAT channel*/
    tmpADC_Common->CCR |= ADC_CCR_VBATE;
 8001790:	68fb      	ldr	r3, [r7, #12]
 8001792:	685b      	ldr	r3, [r3, #4]
 8001794:	f443 0280 	orr.w	r2, r3, #4194304	@ 0x400000
 8001798:	68fb      	ldr	r3, [r7, #12]
 800179a:	605a      	str	r2, [r3, #4]
  }

  /* if ADC1 Channel_16 or Channel_18 is selected for Temperature sensor or
     Channel_17 is selected for VREFINT enable TSVREFE */
  if ((hadc->Instance == ADC1) && ((sConfig->Channel == ADC_CHANNEL_TEMPSENSOR) || (sConfig->Channel == ADC_CHANNEL_VREFINT)))
 800179c:	687b      	ldr	r3, [r7, #4]
 800179e:	681b      	ldr	r3, [r3, #0]
 80017a0:	4a1d      	ldr	r2, [pc, #116]	@ (8001818 <HAL_ADC_ConfigChannel+0x254>)
 80017a2:	4293      	cmp	r3, r2
 80017a4:	d12b      	bne.n	80017fe <HAL_ADC_ConfigChannel+0x23a>
 80017a6:	683b      	ldr	r3, [r7, #0]
 80017a8:	681b      	ldr	r3, [r3, #0]
 80017aa:	4a1c      	ldr	r2, [pc, #112]	@ (800181c <HAL_ADC_ConfigChannel+0x258>)
 80017ac:	4293      	cmp	r3, r2
 80017ae:	d003      	beq.n	80017b8 <HAL_ADC_ConfigChannel+0x1f4>
 80017b0:	683b      	ldr	r3, [r7, #0]
 80017b2:	681b      	ldr	r3, [r3, #0]
 80017b4:	2b11      	cmp	r3, #17
 80017b6:	d122      	bne.n	80017fe <HAL_ADC_ConfigChannel+0x23a>
  {
    /* Disable the VBAT channel in case of using board with multiplixed ADC_CHANNEL_VBAT & ADC_CHANNEL_TEMPSENSOR*/
    if ((uint16_t)ADC_CHANNEL_TEMPSENSOR == (uint16_t)ADC_CHANNEL_VBAT)
    {
      tmpADC_Common->CCR &= ~ADC_CCR_VBATE;
 80017b8:	68fb      	ldr	r3, [r7, #12]
 80017ba:	685b      	ldr	r3, [r3, #4]
 80017bc:	f423 0280 	bic.w	r2, r3, #4194304	@ 0x400000
 80017c0:	68fb      	ldr	r3, [r7, #12]
 80017c2:	605a      	str	r2, [r3, #4]
    }
    /* Enable the Temperature sensor and VREFINT channel*/
    tmpADC_Common->CCR |= ADC_CCR_TSVREFE;
 80017c4:	68fb      	ldr	r3, [r7, #12]
 80017c6:	685b      	ldr	r3, [r3, #4]
 80017c8:	f443 0200 	orr.w	r2, r3, #8388608	@ 0x800000
 80017cc:	68fb      	ldr	r3, [r7, #12]
 80017ce:	605a      	str	r2, [r3, #4]

    if (sConfig->Channel == ADC_CHANNEL_TEMPSENSOR)
 80017d0:	683b      	ldr	r3, [r7, #0]
 80017d2:	681b      	ldr	r3, [r3, #0]
 80017d4:	4a11      	ldr	r2, [pc, #68]	@ (800181c <HAL_ADC_ConfigChannel+0x258>)
 80017d6:	4293      	cmp	r3, r2
 80017d8:	d111      	bne.n	80017fe <HAL_ADC_ConfigChannel+0x23a>
    {
      /* Delay for temperature sensor stabilization time */
      /* Compute number of CPU cycles to wait for */
      counter = (ADC_TEMPSENSOR_DELAY_US * (SystemCoreClock / 1000000U));
 80017da:	4b11      	ldr	r3, [pc, #68]	@ (8001820 <HAL_ADC_ConfigChannel+0x25c>)
 80017dc:	681b      	ldr	r3, [r3, #0]
 80017de:	4a11      	ldr	r2, [pc, #68]	@ (8001824 <HAL_ADC_ConfigChannel+0x260>)
 80017e0:	fba2 2303 	umull	r2, r3, r2, r3
 80017e4:	0c9a      	lsrs	r2, r3, #18
 80017e6:	4613      	mov	r3, r2
 80017e8:	009b      	lsls	r3, r3, #2
 80017ea:	4413      	add	r3, r2
 80017ec:	005b      	lsls	r3, r3, #1
 80017ee:	60bb      	str	r3, [r7, #8]
      while (counter != 0U)
 80017f0:	e002      	b.n	80017f8 <HAL_ADC_ConfigChannel+0x234>
      {
        counter--;
 80017f2:	68bb      	ldr	r3, [r7, #8]
 80017f4:	3b01      	subs	r3, #1
 80017f6:	60bb      	str	r3, [r7, #8]
      while (counter != 0U)
 80017f8:	68bb      	ldr	r3, [r7, #8]
 80017fa:	2b00      	cmp	r3, #0
 80017fc:	d1f9      	bne.n	80017f2 <HAL_ADC_ConfigChannel+0x22e>
      }
    }
  }

  /* Process unlocked */
  __HAL_UNLOCK(hadc);
 80017fe:	687b      	ldr	r3, [r7, #4]
 8001800:	2200      	movs	r2, #0
 8001802:	f883 203c 	strb.w	r2, [r3, #60]	@ 0x3c

  /* Return function status */
  return HAL_OK;
 8001806:	2300      	movs	r3, #0
}
 8001808:	4618      	mov	r0, r3
 800180a:	3714      	adds	r7, #20
 800180c:	46bd      	mov	sp, r7
 800180e:	f85d 7b04 	ldr.w	r7, [sp], #4
 8001812:	4770      	bx	lr
 8001814:	40012300 	.word	0x40012300
 8001818:	40012000 	.word	0x40012000
 800181c:	10000012 	.word	0x10000012
 8001820:	20000000 	.word	0x20000000
 8001824:	431bde83 	.word	0x431bde83

08001828 <ADC_Init>:
  * @param  hadc pointer to a ADC_HandleTypeDef structure that contains
  *         the configuration information for the specified ADC.
  * @retval None
  */
static void ADC_Init(ADC_HandleTypeDef *hadc)
{
 8001828:	b480      	push	{r7}
 800182a:	b085      	sub	sp, #20
 800182c:	af00      	add	r7, sp, #0
 800182e:	6078      	str	r0, [r7, #4]

  /* Set ADC parameters */
  /* Pointer to the common control register to which is belonging hadc    */
  /* (Depending on STM32F4 product, there may be up to 3 ADCs and 1 common */
  /* control register)                                                    */
  tmpADC_Common = ADC_COMMON_REGISTER(hadc);
 8001830:	4b79      	ldr	r3, [pc, #484]	@ (8001a18 <ADC_Init+0x1f0>)
 8001832:	60fb      	str	r3, [r7, #12]

  /* Set the ADC clock prescaler */
  tmpADC_Common->CCR &= ~(ADC_CCR_ADCPRE);
 8001834:	68fb      	ldr	r3, [r7, #12]
 8001836:	685b      	ldr	r3, [r3, #4]
 8001838:	f423 3240 	bic.w	r2, r3, #196608	@ 0x30000
 800183c:	68fb      	ldr	r3, [r7, #12]
 800183e:	605a      	str	r2, [r3, #4]
  tmpADC_Common->CCR |=  hadc->Init.ClockPrescaler;
 8001840:	68fb      	ldr	r3, [r7, #12]
 8001842:	685a      	ldr	r2, [r3, #4]
 8001844:	687b      	ldr	r3, [r7, #4]
 8001846:	685b      	ldr	r3, [r3, #4]
 8001848:	431a      	orrs	r2, r3
 800184a:	68fb      	ldr	r3, [r7, #12]
 800184c:	605a      	str	r2, [r3, #4]

  /* Set ADC scan mode */
  hadc->Instance->CR1 &= ~(ADC_CR1_SCAN);
 800184e:	687b      	ldr	r3, [r7, #4]
 8001850:	681b      	ldr	r3, [r3, #0]
 8001852:	685a      	ldr	r2, [r3, #4]
 8001854:	687b      	ldr	r3, [r7, #4]
 8001856:	681b      	ldr	r3, [r3, #0]
 8001858:	f422 7280 	bic.w	r2, r2, #256	@ 0x100
 800185c:	605a      	str	r2, [r3, #4]
  hadc->Instance->CR1 |=  ADC_CR1_SCANCONV(hadc->Init.ScanConvMode);
 800185e:	687b      	ldr	r3, [r7, #4]
 8001860:	681b      	ldr	r3, [r3, #0]
 8001862:	6859      	ldr	r1, [r3, #4]
 8001864:	687b      	ldr	r3, [r7, #4]
 8001866:	691b      	ldr	r3, [r3, #16]
 8001868:	021a      	lsls	r2, r3, #8
 800186a:	687b      	ldr	r3, [r7, #4]
 800186c:	681b      	ldr	r3, [r3, #0]
 800186e:	430a      	orrs	r2, r1
 8001870:	605a      	str	r2, [r3, #4]

  /* Set ADC resolution */
  hadc->Instance->CR1 &= ~(ADC_CR1_RES);
 8001872:	687b      	ldr	r3, [r7, #4]
 8001874:	681b      	ldr	r3, [r3, #0]
 8001876:	685a      	ldr	r2, [r3, #4]
 8001878:	687b      	ldr	r3, [r7, #4]
 800187a:	681b      	ldr	r3, [r3, #0]
 800187c:	f022 7240 	bic.w	r2, r2, #50331648	@ 0x3000000
 8001880:	605a      	str	r2, [r3, #4]
  hadc->Instance->CR1 |=  hadc->Init.Resolution;
 8001882:	687b      	ldr	r3, [r7, #4]
 8001884:	681b      	ldr	r3, [r3, #0]
 8001886:	6859      	ldr	r1, [r3, #4]
 8001888:	687b      	ldr	r3, [r7, #4]
 800188a:	689a      	ldr	r2, [r3, #8]
 800188c:	687b      	ldr	r3, [r7, #4]
 800188e:	681b      	ldr	r3, [r3, #0]
 8001890:	430a      	orrs	r2, r1
 8001892:	605a      	str	r2, [r3, #4]

  /* Set ADC data alignment */
  hadc->Instance->CR2 &= ~(ADC_CR2_ALIGN);
 8001894:	687b      	ldr	r3, [r7, #4]
 8001896:	681b      	ldr	r3, [r3, #0]
 8001898:	689a      	ldr	r2, [r3, #8]
 800189a:	687b      	ldr	r3, [r7, #4]
 800189c:	681b      	ldr	r3, [r3, #0]
 800189e:	f422 6200 	bic.w	r2, r2, #2048	@ 0x800
 80018a2:	609a      	str	r2, [r3, #8]
  hadc->Instance->CR2 |= hadc->Init.DataAlign;
 80018a4:	687b      	ldr	r3, [r7, #4]
 80018a6:	681b      	ldr	r3, [r3, #0]
 80018a8:	6899      	ldr	r1, [r3, #8]
 80018aa:	687b      	ldr	r3, [r7, #4]
 80018ac:	68da      	ldr	r2, [r3, #12]
 80018ae:	687b      	ldr	r3, [r7, #4]
 80018b0:	681b      	ldr	r3, [r3, #0]
 80018b2:	430a      	orrs	r2, r1
 80018b4:	609a      	str	r2, [r3, #8]
  /* Enable external trigger if trigger selection is different of software  */
  /* start.                                                                 */
  /* Note: This configuration keeps the hardware feature of parameter       */
  /*       ExternalTrigConvEdge "trigger edge none" equivalent to           */
  /*       software start.                                                  */
  if (hadc->Init.ExternalTrigConv != ADC_SOFTWARE_START)
 80018b6:	687b      	ldr	r3, [r7, #4]
 80018b8:	6a9b      	ldr	r3, [r3, #40]	@ 0x28
 80018ba:	4a58      	ldr	r2, [pc, #352]	@ (8001a1c <ADC_Init+0x1f4>)
 80018bc:	4293      	cmp	r3, r2
 80018be:	d022      	beq.n	8001906 <ADC_Init+0xde>
  {
    /* Select external trigger to start conversion */
    hadc->Instance->CR2 &= ~(ADC_CR2_EXTSEL);
 80018c0:	687b      	ldr	r3, [r7, #4]
 80018c2:	681b      	ldr	r3, [r3, #0]
 80018c4:	689a      	ldr	r2, [r3, #8]
 80018c6:	687b      	ldr	r3, [r7, #4]
 80018c8:	681b      	ldr	r3, [r3, #0]
 80018ca:	f022 6270 	bic.w	r2, r2, #251658240	@ 0xf000000
 80018ce:	609a      	str	r2, [r3, #8]
    hadc->Instance->CR2 |= hadc->Init.ExternalTrigConv;
 80018d0:	687b      	ldr	r3, [r7, #4]
 80018d2:	681b      	ldr	r3, [r3, #0]
 80018d4:	6899      	ldr	r1, [r3, #8]
 80018d6:	687b      	ldr	r3, [r7, #4]
 80018d8:	6a9a      	ldr	r2, [r3, #40]	@ 0x28
 80018da:	687b      	ldr	r3, [r7, #4]
 80018dc:	681b      	ldr	r3, [r3, #0]
 80018de:	430a      	orrs	r2, r1
 80018e0:	609a      	str	r2, [r3, #8]

    /* Select external trigger polarity */
    hadc->Instance->CR2 &= ~(ADC_CR2_EXTEN);
 80018e2:	687b      	ldr	r3, [r7, #4]
 80018e4:	681b      	ldr	r3, [r3, #0]
 80018e6:	689a      	ldr	r2, [r3, #8]
 80018e8:	687b      	ldr	r3, [r7, #4]
 80018ea:	681b      	ldr	r3, [r3, #0]
 80018ec:	f022 5240 	bic.w	r2, r2, #805306368	@ 0x30000000
 80018f0:	609a      	str	r2, [r3, #8]
    hadc->Instance->CR2 |= hadc->Init.ExternalTrigConvEdge;
 80018f2:	687b      	ldr	r3, [r7, #4]
 80018f4:	681b      	ldr	r3, [r3, #0]
 80018f6:	6899      	ldr	r1, [r3, #8]
 80018f8:	687b      	ldr	r3, [r7, #4]
 80018fa:	6ada      	ldr	r2, [r3, #44]	@ 0x2c
 80018fc:	687b      	ldr	r3, [r7, #4]
 80018fe:	681b      	ldr	r3, [r3, #0]
 8001900:	430a      	orrs	r2, r1
 8001902:	609a      	str	r2, [r3, #8]
 8001904:	e00f      	b.n	8001926 <ADC_Init+0xfe>
  }
  else
  {
    /* Reset the external trigger */
    hadc->Instance->CR2 &= ~(ADC_CR2_EXTSEL);
 8001906:	687b      	ldr	r3, [r7, #4]
 8001908:	681b      	ldr	r3, [r3, #0]
 800190a:	689a      	ldr	r2, [r3, #8]
 800190c:	687b      	ldr	r3, [r7, #4]
 800190e:	681b      	ldr	r3, [r3, #0]
 8001910:	f022 6270 	bic.w	r2, r2, #251658240	@ 0xf000000
 8001914:	609a      	str	r2, [r3, #8]
    hadc->Instance->CR2 &= ~(ADC_CR2_EXTEN);
 8001916:	687b      	ldr	r3, [r7, #4]
 8001918:	681b      	ldr	r3, [r3, #0]
 800191a:	689a      	ldr	r2, [r3, #8]
 800191c:	687b      	ldr	r3, [r7, #4]
 800191e:	681b      	ldr	r3, [r3, #0]
 8001920:	f022 5240 	bic.w	r2, r2, #805306368	@ 0x30000000
 8001924:	609a      	str	r2, [r3, #8]
  }

  /* Enable or disable ADC continuous conversion mode */
  hadc->Instance->CR2 &= ~(ADC_CR2_CONT);
 8001926:	687b      	ldr	r3, [r7, #4]
 8001928:	681b      	ldr	r3, [r3, #0]
 800192a:	689a      	ldr	r2, [r3, #8]
 800192c:	687b      	ldr	r3, [r7, #4]
 800192e:	681b      	ldr	r3, [r3, #0]
 8001930:	f022 0202 	bic.w	r2, r2, #2
 8001934:	609a      	str	r2, [r3, #8]
  hadc->Instance->CR2 |= ADC_CR2_CONTINUOUS((uint32_t)hadc->Init.ContinuousConvMode);
 8001936:	687b      	ldr	r3, [r7, #4]
 8001938:	681b      	ldr	r3, [r3, #0]
 800193a:	6899      	ldr	r1, [r3, #8]
 800193c:	687b      	ldr	r3, [r7, #4]
 800193e:	7e1b      	ldrb	r3, [r3, #24]
 8001940:	005a      	lsls	r2, r3, #1
 8001942:	687b      	ldr	r3, [r7, #4]
 8001944:	681b      	ldr	r3, [r3, #0]
 8001946:	430a      	orrs	r2, r1
 8001948:	609a      	str	r2, [r3, #8]

  if (hadc->Init.DiscontinuousConvMode != DISABLE)
 800194a:	687b      	ldr	r3, [r7, #4]
 800194c:	f893 3020 	ldrb.w	r3, [r3, #32]
 8001950:	2b00      	cmp	r3, #0
 8001952:	d01b      	beq.n	800198c <ADC_Init+0x164>
  {
    assert_param(IS_ADC_REGULAR_DISC_NUMBER(hadc->Init.NbrOfDiscConversion));

    /* Enable the selected ADC regular discontinuous mode */
    hadc->Instance->CR1 |= (uint32_t)ADC_CR1_DISCEN;
 8001954:	687b      	ldr	r3, [r7, #4]
 8001956:	681b      	ldr	r3, [r3, #0]
 8001958:	685a      	ldr	r2, [r3, #4]
 800195a:	687b      	ldr	r3, [r7, #4]
 800195c:	681b      	ldr	r3, [r3, #0]
 800195e:	f442 6200 	orr.w	r2, r2, #2048	@ 0x800
 8001962:	605a      	str	r2, [r3, #4]

    /* Set the number of channels to be converted in discontinuous mode */
    hadc->Instance->CR1 &= ~(ADC_CR1_DISCNUM);
 8001964:	687b      	ldr	r3, [r7, #4]
 8001966:	681b      	ldr	r3, [r3, #0]
 8001968:	685a      	ldr	r2, [r3, #4]
 800196a:	687b      	ldr	r3, [r7, #4]
 800196c:	681b      	ldr	r3, [r3, #0]
 800196e:	f422 4260 	bic.w	r2, r2, #57344	@ 0xe000
 8001972:	605a      	str	r2, [r3, #4]
    hadc->Instance->CR1 |=  ADC_CR1_DISCONTINUOUS(hadc->Init.NbrOfDiscConversion);
 8001974:	687b      	ldr	r3, [r7, #4]
 8001976:	681b      	ldr	r3, [r3, #0]
 8001978:	6859      	ldr	r1, [r3, #4]
 800197a:	687b      	ldr	r3, [r7, #4]
 800197c:	6a5b      	ldr	r3, [r3, #36]	@ 0x24
 800197e:	3b01      	subs	r3, #1
 8001980:	035a      	lsls	r2, r3, #13
 8001982:	687b      	ldr	r3, [r7, #4]
 8001984:	681b      	ldr	r3, [r3, #0]
 8001986:	430a      	orrs	r2, r1
 8001988:	605a      	str	r2, [r3, #4]
 800198a:	e007      	b.n	800199c <ADC_Init+0x174>
  }
  else
  {
    /* Disable the selected ADC regular discontinuous mode */
    hadc->Instance->CR1 &= ~(ADC_CR1_DISCEN);
 800198c:	687b      	ldr	r3, [r7, #4]
 800198e:	681b      	ldr	r3, [r3, #0]
 8001990:	685a      	ldr	r2, [r3, #4]
 8001992:	687b      	ldr	r3, [r7, #4]
 8001994:	681b      	ldr	r3, [r3, #0]
 8001996:	f422 6200 	bic.w	r2, r2, #2048	@ 0x800
 800199a:	605a      	str	r2, [r3, #4]
  }

  /* Set ADC number of conversion */
  hadc->Instance->SQR1 &= ~(ADC_SQR1_L);
 800199c:	687b      	ldr	r3, [r7, #4]
 800199e:	681b      	ldr	r3, [r3, #0]
 80019a0:	6ada      	ldr	r2, [r3, #44]	@ 0x2c
 80019a2:	687b      	ldr	r3, [r7, #4]
 80019a4:	681b      	ldr	r3, [r3, #0]
 80019a6:	f422 0270 	bic.w	r2, r2, #15728640	@ 0xf00000
 80019aa:	62da      	str	r2, [r3, #44]	@ 0x2c
  hadc->Instance->SQR1 |=  ADC_SQR1(hadc->Init.NbrOfConversion);
 80019ac:	687b      	ldr	r3, [r7, #4]
 80019ae:	681b      	ldr	r3, [r3, #0]
 80019b0:	6ad9      	ldr	r1, [r3, #44]	@ 0x2c
 80019b2:	687b      	ldr	r3, [r7, #4]
 80019b4:	69db      	ldr	r3, [r3, #28]
 80019b6:	3b01      	subs	r3, #1
 80019b8:	051a      	lsls	r2, r3, #20
 80019ba:	687b      	ldr	r3, [r7, #4]
 80019bc:	681b      	ldr	r3, [r3, #0]
 80019be:	430a      	orrs	r2, r1
 80019c0:	62da      	str	r2, [r3, #44]	@ 0x2c

  /* Enable or disable ADC DMA continuous request */
  hadc->Instance->CR2 &= ~(ADC_CR2_DDS);
 80019c2:	687b      	ldr	r3, [r7, #4]
 80019c4:	681b      	ldr	r3, [r3, #0]
 80019c6:	689a      	ldr	r2, [r3, #8]
 80019c8:	687b      	ldr	r3, [r7, #4]
 80019ca:	681b      	ldr	r3, [r3, #0]
 80019cc:	f422 7200 	bic.w	r2, r2, #512	@ 0x200
 80019d0:	609a      	str	r2, [r3, #8]
  hadc->Instance->CR2 |= ADC_CR2_DMAContReq((uint32_t)hadc->Init.DMAContinuousRequests);
 80019d2:	687b      	ldr	r3, [r7, #4]
 80019d4:	681b      	ldr	r3, [r3, #0]
 80019d6:	6899      	ldr	r1, [r3, #8]
 80019d8:	687b      	ldr	r3, [r7, #4]
 80019da:	f893 3030 	ldrb.w	r3, [r3, #48]	@ 0x30
 80019de:	025a      	lsls	r2, r3, #9
 80019e0:	687b      	ldr	r3, [r7, #4]
 80019e2:	681b      	ldr	r3, [r3, #0]
 80019e4:	430a      	orrs	r2, r1
 80019e6:	609a      	str	r2, [r3, #8]

  /* Enable or disable ADC end of conversion selection */
  hadc->Instance->CR2 &= ~(ADC_CR2_EOCS);
 80019e8:	687b      	ldr	r3, [r7, #4]
 80019ea:	681b      	ldr	r3, [r3, #0]
 80019ec:	689a      	ldr	r2, [r3, #8]
 80019ee:	687b      	ldr	r3, [r7, #4]
 80019f0:	681b      	ldr	r3, [r3, #0]
 80019f2:	f422 6280 	bic.w	r2, r2, #1024	@ 0x400
 80019f6:	609a      	str	r2, [r3, #8]
  hadc->Instance->CR2 |= ADC_CR2_EOCSelection(hadc->Init.EOCSelection);
 80019f8:	687b      	ldr	r3, [r7, #4]
 80019fa:	681b      	ldr	r3, [r3, #0]
 80019fc:	6899      	ldr	r1, [r3, #8]
 80019fe:	687b      	ldr	r3, [r7, #4]
 8001a00:	695b      	ldr	r3, [r3, #20]
 8001a02:	029a      	lsls	r2, r3, #10
 8001a04:	687b      	ldr	r3, [r7, #4]
 8001a06:	681b      	ldr	r3, [r3, #0]
 8001a08:	430a      	orrs	r2, r1
 8001a0a:	609a      	str	r2, [r3, #8]
}
 8001a0c:	bf00      	nop
 8001a0e:	3714      	adds	r7, #20
 8001a10:	46bd      	mov	sp, r7
 8001a12:	f85d 7b04 	ldr.w	r7, [sp], #4
 8001a16:	4770      	bx	lr
 8001a18:	40012300 	.word	0x40012300
 8001a1c:	0f000001 	.word	0x0f000001

08001a20 <ADC_DMAConvCplt>:
  * @param  hdma pointer to a DMA_HandleTypeDef structure that contains
  *                the configuration information for the specified DMA module.
  * @retval None
  */
static void ADC_DMAConvCplt(DMA_HandleTypeDef *hdma)
{
 8001a20:	b580      	push	{r7, lr}
 8001a22:	b084      	sub	sp, #16
 8001a24:	af00      	add	r7, sp, #0
 8001a26:	6078      	str	r0, [r7, #4]
  /* Retrieve ADC handle corresponding to current DMA handle */
  ADC_HandleTypeDef *hadc = (ADC_HandleTypeDef *)((DMA_HandleTypeDef *)hdma)->Parent;
 8001a28:	687b      	ldr	r3, [r7, #4]
 8001a2a:	6b9b      	ldr	r3, [r3, #56]	@ 0x38
 8001a2c:	60fb      	str	r3, [r7, #12]

  /* Update state machine on conversion status if not in error state */
  if (HAL_IS_BIT_CLR(hadc->State, HAL_ADC_STATE_ERROR_INTERNAL | HAL_ADC_STATE_ERROR_DMA))
 8001a2e:	68fb      	ldr	r3, [r7, #12]
 8001a30:	6c1b      	ldr	r3, [r3, #64]	@ 0x40
 8001a32:	f003 0350 	and.w	r3, r3, #80	@ 0x50
 8001a36:	2b00      	cmp	r3, #0
 8001a38:	d13c      	bne.n	8001ab4 <ADC_DMAConvCplt+0x94>
  {
    /* Update ADC state machine */
    SET_BIT(hadc->State, HAL_ADC_STATE_REG_EOC);
 8001a3a:	68fb      	ldr	r3, [r7, #12]
 8001a3c:	6c1b      	ldr	r3, [r3, #64]	@ 0x40
 8001a3e:	f443 7200 	orr.w	r2, r3, #512	@ 0x200
 8001a42:	68fb      	ldr	r3, [r7, #12]
 8001a44:	641a      	str	r2, [r3, #64]	@ 0x40
    /* by external trigger, continuous mode or scan sequence on going.      */
    /* Note: On STM32F4, there is no independent flag of end of sequence.   */
    /*       The test of scan sequence on going is done either with scan    */
    /*       sequence disabled or with end of conversion flag set to        */
    /*       of end of sequence.                                            */
    if (ADC_IS_SOFTWARE_START_REGULAR(hadc)                   &&
 8001a46:	68fb      	ldr	r3, [r7, #12]
 8001a48:	681b      	ldr	r3, [r3, #0]
 8001a4a:	689b      	ldr	r3, [r3, #8]
 8001a4c:	f003 5340 	and.w	r3, r3, #805306368	@ 0x30000000
 8001a50:	2b00      	cmp	r3, #0
 8001a52:	d12b      	bne.n	8001aac <ADC_DMAConvCplt+0x8c>
        (hadc->Init.ContinuousConvMode == DISABLE)            &&
 8001a54:	68fb      	ldr	r3, [r7, #12]
 8001a56:	7e1b      	ldrb	r3, [r3, #24]
    if (ADC_IS_SOFTWARE_START_REGULAR(hadc)                   &&
 8001a58:	2b00      	cmp	r3, #0
 8001a5a:	d127      	bne.n	8001aac <ADC_DMAConvCplt+0x8c>
        (HAL_IS_BIT_CLR(hadc->Instance->SQR1, ADC_SQR1_L) ||
 8001a5c:	68fb      	ldr	r3, [r7, #12]
 8001a5e:	681b      	ldr	r3, [r3, #0]
 8001a60:	6adb      	ldr	r3, [r3, #44]	@ 0x2c
 8001a62:	f403 0370 	and.w	r3, r3, #15728640	@ 0xf00000
        (hadc->Init.ContinuousConvMode == DISABLE)            &&
 8001a66:	2b00      	cmp	r3, #0
 8001a68:	d006      	beq.n	8001a78 <ADC_DMAConvCplt+0x58>
         HAL_IS_BIT_CLR(hadc->Instance->CR2, ADC_CR2_EOCS)))
 8001a6a:	68fb      	ldr	r3, [r7, #12]
 8001a6c:	681b      	ldr	r3, [r3, #0]
 8001a6e:	689b      	ldr	r3, [r3, #8]
 8001a70:	f403 6380 	and.w	r3, r3, #1024	@ 0x400
        (HAL_IS_BIT_CLR(hadc->Instance->SQR1, ADC_SQR1_L) ||
 8001a74:	2b00      	cmp	r3, #0
 8001a76:	d119      	bne.n	8001aac <ADC_DMAConvCplt+0x8c>
    {
      /* Disable ADC end of single conversion interrupt on group regular */
      /* Note: Overrun interrupt was enabled with EOC interrupt in          */
      /* HAL_ADC_Start_IT(), but is not disabled here because can be used   */
      /* by overrun IRQ process below.                                      */
      __HAL_ADC_DISABLE_IT(hadc, ADC_IT_EOC);
 8001a78:	68fb      	ldr	r3, [r7, #12]
 8001a7a:	681b      	ldr	r3, [r3, #0]
 8001a7c:	685a      	ldr	r2, [r3, #4]
 8001a7e:	68fb      	ldr	r3, [r7, #12]
 8001a80:	681b      	ldr	r3, [r3, #0]
 8001a82:	f022 0220 	bic.w	r2, r2, #32
 8001a86:	605a      	str	r2, [r3, #4]

      /* Set ADC state */
      CLEAR_BIT(hadc->State, HAL_ADC_STATE_REG_BUSY);
 8001a88:	68fb      	ldr	r3, [r7, #12]
 8001a8a:	6c1b      	ldr	r3, [r3, #64]	@ 0x40
 8001a8c:	f423 7280 	bic.w	r2, r3, #256	@ 0x100
 8001a90:	68fb      	ldr	r3, [r7, #12]
 8001a92:	641a      	str	r2, [r3, #64]	@ 0x40

      if (HAL_IS_BIT_CLR(hadc->State, HAL_ADC_STATE_INJ_BUSY))
 8001a94:	68fb      	ldr	r3, [r7, #12]
 8001a96:	6c1b      	ldr	r3, [r3, #64]	@ 0x40
 8001a98:	f403 5380 	and.w	r3, r3, #4096	@ 0x1000
 8001a9c:	2b00      	cmp	r3, #0
 8001a9e:	d105      	bne.n	8001aac <ADC_DMAConvCplt+0x8c>
      {
        SET_BIT(hadc->State, HAL_ADC_STATE_READY);
 8001aa0:	68fb      	ldr	r3, [r7, #12]
 8001aa2:	6c1b      	ldr	r3, [r3, #64]	@ 0x40
 8001aa4:	f043 0201 	orr.w	r2, r3, #1
 8001aa8:	68fb      	ldr	r3, [r7, #12]
 8001aaa:	641a      	str	r2, [r3, #64]	@ 0x40

    /* Conversion complete callback */
#if (USE_HAL_ADC_REGISTER_CALLBACKS == 1)
    hadc->ConvCpltCallback(hadc);
#else
    HAL_ADC_ConvCpltCallback(hadc);
 8001aac:	68f8      	ldr	r0, [r7, #12]
 8001aae:	f7fe fd57 	bl	8000560 <HAL_ADC_ConvCpltCallback>
    {
      /* Call DMA error callback */
      hadc->DMA_Handle->XferErrorCallback(hdma);
    }
  }
}
 8001ab2:	e00e      	b.n	8001ad2 <ADC_DMAConvCplt+0xb2>
    if ((hadc->State & HAL_ADC_STATE_ERROR_INTERNAL) != 0UL)
 8001ab4:	68fb      	ldr	r3, [r7, #12]
 8001ab6:	6c1b      	ldr	r3, [r3, #64]	@ 0x40
 8001ab8:	f003 0310 	and.w	r3, r3, #16
 8001abc:	2b00      	cmp	r3, #0
 8001abe:	d003      	beq.n	8001ac8 <ADC_DMAConvCplt+0xa8>
      HAL_ADC_ErrorCallback(hadc);
 8001ac0:	68f8      	ldr	r0, [r7, #12]
 8001ac2:	f7ff fd75 	bl	80015b0 <HAL_ADC_ErrorCallback>
}
 8001ac6:	e004      	b.n	8001ad2 <ADC_DMAConvCplt+0xb2>
      hadc->DMA_Handle->XferErrorCallback(hdma);
 8001ac8:	68fb      	ldr	r3, [r7, #12]
 8001aca:	6b9b      	ldr	r3, [r3, #56]	@ 0x38
 8001acc:	6cdb      	ldr	r3, [r3, #76]	@ 0x4c
 8001ace:	6878      	ldr	r0, [r7, #4]
 8001ad0:	4798      	blx	r3
}
 8001ad2:	bf00      	nop
 8001ad4:	3710      	adds	r7, #16
 8001ad6:	46bd      	mov	sp, r7
 8001ad8:	bd80      	pop	{r7, pc}

08001ada <ADC_DMAHalfConvCplt>:
  * @param  hdma pointer to a DMA_HandleTypeDef structure that contains
  *                the configuration information for the specified DMA module.
  * @retval None
  */
static void ADC_DMAHalfConvCplt(DMA_HandleTypeDef *hdma)
{
 8001ada:	b580      	push	{r7, lr}
 8001adc:	b084      	sub	sp, #16
 8001ade:	af00      	add	r7, sp, #0
 8001ae0:	6078      	str	r0, [r7, #4]
  ADC_HandleTypeDef *hadc = (ADC_HandleTypeDef *)((DMA_HandleTypeDef *)hdma)->Parent;
 8001ae2:	687b      	ldr	r3, [r7, #4]
 8001ae4:	6b9b      	ldr	r3, [r3, #56]	@ 0x38
 8001ae6:	60fb      	str	r3, [r7, #12]
  /* Half conversion callback */
#if (USE_HAL_ADC_REGISTER_CALLBACKS == 1)
  hadc->ConvHalfCpltCallback(hadc);
#else
  HAL_ADC_ConvHalfCpltCallback(hadc);
 8001ae8:	68f8      	ldr	r0, [r7, #12]
 8001aea:	f7fe fd23 	bl	8000534 <HAL_ADC_ConvHalfCpltCallback>
#endif /* USE_HAL_ADC_REGISTER_CALLBACKS */
}
 8001aee:	bf00      	nop
 8001af0:	3710      	adds	r7, #16
 8001af2:	46bd      	mov	sp, r7
 8001af4:	bd80      	pop	{r7, pc}

08001af6 <ADC_DMAError>:
  * @param  hdma pointer to a DMA_HandleTypeDef structure that contains
  *                the configuration information for the specified DMA module.
  * @retval None
  */
static void ADC_DMAError(DMA_HandleTypeDef *hdma)
{
 8001af6:	b580      	push	{r7, lr}
 8001af8:	b084      	sub	sp, #16
 8001afa:	af00      	add	r7, sp, #0
 8001afc:	6078      	str	r0, [r7, #4]
  ADC_HandleTypeDef *hadc = (ADC_HandleTypeDef *)((DMA_HandleTypeDef *)hdma)->Parent;
 8001afe:	687b      	ldr	r3, [r7, #4]
 8001b00:	6b9b      	ldr	r3, [r3, #56]	@ 0x38
 8001b02:	60fb      	str	r3, [r7, #12]
  hadc->State = HAL_ADC_STATE_ERROR_DMA;
 8001b04:	68fb      	ldr	r3, [r7, #12]
 8001b06:	2240      	movs	r2, #64	@ 0x40
 8001b08:	641a      	str	r2, [r3, #64]	@ 0x40
  /* Set ADC error code to DMA error */
  hadc->ErrorCode |= HAL_ADC_ERROR_DMA;
 8001b0a:	68fb      	ldr	r3, [r7, #12]
 8001b0c:	6c5b      	ldr	r3, [r3, #68]	@ 0x44
 8001b0e:	f043 0204 	orr.w	r2, r3, #4
 8001b12:	68fb      	ldr	r3, [r7, #12]
 8001b14:	645a      	str	r2, [r3, #68]	@ 0x44
  /* Error callback */
#if (USE_HAL_ADC_REGISTER_CALLBACKS == 1)
  hadc->ErrorCallback(hadc);
#else
  HAL_ADC_ErrorCallback(hadc);
 8001b16:	68f8      	ldr	r0, [r7, #12]
 8001b18:	f7ff fd4a 	bl	80015b0 <HAL_ADC_ErrorCallback>
#endif /* USE_HAL_ADC_REGISTER_CALLBACKS */
}
 8001b1c:	bf00      	nop
 8001b1e:	3710      	adds	r7, #16
 8001b20:	46bd      	mov	sp, r7
 8001b22:	bd80      	pop	{r7, pc}

08001b24 <__NVIC_SetPriorityGrouping>:
           In case of a conflict between priority grouping and available
           priority bits (__NVIC_PRIO_BITS), the smallest possible priority group is set.
  \param [in]      PriorityGroup  Priority grouping field.
 */
__STATIC_INLINE void __NVIC_SetPriorityGrouping(uint32_t PriorityGroup)
{
 8001b24:	b480      	push	{r7}
 8001b26:	b085      	sub	sp, #20
 8001b28:	af00      	add	r7, sp, #0
 8001b2a:	6078      	str	r0, [r7, #4]
  uint32_t reg_value;
  uint32_t PriorityGroupTmp = (PriorityGroup & (uint32_t)0x07UL);             /* only values 0..7 are used          */
 8001b2c:	687b      	ldr	r3, [r7, #4]
 8001b2e:	f003 0307 	and.w	r3, r3, #7
 8001b32:	60fb      	str	r3, [r7, #12]

  reg_value  =  SCB->AIRCR;                                                   /* read old register configuration    */
 8001b34:	4b0c      	ldr	r3, [pc, #48]	@ (8001b68 <__NVIC_SetPriorityGrouping+0x44>)
 8001b36:	68db      	ldr	r3, [r3, #12]
 8001b38:	60bb      	str	r3, [r7, #8]
  reg_value &= ~((uint32_t)(SCB_AIRCR_VECTKEY_Msk | SCB_AIRCR_PRIGROUP_Msk)); /* clear bits to change               */
 8001b3a:	68ba      	ldr	r2, [r7, #8]
 8001b3c:	f64f 03ff 	movw	r3, #63743	@ 0xf8ff
 8001b40:	4013      	ands	r3, r2
 8001b42:	60bb      	str	r3, [r7, #8]
  reg_value  =  (reg_value                                   |
                ((uint32_t)0x5FAUL << SCB_AIRCR_VECTKEY_Pos) |
                (PriorityGroupTmp << SCB_AIRCR_PRIGROUP_Pos)  );              /* Insert write key and priority group */
 8001b44:	68fb      	ldr	r3, [r7, #12]
 8001b46:	021a      	lsls	r2, r3, #8
                ((uint32_t)0x5FAUL << SCB_AIRCR_VECTKEY_Pos) |
 8001b48:	68bb      	ldr	r3, [r7, #8]
 8001b4a:	4313      	orrs	r3, r2
  reg_value  =  (reg_value                                   |
 8001b4c:	f043 63bf 	orr.w	r3, r3, #100139008	@ 0x5f80000
 8001b50:	f443 3300 	orr.w	r3, r3, #131072	@ 0x20000
 8001b54:	60bb      	str	r3, [r7, #8]
  SCB->AIRCR =  reg_value;
 8001b56:	4a04      	ldr	r2, [pc, #16]	@ (8001b68 <__NVIC_SetPriorityGrouping+0x44>)
 8001b58:	68bb      	ldr	r3, [r7, #8]
 8001b5a:	60d3      	str	r3, [r2, #12]
}
 8001b5c:	bf00      	nop
 8001b5e:	3714      	adds	r7, #20
 8001b60:	46bd      	mov	sp, r7
 8001b62:	f85d 7b04 	ldr.w	r7, [sp], #4
 8001b66:	4770      	bx	lr
 8001b68:	e000ed00 	.word	0xe000ed00

08001b6c <__NVIC_GetPriorityGrouping>:
  \brief   Get Priority Grouping
  \details Reads the priority grouping field from the NVIC Interrupt Controller.
  \return                Priority grouping field (SCB->AIRCR [10:8] PRIGROUP field).
 */
__STATIC_INLINE uint32_t __NVIC_GetPriorityGrouping(void)
{
 8001b6c:	b480      	push	{r7}
 8001b6e:	af00      	add	r7, sp, #0
  return ((uint32_t)((SCB->AIRCR & SCB_AIRCR_PRIGROUP_Msk) >> SCB_AIRCR_PRIGROUP_Pos));
 8001b70:	4b04      	ldr	r3, [pc, #16]	@ (8001b84 <__NVIC_GetPriorityGrouping+0x18>)
 8001b72:	68db      	ldr	r3, [r3, #12]
 8001b74:	0a1b      	lsrs	r3, r3, #8
 8001b76:	f003 0307 	and.w	r3, r3, #7
}
 8001b7a:	4618      	mov	r0, r3
 8001b7c:	46bd      	mov	sp, r7
 8001b7e:	f85d 7b04 	ldr.w	r7, [sp], #4
 8001b82:	4770      	bx	lr
 8001b84:	e000ed00 	.word	0xe000ed00

08001b88 <__NVIC_EnableIRQ>:
  \details Enables a device specific interrupt in the NVIC interrupt controller.
  \param [in]      IRQn  Device specific interrupt number.
  \note    IRQn must not be negative.
 */
__STATIC_INLINE void __NVIC_EnableIRQ(IRQn_Type IRQn)
{
 8001b88:	b480      	push	{r7}
 8001b8a:	b083      	sub	sp, #12
 8001b8c:	af00      	add	r7, sp, #0
 8001b8e:	4603      	mov	r3, r0
 8001b90:	71fb      	strb	r3, [r7, #7]
  if ((int32_t)(IRQn) >= 0)
 8001b92:	f997 3007 	ldrsb.w	r3, [r7, #7]
 8001b96:	2b00      	cmp	r3, #0
 8001b98:	db0b      	blt.n	8001bb2 <__NVIC_EnableIRQ+0x2a>
  {
    __COMPILER_BARRIER();
    NVIC->ISER[(((uint32_t)IRQn) >> 5UL)] = (uint32_t)(1UL << (((uint32_t)IRQn) & 0x1FUL));
 8001b9a:	79fb      	ldrb	r3, [r7, #7]
 8001b9c:	f003 021f 	and.w	r2, r3, #31
 8001ba0:	4907      	ldr	r1, [pc, #28]	@ (8001bc0 <__NVIC_EnableIRQ+0x38>)
 8001ba2:	f997 3007 	ldrsb.w	r3, [r7, #7]
 8001ba6:	095b      	lsrs	r3, r3, #5
 8001ba8:	2001      	movs	r0, #1
 8001baa:	fa00 f202 	lsl.w	r2, r0, r2
 8001bae:	f841 2023 	str.w	r2, [r1, r3, lsl #2]
    __COMPILER_BARRIER();
  }
}
 8001bb2:	bf00      	nop
 8001bb4:	370c      	adds	r7, #12
 8001bb6:	46bd      	mov	sp, r7
 8001bb8:	f85d 7b04 	ldr.w	r7, [sp], #4
 8001bbc:	4770      	bx	lr
 8001bbe:	bf00      	nop
 8001bc0:	e000e100 	.word	0xe000e100

08001bc4 <__NVIC_SetPriority>:
  \param [in]      IRQn  Interrupt number.
  \param [in]  priority  Priority to set.
  \note    The priority cannot be set for every processor exception.
 */
__STATIC_INLINE void __NVIC_SetPriority(IRQn_Type IRQn, uint32_t priority)
{
 8001bc4:	b480      	push	{r7}
 8001bc6:	b083      	sub	sp, #12
 8001bc8:	af00      	add	r7, sp, #0
 8001bca:	4603      	mov	r3, r0
 8001bcc:	6039      	str	r1, [r7, #0]
 8001bce:	71fb      	strb	r3, [r7, #7]
  if ((int32_t)(IRQn) >= 0)
 8001bd0:	f997 3007 	ldrsb.w	r3, [r7, #7]
 8001bd4:	2b00      	cmp	r3, #0
 8001bd6:	db0a      	blt.n	8001bee <__NVIC_SetPriority+0x2a>
  {
    NVIC->IP[((uint32_t)IRQn)]               = (uint8_t)((priority << (8U - __NVIC_PRIO_BITS)) & (uint32_t)0xFFUL);
 8001bd8:	683b      	ldr	r3, [r7, #0]
 8001bda:	b2da      	uxtb	r2, r3
 8001bdc:	490c      	ldr	r1, [pc, #48]	@ (8001c10 <__NVIC_SetPriority+0x4c>)
 8001bde:	f997 3007 	ldrsb.w	r3, [r7, #7]
 8001be2:	0112      	lsls	r2, r2, #4
 8001be4:	b2d2      	uxtb	r2, r2
 8001be6:	440b      	add	r3, r1
 8001be8:	f883 2300 	strb.w	r2, [r3, #768]	@ 0x300
  }
  else
  {
    SCB->SHP[(((uint32_t)IRQn) & 0xFUL)-4UL] = (uint8_t)((priority << (8U - __NVIC_PRIO_BITS)) & (uint32_t)0xFFUL);
  }
}
 8001bec:	e00a      	b.n	8001c04 <__NVIC_SetPriority+0x40>
    SCB->SHP[(((uint32_t)IRQn) & 0xFUL)-4UL] = (uint8_t)((priority << (8U - __NVIC_PRIO_BITS)) & (uint32_t)0xFFUL);
 8001bee:	683b      	ldr	r3, [r7, #0]
 8001bf0:	b2da      	uxtb	r2, r3
 8001bf2:	4908      	ldr	r1, [pc, #32]	@ (8001c14 <__NVIC_SetPriority+0x50>)
 8001bf4:	79fb      	ldrb	r3, [r7, #7]
 8001bf6:	f003 030f 	and.w	r3, r3, #15
 8001bfa:	3b04      	subs	r3, #4
 8001bfc:	0112      	lsls	r2, r2, #4
 8001bfe:	b2d2      	uxtb	r2, r2
 8001c00:	440b      	add	r3, r1
 8001c02:	761a      	strb	r2, [r3, #24]
}
 8001c04:	bf00      	nop
 8001c06:	370c      	adds	r7, #12
 8001c08:	46bd      	mov	sp, r7
 8001c0a:	f85d 7b04 	ldr.w	r7, [sp], #4
 8001c0e:	4770      	bx	lr
 8001c10:	e000e100 	.word	0xe000e100
 8001c14:	e000ed00 	.word	0xe000ed00

08001c18 <NVIC_EncodePriority>:
  \param [in]   PreemptPriority  Preemptive priority value (starting from 0).
  \param [in]       SubPriority  Subpriority value (starting from 0).
  \return                        Encoded priority. Value can be used in the function \ref NVIC_SetPriority().
 */
__STATIC_INLINE uint32_t NVIC_EncodePriority (uint32_t PriorityGroup, uint32_t PreemptPriority, uint32_t SubPriority)
{
 8001c18:	b480      	push	{r7}
 8001c1a:	b089      	sub	sp, #36	@ 0x24
 8001c1c:	af00      	add	r7, sp, #0
 8001c1e:	60f8      	str	r0, [r7, #12]
 8001c20:	60b9      	str	r1, [r7, #8]
 8001c22:	607a      	str	r2, [r7, #4]
  uint32_t PriorityGroupTmp = (PriorityGroup & (uint32_t)0x07UL);   /* only values 0..7 are used          */
 8001c24:	68fb      	ldr	r3, [r7, #12]
 8001c26:	f003 0307 	and.w	r3, r3, #7
 8001c2a:	61fb      	str	r3, [r7, #28]
  uint32_t PreemptPriorityBits;
  uint32_t SubPriorityBits;

  PreemptPriorityBits = ((7UL - PriorityGroupTmp) > (uint32_t)(__NVIC_PRIO_BITS)) ? (uint32_t)(__NVIC_PRIO_BITS) : (uint32_t)(7UL - PriorityGroupTmp);
 8001c2c:	69fb      	ldr	r3, [r7, #28]
 8001c2e:	f1c3 0307 	rsb	r3, r3, #7
 8001c32:	2b04      	cmp	r3, #4
 8001c34:	bf28      	it	cs
 8001c36:	2304      	movcs	r3, #4
 8001c38:	61bb      	str	r3, [r7, #24]
  SubPriorityBits     = ((PriorityGroupTmp + (uint32_t)(__NVIC_PRIO_BITS)) < (uint32_t)7UL) ? (uint32_t)0UL : (uint32_t)((PriorityGroupTmp - 7UL) + (uint32_t)(__NVIC_PRIO_BITS));
 8001c3a:	69fb      	ldr	r3, [r7, #28]
 8001c3c:	3304      	adds	r3, #4
 8001c3e:	2b06      	cmp	r3, #6
 8001c40:	d902      	bls.n	8001c48 <NVIC_EncodePriority+0x30>
 8001c42:	69fb      	ldr	r3, [r7, #28]
 8001c44:	3b03      	subs	r3, #3
 8001c46:	e000      	b.n	8001c4a <NVIC_EncodePriority+0x32>
 8001c48:	2300      	movs	r3, #0
 8001c4a:	617b      	str	r3, [r7, #20]

  return (
           ((PreemptPriority & (uint32_t)((1UL << (PreemptPriorityBits)) - 1UL)) << SubPriorityBits) |
 8001c4c:	f04f 32ff 	mov.w	r2, #4294967295
 8001c50:	69bb      	ldr	r3, [r7, #24]
 8001c52:	fa02 f303 	lsl.w	r3, r2, r3
 8001c56:	43da      	mvns	r2, r3
 8001c58:	68bb      	ldr	r3, [r7, #8]
 8001c5a:	401a      	ands	r2, r3
 8001c5c:	697b      	ldr	r3, [r7, #20]
 8001c5e:	409a      	lsls	r2, r3
           ((SubPriority     & (uint32_t)((1UL << (SubPriorityBits    )) - 1UL)))
 8001c60:	f04f 31ff 	mov.w	r1, #4294967295
 8001c64:	697b      	ldr	r3, [r7, #20]
 8001c66:	fa01 f303 	lsl.w	r3, r1, r3
 8001c6a:	43d9      	mvns	r1, r3
 8001c6c:	687b      	ldr	r3, [r7, #4]
 8001c6e:	400b      	ands	r3, r1
           ((PreemptPriority & (uint32_t)((1UL << (PreemptPriorityBits)) - 1UL)) << SubPriorityBits) |
 8001c70:	4313      	orrs	r3, r2
         );
}
 8001c72:	4618      	mov	r0, r3
 8001c74:	3724      	adds	r7, #36	@ 0x24
 8001c76:	46bd      	mov	sp, r7
 8001c78:	f85d 7b04 	ldr.w	r7, [sp], #4
 8001c7c:	4770      	bx	lr
	...

08001c80 <SysTick_Config>:
  \note    When the variable <b>__Vendor_SysTickConfig</b> is set to 1, then the
           function <b>SysTick_Config</b> is not included. In this case, the file <b><i>device</i>.h</b>
           must contain a vendor-specific implementation of this function.
 */
__STATIC_INLINE uint32_t SysTick_Config(uint32_t ticks)
{
 8001c80:	b580      	push	{r7, lr}
 8001c82:	b082      	sub	sp, #8
 8001c84:	af00      	add	r7, sp, #0
 8001c86:	6078      	str	r0, [r7, #4]
  if ((ticks - 1UL) > SysTick_LOAD_RELOAD_Msk)
 8001c88:	687b      	ldr	r3, [r7, #4]
 8001c8a:	3b01      	subs	r3, #1
 8001c8c:	f1b3 7f80 	cmp.w	r3, #16777216	@ 0x1000000
 8001c90:	d301      	bcc.n	8001c96 <SysTick_Config+0x16>
  {
    return (1UL);                                                   /* Reload value impossible */
 8001c92:	2301      	movs	r3, #1
 8001c94:	e00f      	b.n	8001cb6 <SysTick_Config+0x36>
  }

  SysTick->LOAD  = (uint32_t)(ticks - 1UL);                         /* set reload register */
 8001c96:	4a0a      	ldr	r2, [pc, #40]	@ (8001cc0 <SysTick_Config+0x40>)
 8001c98:	687b      	ldr	r3, [r7, #4]
 8001c9a:	3b01      	subs	r3, #1
 8001c9c:	6053      	str	r3, [r2, #4]
  NVIC_SetPriority (SysTick_IRQn, (1UL << __NVIC_PRIO_BITS) - 1UL); /* set Priority for Systick Interrupt */
 8001c9e:	210f      	movs	r1, #15
 8001ca0:	f04f 30ff 	mov.w	r0, #4294967295
 8001ca4:	f7ff ff8e 	bl	8001bc4 <__NVIC_SetPriority>
  SysTick->VAL   = 0UL;                                             /* Load the SysTick Counter Value */
 8001ca8:	4b05      	ldr	r3, [pc, #20]	@ (8001cc0 <SysTick_Config+0x40>)
 8001caa:	2200      	movs	r2, #0
 8001cac:	609a      	str	r2, [r3, #8]
  SysTick->CTRL  = SysTick_CTRL_CLKSOURCE_Msk |
 8001cae:	4b04      	ldr	r3, [pc, #16]	@ (8001cc0 <SysTick_Config+0x40>)
 8001cb0:	2207      	movs	r2, #7
 8001cb2:	601a      	str	r2, [r3, #0]
                   SysTick_CTRL_TICKINT_Msk   |
                   SysTick_CTRL_ENABLE_Msk;                         /* Enable SysTick IRQ and SysTick Timer */
  return (0UL);                                                     /* Function successful */
 8001cb4:	2300      	movs	r3, #0
}
 8001cb6:	4618      	mov	r0, r3
 8001cb8:	3708      	adds	r7, #8
 8001cba:	46bd      	mov	sp, r7
 8001cbc:	bd80      	pop	{r7, pc}
 8001cbe:	bf00      	nop
 8001cc0:	e000e010 	.word	0xe000e010

08001cc4 <HAL_NVIC_SetPriorityGrouping>:
  * @note   When the NVIC_PriorityGroup_0 is selected, IRQ preemption is no more possible. 
  *         The pending IRQ priority will be managed only by the subpriority. 
  * @retval None
  */
void HAL_NVIC_SetPriorityGrouping(uint32_t PriorityGroup)
{
 8001cc4:	b580      	push	{r7, lr}
 8001cc6:	b082      	sub	sp, #8
 8001cc8:	af00      	add	r7, sp, #0
 8001cca:	6078      	str	r0, [r7, #4]
  /* Check the parameters */
  assert_param(IS_NVIC_PRIORITY_GROUP(PriorityGroup));
  
  /* Set the PRIGROUP[10:8] bits according to the PriorityGroup parameter value */
  NVIC_SetPriorityGrouping(PriorityGroup);
 8001ccc:	6878      	ldr	r0, [r7, #4]
 8001cce:	f7ff ff29 	bl	8001b24 <__NVIC_SetPriorityGrouping>
}
 8001cd2:	bf00      	nop
 8001cd4:	3708      	adds	r7, #8
 8001cd6:	46bd      	mov	sp, r7
 8001cd8:	bd80      	pop	{r7, pc}

08001cda <HAL_NVIC_SetPriority>:
  *         This parameter can be a value between 0 and 15
  *         A lower priority value indicates a higher priority.          
  * @retval None
  */
void HAL_NVIC_SetPriority(IRQn_Type IRQn, uint32_t PreemptPriority, uint32_t SubPriority)
{ 
 8001cda:	b580      	push	{r7, lr}
 8001cdc:	b086      	sub	sp, #24
 8001cde:	af00      	add	r7, sp, #0
 8001ce0:	4603      	mov	r3, r0
 8001ce2:	60b9      	str	r1, [r7, #8]
 8001ce4:	607a      	str	r2, [r7, #4]
 8001ce6:	73fb      	strb	r3, [r7, #15]
  uint32_t prioritygroup = 0x00U;
 8001ce8:	2300      	movs	r3, #0
 8001cea:	617b      	str	r3, [r7, #20]
  
  /* Check the parameters */
  assert_param(IS_NVIC_SUB_PRIORITY(SubPriority));
  assert_param(IS_NVIC_PREEMPTION_PRIORITY(PreemptPriority));
  
  prioritygroup = NVIC_GetPriorityGrouping();
 8001cec:	f7ff ff3e 	bl	8001b6c <__NVIC_GetPriorityGrouping>
 8001cf0:	6178      	str	r0, [r7, #20]
  
  NVIC_SetPriority(IRQn, NVIC_EncodePriority(prioritygroup, PreemptPriority, SubPriority));
 8001cf2:	687a      	ldr	r2, [r7, #4]
 8001cf4:	68b9      	ldr	r1, [r7, #8]
 8001cf6:	6978      	ldr	r0, [r7, #20]
 8001cf8:	f7ff ff8e 	bl	8001c18 <NVIC_EncodePriority>
 8001cfc:	4602      	mov	r2, r0
 8001cfe:	f997 300f 	ldrsb.w	r3, [r7, #15]
 8001d02:	4611      	mov	r1, r2
 8001d04:	4618      	mov	r0, r3
 8001d06:	f7ff ff5d 	bl	8001bc4 <__NVIC_SetPriority>
}
 8001d0a:	bf00      	nop
 8001d0c:	3718      	adds	r7, #24
 8001d0e:	46bd      	mov	sp, r7
 8001d10:	bd80      	pop	{r7, pc}

08001d12 <HAL_NVIC_EnableIRQ>:
  *         This parameter can be an enumerator of IRQn_Type enumeration
  *         (For the complete STM32 Devices IRQ Channels list, please refer to the appropriate CMSIS device file (stm32f4xxxx.h))
  * @retval None
  */
void HAL_NVIC_EnableIRQ(IRQn_Type IRQn)
{
 8001d12:	b580      	push	{r7, lr}
 8001d14:	b082      	sub	sp, #8
 8001d16:	af00      	add	r7, sp, #0
 8001d18:	4603      	mov	r3, r0
 8001d1a:	71fb      	strb	r3, [r7, #7]
  /* Check the parameters */
  assert_param(IS_NVIC_DEVICE_IRQ(IRQn));
  
  /* Enable interrupt */
  NVIC_EnableIRQ(IRQn);
 8001d1c:	f997 3007 	ldrsb.w	r3, [r7, #7]
 8001d20:	4618      	mov	r0, r3
 8001d22:	f7ff ff31 	bl	8001b88 <__NVIC_EnableIRQ>
}
 8001d26:	bf00      	nop
 8001d28:	3708      	adds	r7, #8
 8001d2a:	46bd      	mov	sp, r7
 8001d2c:	bd80      	pop	{r7, pc}

08001d2e <HAL_SYSTICK_Config>:
  * @param  TicksNumb Specifies the ticks Number of ticks between two interrupts.
  * @retval status:  - 0  Function succeeded.
  *                  - 1  Function failed.
  */
uint32_t HAL_SYSTICK_Config(uint32_t TicksNumb)
{
 8001d2e:	b580      	push	{r7, lr}
 8001d30:	b082      	sub	sp, #8
 8001d32:	af00      	add	r7, sp, #0
 8001d34:	6078      	str	r0, [r7, #4]
   return SysTick_Config(TicksNumb);
 8001d36:	6878      	ldr	r0, [r7, #4]
 8001d38:	f7ff ffa2 	bl	8001c80 <SysTick_Config>
 8001d3c:	4603      	mov	r3, r0
}
 8001d3e:	4618      	mov	r0, r3
 8001d40:	3708      	adds	r7, #8
 8001d42:	46bd      	mov	sp, r7
 8001d44:	bd80      	pop	{r7, pc}
	...

08001d48 <HAL_DMA_Init>:
  * @param  hdma Pointer to a DMA_HandleTypeDef structure that contains
  *               the configuration information for the specified DMA Stream.  
  * @retval HAL status
  */
HAL_StatusTypeDef HAL_DMA_Init(DMA_HandleTypeDef *hdma)
{
 8001d48:	b580      	push	{r7, lr}
 8001d4a:	b086      	sub	sp, #24
 8001d4c:	af00      	add	r7, sp, #0
 8001d4e:	6078      	str	r0, [r7, #4]
  uint32_t tmp = 0U;
 8001d50:	2300      	movs	r3, #0
 8001d52:	617b      	str	r3, [r7, #20]
  uint32_t tickstart = HAL_GetTick();
 8001d54:	f7ff fac4 	bl	80012e0 <HAL_GetTick>
 8001d58:	6138      	str	r0, [r7, #16]
  DMA_Base_Registers *regs;

  /* Check the DMA peripheral state */
  if(hdma == NULL)
 8001d5a:	687b      	ldr	r3, [r7, #4]
 8001d5c:	2b00      	cmp	r3, #0
 8001d5e:	d101      	bne.n	8001d64 <HAL_DMA_Init+0x1c>
  {
    return HAL_ERROR;
 8001d60:	2301      	movs	r3, #1
 8001d62:	e099      	b.n	8001e98 <HAL_DMA_Init+0x150>
    assert_param(IS_DMA_MEMORY_BURST(hdma->Init.MemBurst));
    assert_param(IS_DMA_PERIPHERAL_BURST(hdma->Init.PeriphBurst));
  }

  /* Change DMA peripheral state */
  hdma->State = HAL_DMA_STATE_BUSY;
 8001d64:	687b      	ldr	r3, [r7, #4]
 8001d66:	2202      	movs	r2, #2
 8001d68:	f883 2035 	strb.w	r2, [r3, #53]	@ 0x35

  /* Allocate lock resource */
  __HAL_UNLOCK(hdma);
 8001d6c:	687b      	ldr	r3, [r7, #4]
 8001d6e:	2200      	movs	r2, #0
 8001d70:	f883 2034 	strb.w	r2, [r3, #52]	@ 0x34
  
  /* Disable the peripheral */
  __HAL_DMA_DISABLE(hdma);
 8001d74:	687b      	ldr	r3, [r7, #4]
 8001d76:	681b      	ldr	r3, [r3, #0]
 8001d78:	681a      	ldr	r2, [r3, #0]
 8001d7a:	687b      	ldr	r3, [r7, #4]
 8001d7c:	681b      	ldr	r3, [r3, #0]
 8001d7e:	f022 0201 	bic.w	r2, r2, #1
 8001d82:	601a      	str	r2, [r3, #0]
  
  /* Check if the DMA Stream is effectively disabled */
  while((hdma->Instance->CR & DMA_SxCR_EN) != RESET)
 8001d84:	e00f      	b.n	8001da6 <HAL_DMA_Init+0x5e>
  {
    /* Check for the Timeout */
    if((HAL_GetTick() - tickstart ) > HAL_TIMEOUT_DMA_ABORT)
 8001d86:	f7ff faab 	bl	80012e0 <HAL_GetTick>
 8001d8a:	4602      	mov	r2, r0
 8001d8c:	693b      	ldr	r3, [r7, #16]
 8001d8e:	1ad3      	subs	r3, r2, r3
 8001d90:	2b05      	cmp	r3, #5
 8001d92:	d908      	bls.n	8001da6 <HAL_DMA_Init+0x5e>
    {
      /* Update error code */
      hdma->ErrorCode = HAL_DMA_ERROR_TIMEOUT;
 8001d94:	687b      	ldr	r3, [r7, #4]
 8001d96:	2220      	movs	r2, #32
 8001d98:	655a      	str	r2, [r3, #84]	@ 0x54
      
      /* Change the DMA state */
      hdma->State = HAL_DMA_STATE_TIMEOUT;
 8001d9a:	687b      	ldr	r3, [r7, #4]
 8001d9c:	2203      	movs	r2, #3
 8001d9e:	f883 2035 	strb.w	r2, [r3, #53]	@ 0x35
      
      return HAL_TIMEOUT;
 8001da2:	2303      	movs	r3, #3
 8001da4:	e078      	b.n	8001e98 <HAL_DMA_Init+0x150>
  while((hdma->Instance->CR & DMA_SxCR_EN) != RESET)
 8001da6:	687b      	ldr	r3, [r7, #4]
 8001da8:	681b      	ldr	r3, [r3, #0]
 8001daa:	681b      	ldr	r3, [r3, #0]
 8001dac:	f003 0301 	and.w	r3, r3, #1
 8001db0:	2b00      	cmp	r3, #0
 8001db2:	d1e8      	bne.n	8001d86 <HAL_DMA_Init+0x3e>
    }
  }
  
  /* Get the CR register value */
  tmp = hdma->Instance->CR;
 8001db4:	687b      	ldr	r3, [r7, #4]
 8001db6:	681b      	ldr	r3, [r3, #0]
 8001db8:	681b      	ldr	r3, [r3, #0]
 8001dba:	617b      	str	r3, [r7, #20]

  /* Clear CHSEL, MBURST, PBURST, PL, MSIZE, PSIZE, MINC, PINC, CIRC, DIR, CT and DBM bits */
  tmp &= ((uint32_t)~(DMA_SxCR_CHSEL | DMA_SxCR_MBURST | DMA_SxCR_PBURST | \
 8001dbc:	697a      	ldr	r2, [r7, #20]
 8001dbe:	4b38      	ldr	r3, [pc, #224]	@ (8001ea0 <HAL_DMA_Init+0x158>)
 8001dc0:	4013      	ands	r3, r2
 8001dc2:	617b      	str	r3, [r7, #20]
                      DMA_SxCR_PL    | DMA_SxCR_MSIZE  | DMA_SxCR_PSIZE  | \
                      DMA_SxCR_MINC  | DMA_SxCR_PINC   | DMA_SxCR_CIRC   | \
                      DMA_SxCR_DIR   | DMA_SxCR_CT     | DMA_SxCR_DBM));

  /* Prepare the DMA Stream configuration */
  tmp |=  hdma->Init.Channel             | hdma->Init.Direction        |
 8001dc4:	687b      	ldr	r3, [r7, #4]
 8001dc6:	685a      	ldr	r2, [r3, #4]
 8001dc8:	687b      	ldr	r3, [r7, #4]
 8001dca:	689b      	ldr	r3, [r3, #8]
 8001dcc:	431a      	orrs	r2, r3
          hdma->Init.PeriphInc           | hdma->Init.MemInc           |
 8001dce:	687b      	ldr	r3, [r7, #4]
 8001dd0:	68db      	ldr	r3, [r3, #12]
  tmp |=  hdma->Init.Channel             | hdma->Init.Direction        |
 8001dd2:	431a      	orrs	r2, r3
          hdma->Init.PeriphInc           | hdma->Init.MemInc           |
 8001dd4:	687b      	ldr	r3, [r7, #4]
 8001dd6:	691b      	ldr	r3, [r3, #16]
 8001dd8:	431a      	orrs	r2, r3
          hdma->Init.PeriphDataAlignment | hdma->Init.MemDataAlignment |
 8001dda:	687b      	ldr	r3, [r7, #4]
 8001ddc:	695b      	ldr	r3, [r3, #20]
          hdma->Init.PeriphInc           | hdma->Init.MemInc           |
 8001dde:	431a      	orrs	r2, r3
          hdma->Init.PeriphDataAlignment | hdma->Init.MemDataAlignment |
 8001de0:	687b      	ldr	r3, [r7, #4]
 8001de2:	699b      	ldr	r3, [r3, #24]
 8001de4:	431a      	orrs	r2, r3
          hdma->Init.Mode                | hdma->Init.Priority;
 8001de6:	687b      	ldr	r3, [r7, #4]
 8001de8:	69db      	ldr	r3, [r3, #28]
          hdma->Init.PeriphDataAlignment | hdma->Init.MemDataAlignment |
 8001dea:	431a      	orrs	r2, r3
          hdma->Init.Mode                | hdma->Init.Priority;
 8001dec:	687b      	ldr	r3, [r7, #4]
 8001dee:	6a1b      	ldr	r3, [r3, #32]
 8001df0:	4313      	orrs	r3, r2
  tmp |=  hdma->Init.Channel             | hdma->Init.Direction        |
 8001df2:	697a      	ldr	r2, [r7, #20]
 8001df4:	4313      	orrs	r3, r2
 8001df6:	617b      	str	r3, [r7, #20]

  /* the Memory burst and peripheral burst are not used when the FIFO is disabled */
  if(hdma->Init.FIFOMode == DMA_FIFOMODE_ENABLE)
 8001df8:	687b      	ldr	r3, [r7, #4]
 8001dfa:	6a5b      	ldr	r3, [r3, #36]	@ 0x24
 8001dfc:	2b04      	cmp	r3, #4
 8001dfe:	d107      	bne.n	8001e10 <HAL_DMA_Init+0xc8>
  {
    /* Get memory burst and peripheral burst */
    tmp |=  hdma->Init.MemBurst | hdma->Init.PeriphBurst;
 8001e00:	687b      	ldr	r3, [r7, #4]
 8001e02:	6ada      	ldr	r2, [r3, #44]	@ 0x2c
 8001e04:	687b      	ldr	r3, [r7, #4]
 8001e06:	6b1b      	ldr	r3, [r3, #48]	@ 0x30
 8001e08:	4313      	orrs	r3, r2
 8001e0a:	697a      	ldr	r2, [r7, #20]
 8001e0c:	4313      	orrs	r3, r2
 8001e0e:	617b      	str	r3, [r7, #20]
  }
  
  /* Write to DMA Stream CR register */
  hdma->Instance->CR = tmp;  
 8001e10:	687b      	ldr	r3, [r7, #4]
 8001e12:	681b      	ldr	r3, [r3, #0]
 8001e14:	697a      	ldr	r2, [r7, #20]
 8001e16:	601a      	str	r2, [r3, #0]

  /* Get the FCR register value */
  tmp = hdma->Instance->FCR;
 8001e18:	687b      	ldr	r3, [r7, #4]
 8001e1a:	681b      	ldr	r3, [r3, #0]
 8001e1c:	695b      	ldr	r3, [r3, #20]
 8001e1e:	617b      	str	r3, [r7, #20]

  /* Clear Direct mode and FIFO threshold bits */
  tmp &= (uint32_t)~(DMA_SxFCR_DMDIS | DMA_SxFCR_FTH);
 8001e20:	697b      	ldr	r3, [r7, #20]
 8001e22:	f023 0307 	bic.w	r3, r3, #7
 8001e26:	617b      	str	r3, [r7, #20]

  /* Prepare the DMA Stream FIFO configuration */
  tmp |= hdma->Init.FIFOMode;
 8001e28:	687b      	ldr	r3, [r7, #4]
 8001e2a:	6a5b      	ldr	r3, [r3, #36]	@ 0x24
 8001e2c:	697a      	ldr	r2, [r7, #20]
 8001e2e:	4313      	orrs	r3, r2
 8001e30:	617b      	str	r3, [r7, #20]

  /* The FIFO threshold is not used when the FIFO mode is disabled */
  if(hdma->Init.FIFOMode == DMA_FIFOMODE_ENABLE)
 8001e32:	687b      	ldr	r3, [r7, #4]
 8001e34:	6a5b      	ldr	r3, [r3, #36]	@ 0x24
 8001e36:	2b04      	cmp	r3, #4
 8001e38:	d117      	bne.n	8001e6a <HAL_DMA_Init+0x122>
  {
    /* Get the FIFO threshold */
    tmp |= hdma->Init.FIFOThreshold;
 8001e3a:	687b      	ldr	r3, [r7, #4]
 8001e3c:	6a9b      	ldr	r3, [r3, #40]	@ 0x28
 8001e3e:	697a      	ldr	r2, [r7, #20]
 8001e40:	4313      	orrs	r3, r2
 8001e42:	617b      	str	r3, [r7, #20]
    
    /* Check compatibility between FIFO threshold level and size of the memory burst */
    /* for INCR4, INCR8, INCR16 bursts */
    if (hdma->Init.MemBurst != DMA_MBURST_SINGLE)
 8001e44:	687b      	ldr	r3, [r7, #4]
 8001e46:	6adb      	ldr	r3, [r3, #44]	@ 0x2c
 8001e48:	2b00      	cmp	r3, #0
 8001e4a:	d00e      	beq.n	8001e6a <HAL_DMA_Init+0x122>
    {
      if (DMA_CheckFifoParam(hdma) != HAL_OK)
 8001e4c:	6878      	ldr	r0, [r7, #4]
 8001e4e:	f000 fa6f 	bl	8002330 <DMA_CheckFifoParam>
 8001e52:	4603      	mov	r3, r0
 8001e54:	2b00      	cmp	r3, #0
 8001e56:	d008      	beq.n	8001e6a <HAL_DMA_Init+0x122>
      {
        /* Update error code */
        hdma->ErrorCode = HAL_DMA_ERROR_PARAM;
 8001e58:	687b      	ldr	r3, [r7, #4]
 8001e5a:	2240      	movs	r2, #64	@ 0x40
 8001e5c:	655a      	str	r2, [r3, #84]	@ 0x54
        
        /* Change the DMA state */
        hdma->State = HAL_DMA_STATE_READY;
 8001e5e:	687b      	ldr	r3, [r7, #4]
 8001e60:	2201      	movs	r2, #1
 8001e62:	f883 2035 	strb.w	r2, [r3, #53]	@ 0x35
        
        return HAL_ERROR; 
 8001e66:	2301      	movs	r3, #1
 8001e68:	e016      	b.n	8001e98 <HAL_DMA_Init+0x150>
      }
    }
  }
  
  /* Write to DMA Stream FCR */
  hdma->Instance->FCR = tmp;
 8001e6a:	687b      	ldr	r3, [r7, #4]
 8001e6c:	681b      	ldr	r3, [r3, #0]
 8001e6e:	697a      	ldr	r2, [r7, #20]
 8001e70:	615a      	str	r2, [r3, #20]

  /* Initialize StreamBaseAddress and StreamIndex parameters to be used to calculate
     DMA steam Base Address needed by HAL_DMA_IRQHandler() and HAL_DMA_PollForTransfer() */
  regs = (DMA_Base_Registers *)DMA_CalcBaseAndBitshift(hdma);
 8001e72:	6878      	ldr	r0, [r7, #4]
 8001e74:	f000 fa26 	bl	80022c4 <DMA_CalcBaseAndBitshift>
 8001e78:	4603      	mov	r3, r0
 8001e7a:	60fb      	str	r3, [r7, #12]
  
  /* Clear all interrupt flags */
  regs->IFCR = 0x3FU << hdma->StreamIndex;
 8001e7c:	687b      	ldr	r3, [r7, #4]
 8001e7e:	6ddb      	ldr	r3, [r3, #92]	@ 0x5c
 8001e80:	223f      	movs	r2, #63	@ 0x3f
 8001e82:	409a      	lsls	r2, r3
 8001e84:	68fb      	ldr	r3, [r7, #12]
 8001e86:	609a      	str	r2, [r3, #8]

  /* Initialize the error code */
  hdma->ErrorCode = HAL_DMA_ERROR_NONE;
 8001e88:	687b      	ldr	r3, [r7, #4]
 8001e8a:	2200      	movs	r2, #0
 8001e8c:	655a      	str	r2, [r3, #84]	@ 0x54
                                                                                     
  /* Initialize the DMA state */
  hdma->State = HAL_DMA_STATE_READY;
 8001e8e:	687b      	ldr	r3, [r7, #4]
 8001e90:	2201      	movs	r2, #1
 8001e92:	f883 2035 	strb.w	r2, [r3, #53]	@ 0x35

  return HAL_OK;
 8001e96:	2300      	movs	r3, #0
}
 8001e98:	4618      	mov	r0, r3
 8001e9a:	3718      	adds	r7, #24
 8001e9c:	46bd      	mov	sp, r7
 8001e9e:	bd80      	pop	{r7, pc}
 8001ea0:	f010803f 	.word	0xf010803f

08001ea4 <HAL_DMA_Start_IT>:
  * @param  DstAddress The destination memory Buffer address
  * @param  DataLength The length of data to be transferred from source to destination
  * @retval HAL status
  */
HAL_StatusTypeDef HAL_DMA_Start_IT(DMA_HandleTypeDef *hdma, uint32_t SrcAddress, uint32_t DstAddress, uint32_t DataLength)
{
 8001ea4:	b580      	push	{r7, lr}
 8001ea6:	b086      	sub	sp, #24
 8001ea8:	af00      	add	r7, sp, #0
 8001eaa:	60f8      	str	r0, [r7, #12]
 8001eac:	60b9      	str	r1, [r7, #8]
 8001eae:	607a      	str	r2, [r7, #4]
 8001eb0:	603b      	str	r3, [r7, #0]
  HAL_StatusTypeDef status = HAL_OK;
 8001eb2:	2300      	movs	r3, #0
 8001eb4:	75fb      	strb	r3, [r7, #23]

  /* calculate DMA base and stream number */
  DMA_Base_Registers *regs = (DMA_Base_Registers *)hdma->StreamBaseAddress;
 8001eb6:	68fb      	ldr	r3, [r7, #12]
 8001eb8:	6d9b      	ldr	r3, [r3, #88]	@ 0x58
 8001eba:	613b      	str	r3, [r7, #16]
  
  /* Check the parameters */
  assert_param(IS_DMA_BUFFER_SIZE(DataLength));
 
  /* Process locked */
  __HAL_LOCK(hdma);
 8001ebc:	68fb      	ldr	r3, [r7, #12]
 8001ebe:	f893 3034 	ldrb.w	r3, [r3, #52]	@ 0x34
 8001ec2:	2b01      	cmp	r3, #1
 8001ec4:	d101      	bne.n	8001eca <HAL_DMA_Start_IT+0x26>
 8001ec6:	2302      	movs	r3, #2
 8001ec8:	e040      	b.n	8001f4c <HAL_DMA_Start_IT+0xa8>
 8001eca:	68fb      	ldr	r3, [r7, #12]
 8001ecc:	2201      	movs	r2, #1
 8001ece:	f883 2034 	strb.w	r2, [r3, #52]	@ 0x34
  
  if(HAL_DMA_STATE_READY == hdma->State)
 8001ed2:	68fb      	ldr	r3, [r7, #12]
 8001ed4:	f893 3035 	ldrb.w	r3, [r3, #53]	@ 0x35
 8001ed8:	b2db      	uxtb	r3, r3
 8001eda:	2b01      	cmp	r3, #1
 8001edc:	d12f      	bne.n	8001f3e <HAL_DMA_Start_IT+0x9a>
  {
    /* Change DMA peripheral state */
    hdma->State = HAL_DMA_STATE_BUSY;
 8001ede:	68fb      	ldr	r3, [r7, #12]
 8001ee0:	2202      	movs	r2, #2
 8001ee2:	f883 2035 	strb.w	r2, [r3, #53]	@ 0x35
    
    /* Initialize the error code */
    hdma->ErrorCode = HAL_DMA_ERROR_NONE;
 8001ee6:	68fb      	ldr	r3, [r7, #12]
 8001ee8:	2200      	movs	r2, #0
 8001eea:	655a      	str	r2, [r3, #84]	@ 0x54
    
    /* Configure the source, destination address and the data length */
    DMA_SetConfig(hdma, SrcAddress, DstAddress, DataLength);
 8001eec:	683b      	ldr	r3, [r7, #0]
 8001eee:	687a      	ldr	r2, [r7, #4]
 8001ef0:	68b9      	ldr	r1, [r7, #8]
 8001ef2:	68f8      	ldr	r0, [r7, #12]
 8001ef4:	f000 f9b8 	bl	8002268 <DMA_SetConfig>
    
    /* Clear all interrupt flags at correct offset within the register */
    regs->IFCR = 0x3FU << hdma->StreamIndex;
 8001ef8:	68fb      	ldr	r3, [r7, #12]
 8001efa:	6ddb      	ldr	r3, [r3, #92]	@ 0x5c
 8001efc:	223f      	movs	r2, #63	@ 0x3f
 8001efe:	409a      	lsls	r2, r3
 8001f00:	693b      	ldr	r3, [r7, #16]
 8001f02:	609a      	str	r2, [r3, #8]
    
    /* Enable Common interrupts*/
    hdma->Instance->CR  |= DMA_IT_TC | DMA_IT_TE | DMA_IT_DME;
 8001f04:	68fb      	ldr	r3, [r7, #12]
 8001f06:	681b      	ldr	r3, [r3, #0]
 8001f08:	681a      	ldr	r2, [r3, #0]
 8001f0a:	68fb      	ldr	r3, [r7, #12]
 8001f0c:	681b      	ldr	r3, [r3, #0]
 8001f0e:	f042 0216 	orr.w	r2, r2, #22
 8001f12:	601a      	str	r2, [r3, #0]
    
    if(hdma->XferHalfCpltCallback != NULL)
 8001f14:	68fb      	ldr	r3, [r7, #12]
 8001f16:	6c1b      	ldr	r3, [r3, #64]	@ 0x40
 8001f18:	2b00      	cmp	r3, #0
 8001f1a:	d007      	beq.n	8001f2c <HAL_DMA_Start_IT+0x88>
    {
      hdma->Instance->CR  |= DMA_IT_HT;
 8001f1c:	68fb      	ldr	r3, [r7, #12]
 8001f1e:	681b      	ldr	r3, [r3, #0]
 8001f20:	681a      	ldr	r2, [r3, #0]
 8001f22:	68fb      	ldr	r3, [r7, #12]
 8001f24:	681b      	ldr	r3, [r3, #0]
 8001f26:	f042 0208 	orr.w	r2, r2, #8
 8001f2a:	601a      	str	r2, [r3, #0]
    }
    
    /* Enable the Peripheral */
    __HAL_DMA_ENABLE(hdma);
 8001f2c:	68fb      	ldr	r3, [r7, #12]
 8001f2e:	681b      	ldr	r3, [r3, #0]
 8001f30:	681a      	ldr	r2, [r3, #0]
 8001f32:	68fb      	ldr	r3, [r7, #12]
 8001f34:	681b      	ldr	r3, [r3, #0]
 8001f36:	f042 0201 	orr.w	r2, r2, #1
 8001f3a:	601a      	str	r2, [r3, #0]
 8001f3c:	e005      	b.n	8001f4a <HAL_DMA_Start_IT+0xa6>
  }
  else
  {
    /* Process unlocked */
    __HAL_UNLOCK(hdma);	  
 8001f3e:	68fb      	ldr	r3, [r7, #12]
 8001f40:	2200      	movs	r2, #0
 8001f42:	f883 2034 	strb.w	r2, [r3, #52]	@ 0x34
    
    /* Return error status */
    status = HAL_BUSY;
 8001f46:	2302      	movs	r3, #2
 8001f48:	75fb      	strb	r3, [r7, #23]
  }
  
  return status;
 8001f4a:	7dfb      	ldrb	r3, [r7, #23]
}
 8001f4c:	4618      	mov	r0, r3
 8001f4e:	3718      	adds	r7, #24
 8001f50:	46bd      	mov	sp, r7
 8001f52:	bd80      	pop	{r7, pc}

08001f54 <HAL_DMA_IRQHandler>:
  * @param  hdma pointer to a DMA_HandleTypeDef structure that contains
  *               the configuration information for the specified DMA Stream.  
  * @retval None
  */
void HAL_DMA_IRQHandler(DMA_HandleTypeDef *hdma)
{
 8001f54:	b580      	push	{r7, lr}
 8001f56:	b086      	sub	sp, #24
 8001f58:	af00      	add	r7, sp, #0
 8001f5a:	6078      	str	r0, [r7, #4]
  uint32_t tmpisr;
  __IO uint32_t count = 0U;
 8001f5c:	2300      	movs	r3, #0
 8001f5e:	60bb      	str	r3, [r7, #8]
  uint32_t timeout = SystemCoreClock / 9600U;
 8001f60:	4b8e      	ldr	r3, [pc, #568]	@ (800219c <HAL_DMA_IRQHandler+0x248>)
 8001f62:	681b      	ldr	r3, [r3, #0]
 8001f64:	4a8e      	ldr	r2, [pc, #568]	@ (80021a0 <HAL_DMA_IRQHandler+0x24c>)
 8001f66:	fba2 2303 	umull	r2, r3, r2, r3
 8001f6a:	0a9b      	lsrs	r3, r3, #10
 8001f6c:	617b      	str	r3, [r7, #20]

  /* calculate DMA base and stream number */
  DMA_Base_Registers *regs = (DMA_Base_Registers *)hdma->StreamBaseAddress;
 8001f6e:	687b      	ldr	r3, [r7, #4]
 8001f70:	6d9b      	ldr	r3, [r3, #88]	@ 0x58
 8001f72:	613b      	str	r3, [r7, #16]

  tmpisr = regs->ISR;
 8001f74:	693b      	ldr	r3, [r7, #16]
 8001f76:	681b      	ldr	r3, [r3, #0]
 8001f78:	60fb      	str	r3, [r7, #12]

  /* Transfer Error Interrupt management ***************************************/
  if ((tmpisr & (DMA_FLAG_TEIF0_4 << hdma->StreamIndex)) != RESET)
 8001f7a:	687b      	ldr	r3, [r7, #4]
 8001f7c:	6ddb      	ldr	r3, [r3, #92]	@ 0x5c
 8001f7e:	2208      	movs	r2, #8
 8001f80:	409a      	lsls	r2, r3
 8001f82:	68fb      	ldr	r3, [r7, #12]
 8001f84:	4013      	ands	r3, r2
 8001f86:	2b00      	cmp	r3, #0
 8001f88:	d01a      	beq.n	8001fc0 <HAL_DMA_IRQHandler+0x6c>
  {
    if(__HAL_DMA_GET_IT_SOURCE(hdma, DMA_IT_TE) != RESET)
 8001f8a:	687b      	ldr	r3, [r7, #4]
 8001f8c:	681b      	ldr	r3, [r3, #0]
 8001f8e:	681b      	ldr	r3, [r3, #0]
 8001f90:	f003 0304 	and.w	r3, r3, #4
 8001f94:	2b00      	cmp	r3, #0
 8001f96:	d013      	beq.n	8001fc0 <HAL_DMA_IRQHandler+0x6c>
    {
      /* Disable the transfer error interrupt */
      hdma->Instance->CR  &= ~(DMA_IT_TE);
 8001f98:	687b      	ldr	r3, [r7, #4]
 8001f9a:	681b      	ldr	r3, [r3, #0]
 8001f9c:	681a      	ldr	r2, [r3, #0]
 8001f9e:	687b      	ldr	r3, [r7, #4]
 8001fa0:	681b      	ldr	r3, [r3, #0]
 8001fa2:	f022 0204 	bic.w	r2, r2, #4
 8001fa6:	601a      	str	r2, [r3, #0]
      
      /* Clear the transfer error flag */
      regs->IFCR = DMA_FLAG_TEIF0_4 << hdma->StreamIndex;
 8001fa8:	687b      	ldr	r3, [r7, #4]
 8001faa:	6ddb      	ldr	r3, [r3, #92]	@ 0x5c
 8001fac:	2208      	movs	r2, #8
 8001fae:	409a      	lsls	r2, r3
 8001fb0:	693b      	ldr	r3, [r7, #16]
 8001fb2:	609a      	str	r2, [r3, #8]
      
      /* Update error code */
      hdma->ErrorCode |= HAL_DMA_ERROR_TE;
 8001fb4:	687b      	ldr	r3, [r7, #4]
 8001fb6:	6d5b      	ldr	r3, [r3, #84]	@ 0x54
 8001fb8:	f043 0201 	orr.w	r2, r3, #1
 8001fbc:	687b      	ldr	r3, [r7, #4]
 8001fbe:	655a      	str	r2, [r3, #84]	@ 0x54
    }
  }
  /* FIFO Error Interrupt management ******************************************/
  if ((tmpisr & (DMA_FLAG_FEIF0_4 << hdma->StreamIndex)) != RESET)
 8001fc0:	687b      	ldr	r3, [r7, #4]
 8001fc2:	6ddb      	ldr	r3, [r3, #92]	@ 0x5c
 8001fc4:	2201      	movs	r2, #1
 8001fc6:	409a      	lsls	r2, r3
 8001fc8:	68fb      	ldr	r3, [r7, #12]
 8001fca:	4013      	ands	r3, r2
 8001fcc:	2b00      	cmp	r3, #0
 8001fce:	d012      	beq.n	8001ff6 <HAL_DMA_IRQHandler+0xa2>
  {
    if(__HAL_DMA_GET_IT_SOURCE(hdma, DMA_IT_FE) != RESET)
 8001fd0:	687b      	ldr	r3, [r7, #4]
 8001fd2:	681b      	ldr	r3, [r3, #0]
 8001fd4:	695b      	ldr	r3, [r3, #20]
 8001fd6:	f003 0380 	and.w	r3, r3, #128	@ 0x80
 8001fda:	2b00      	cmp	r3, #0
 8001fdc:	d00b      	beq.n	8001ff6 <HAL_DMA_IRQHandler+0xa2>
    {
      /* Clear the FIFO error flag */
      regs->IFCR = DMA_FLAG_FEIF0_4 << hdma->StreamIndex;
 8001fde:	687b      	ldr	r3, [r7, #4]
 8001fe0:	6ddb      	ldr	r3, [r3, #92]	@ 0x5c
 8001fe2:	2201      	movs	r2, #1
 8001fe4:	409a      	lsls	r2, r3
 8001fe6:	693b      	ldr	r3, [r7, #16]
 8001fe8:	609a      	str	r2, [r3, #8]

      /* Update error code */
      hdma->ErrorCode |= HAL_DMA_ERROR_FE;
 8001fea:	687b      	ldr	r3, [r7, #4]
 8001fec:	6d5b      	ldr	r3, [r3, #84]	@ 0x54
 8001fee:	f043 0202 	orr.w	r2, r3, #2
 8001ff2:	687b      	ldr	r3, [r7, #4]
 8001ff4:	655a      	str	r2, [r3, #84]	@ 0x54
    }
  }
  /* Direct Mode Error Interrupt management ***********************************/
  if ((tmpisr & (DMA_FLAG_DMEIF0_4 << hdma->StreamIndex)) != RESET)
 8001ff6:	687b      	ldr	r3, [r7, #4]
 8001ff8:	6ddb      	ldr	r3, [r3, #92]	@ 0x5c
 8001ffa:	2204      	movs	r2, #4
 8001ffc:	409a      	lsls	r2, r3
 8001ffe:	68fb      	ldr	r3, [r7, #12]
 8002000:	4013      	ands	r3, r2
 8002002:	2b00      	cmp	r3, #0
 8002004:	d012      	beq.n	800202c <HAL_DMA_IRQHandler+0xd8>
  {
    if(__HAL_DMA_GET_IT_SOURCE(hdma, DMA_IT_DME) != RESET)
 8002006:	687b      	ldr	r3, [r7, #4]
 8002008:	681b      	ldr	r3, [r3, #0]
 800200a:	681b      	ldr	r3, [r3, #0]
 800200c:	f003 0302 	and.w	r3, r3, #2
 8002010:	2b00      	cmp	r3, #0
 8002012:	d00b      	beq.n	800202c <HAL_DMA_IRQHandler+0xd8>
    {
      /* Clear the direct mode error flag */
      regs->IFCR = DMA_FLAG_DMEIF0_4 << hdma->StreamIndex;
 8002014:	687b      	ldr	r3, [r7, #4]
 8002016:	6ddb      	ldr	r3, [r3, #92]	@ 0x5c
 8002018:	2204      	movs	r2, #4
 800201a:	409a      	lsls	r2, r3
 800201c:	693b      	ldr	r3, [r7, #16]
 800201e:	609a      	str	r2, [r3, #8]

      /* Update error code */
      hdma->ErrorCode |= HAL_DMA_ERROR_DME;
 8002020:	687b      	ldr	r3, [r7, #4]
 8002022:	6d5b      	ldr	r3, [r3, #84]	@ 0x54
 8002024:	f043 0204 	orr.w	r2, r3, #4
 8002028:	687b      	ldr	r3, [r7, #4]
 800202a:	655a      	str	r2, [r3, #84]	@ 0x54
    }
  }
  /* Half Transfer Complete Interrupt management ******************************/
  if ((tmpisr & (DMA_FLAG_HTIF0_4 << hdma->StreamIndex)) != RESET)
 800202c:	687b      	ldr	r3, [r7, #4]
 800202e:	6ddb      	ldr	r3, [r3, #92]	@ 0x5c
 8002030:	2210      	movs	r2, #16
 8002032:	409a      	lsls	r2, r3
 8002034:	68fb      	ldr	r3, [r7, #12]
 8002036:	4013      	ands	r3, r2
 8002038:	2b00      	cmp	r3, #0
 800203a:	d043      	beq.n	80020c4 <HAL_DMA_IRQHandler+0x170>
  {
    if(__HAL_DMA_GET_IT_SOURCE(hdma, DMA_IT_HT) != RESET)
 800203c:	687b      	ldr	r3, [r7, #4]
 800203e:	681b      	ldr	r3, [r3, #0]
 8002040:	681b      	ldr	r3, [r3, #0]
 8002042:	f003 0308 	and.w	r3, r3, #8
 8002046:	2b00      	cmp	r3, #0
 8002048:	d03c      	beq.n	80020c4 <HAL_DMA_IRQHandler+0x170>
    {
      /* Clear the half transfer complete flag */
      regs->IFCR = DMA_FLAG_HTIF0_4 << hdma->StreamIndex;
 800204a:	687b      	ldr	r3, [r7, #4]
 800204c:	6ddb      	ldr	r3, [r3, #92]	@ 0x5c
 800204e:	2210      	movs	r2, #16
 8002050:	409a      	lsls	r2, r3
 8002052:	693b      	ldr	r3, [r7, #16]
 8002054:	609a      	str	r2, [r3, #8]
      
      /* Multi_Buffering mode enabled */
      if(((hdma->Instance->CR) & (uint32_t)(DMA_SxCR_DBM)) != RESET)
 8002056:	687b      	ldr	r3, [r7, #4]
 8002058:	681b      	ldr	r3, [r3, #0]
 800205a:	681b      	ldr	r3, [r3, #0]
 800205c:	f403 2380 	and.w	r3, r3, #262144	@ 0x40000
 8002060:	2b00      	cmp	r3, #0
 8002062:	d018      	beq.n	8002096 <HAL_DMA_IRQHandler+0x142>
      {
        /* Current memory buffer used is Memory 0 */
        if((hdma->Instance->CR & DMA_SxCR_CT) == RESET)
 8002064:	687b      	ldr	r3, [r7, #4]
 8002066:	681b      	ldr	r3, [r3, #0]
 8002068:	681b      	ldr	r3, [r3, #0]
 800206a:	f403 2300 	and.w	r3, r3, #524288	@ 0x80000
 800206e:	2b00      	cmp	r3, #0
 8002070:	d108      	bne.n	8002084 <HAL_DMA_IRQHandler+0x130>
        {
          if(hdma->XferHalfCpltCallback != NULL)
 8002072:	687b      	ldr	r3, [r7, #4]
 8002074:	6c1b      	ldr	r3, [r3, #64]	@ 0x40
 8002076:	2b00      	cmp	r3, #0
 8002078:	d024      	beq.n	80020c4 <HAL_DMA_IRQHandler+0x170>
          {
            /* Half transfer callback */
            hdma->XferHalfCpltCallback(hdma);
 800207a:	687b      	ldr	r3, [r7, #4]
 800207c:	6c1b      	ldr	r3, [r3, #64]	@ 0x40
 800207e:	6878      	ldr	r0, [r7, #4]
 8002080:	4798      	blx	r3
 8002082:	e01f      	b.n	80020c4 <HAL_DMA_IRQHandler+0x170>
          }
        }
        /* Current memory buffer used is Memory 1 */
        else
        {
          if(hdma->XferM1HalfCpltCallback != NULL)
 8002084:	687b      	ldr	r3, [r7, #4]
 8002086:	6c9b      	ldr	r3, [r3, #72]	@ 0x48
 8002088:	2b00      	cmp	r3, #0
 800208a:	d01b      	beq.n	80020c4 <HAL_DMA_IRQHandler+0x170>
          {
            /* Half transfer callback */
            hdma->XferM1HalfCpltCallback(hdma);
 800208c:	687b      	ldr	r3, [r7, #4]
 800208e:	6c9b      	ldr	r3, [r3, #72]	@ 0x48
 8002090:	6878      	ldr	r0, [r7, #4]
 8002092:	4798      	blx	r3
 8002094:	e016      	b.n	80020c4 <HAL_DMA_IRQHandler+0x170>
        }
      }
      else
      {
        /* Disable the half transfer interrupt if the DMA mode is not CIRCULAR */
        if((hdma->Instance->CR & DMA_SxCR_CIRC) == RESET)
 8002096:	687b      	ldr	r3, [r7, #4]
 8002098:	681b      	ldr	r3, [r3, #0]
 800209a:	681b      	ldr	r3, [r3, #0]
 800209c:	f403 7380 	and.w	r3, r3, #256	@ 0x100
 80020a0:	2b00      	cmp	r3, #0
 80020a2:	d107      	bne.n	80020b4 <HAL_DMA_IRQHandler+0x160>
        {
          /* Disable the half transfer interrupt */
          hdma->Instance->CR  &= ~(DMA_IT_HT);
 80020a4:	687b      	ldr	r3, [r7, #4]
 80020a6:	681b      	ldr	r3, [r3, #0]
 80020a8:	681a      	ldr	r2, [r3, #0]
 80020aa:	687b      	ldr	r3, [r7, #4]
 80020ac:	681b      	ldr	r3, [r3, #0]
 80020ae:	f022 0208 	bic.w	r2, r2, #8
 80020b2:	601a      	str	r2, [r3, #0]
        }
        
        if(hdma->XferHalfCpltCallback != NULL)
 80020b4:	687b      	ldr	r3, [r7, #4]
 80020b6:	6c1b      	ldr	r3, [r3, #64]	@ 0x40
 80020b8:	2b00      	cmp	r3, #0
 80020ba:	d003      	beq.n	80020c4 <HAL_DMA_IRQHandler+0x170>
        {
          /* Half transfer callback */
          hdma->XferHalfCpltCallback(hdma);
 80020bc:	687b      	ldr	r3, [r7, #4]
 80020be:	6c1b      	ldr	r3, [r3, #64]	@ 0x40
 80020c0:	6878      	ldr	r0, [r7, #4]
 80020c2:	4798      	blx	r3
        }
      }
    }
  }
  /* Transfer Complete Interrupt management ***********************************/
  if ((tmpisr & (DMA_FLAG_TCIF0_4 << hdma->StreamIndex)) != RESET)
 80020c4:	687b      	ldr	r3, [r7, #4]
 80020c6:	6ddb      	ldr	r3, [r3, #92]	@ 0x5c
 80020c8:	2220      	movs	r2, #32
 80020ca:	409a      	lsls	r2, r3
 80020cc:	68fb      	ldr	r3, [r7, #12]
 80020ce:	4013      	ands	r3, r2
 80020d0:	2b00      	cmp	r3, #0
 80020d2:	f000 808f 	beq.w	80021f4 <HAL_DMA_IRQHandler+0x2a0>
  {
    if(__HAL_DMA_GET_IT_SOURCE(hdma, DMA_IT_TC) != RESET)
 80020d6:	687b      	ldr	r3, [r7, #4]
 80020d8:	681b      	ldr	r3, [r3, #0]
 80020da:	681b      	ldr	r3, [r3, #0]
 80020dc:	f003 0310 	and.w	r3, r3, #16
 80020e0:	2b00      	cmp	r3, #0
 80020e2:	f000 8087 	beq.w	80021f4 <HAL_DMA_IRQHandler+0x2a0>
    {
      /* Clear the transfer complete flag */
      regs->IFCR = DMA_FLAG_TCIF0_4 << hdma->StreamIndex;
 80020e6:	687b      	ldr	r3, [r7, #4]
 80020e8:	6ddb      	ldr	r3, [r3, #92]	@ 0x5c
 80020ea:	2220      	movs	r2, #32
 80020ec:	409a      	lsls	r2, r3
 80020ee:	693b      	ldr	r3, [r7, #16]
 80020f0:	609a      	str	r2, [r3, #8]
      
      if(HAL_DMA_STATE_ABORT == hdma->State)
 80020f2:	687b      	ldr	r3, [r7, #4]
 80020f4:	f893 3035 	ldrb.w	r3, [r3, #53]	@ 0x35
 80020f8:	b2db      	uxtb	r3, r3
 80020fa:	2b05      	cmp	r3, #5
 80020fc:	d136      	bne.n	800216c <HAL_DMA_IRQHandler+0x218>
      {
        /* Disable all the transfer interrupts */
        hdma->Instance->CR  &= ~(DMA_IT_TC | DMA_IT_TE | DMA_IT_DME);
 80020fe:	687b      	ldr	r3, [r7, #4]
 8002100:	681b      	ldr	r3, [r3, #0]
 8002102:	681a      	ldr	r2, [r3, #0]
 8002104:	687b      	ldr	r3, [r7, #4]
 8002106:	681b      	ldr	r3, [r3, #0]
 8002108:	f022 0216 	bic.w	r2, r2, #22
 800210c:	601a      	str	r2, [r3, #0]
        hdma->Instance->FCR &= ~(DMA_IT_FE);
 800210e:	687b      	ldr	r3, [r7, #4]
 8002110:	681b      	ldr	r3, [r3, #0]
 8002112:	695a      	ldr	r2, [r3, #20]
 8002114:	687b      	ldr	r3, [r7, #4]
 8002116:	681b      	ldr	r3, [r3, #0]
 8002118:	f022 0280 	bic.w	r2, r2, #128	@ 0x80
 800211c:	615a      	str	r2, [r3, #20]
        
        if((hdma->XferHalfCpltCallback != NULL) || (hdma->XferM1HalfCpltCallback != NULL))
 800211e:	687b      	ldr	r3, [r7, #4]
 8002120:	6c1b      	ldr	r3, [r3, #64]	@ 0x40
 8002122:	2b00      	cmp	r3, #0
 8002124:	d103      	bne.n	800212e <HAL_DMA_IRQHandler+0x1da>
 8002126:	687b      	ldr	r3, [r7, #4]
 8002128:	6c9b      	ldr	r3, [r3, #72]	@ 0x48
 800212a:	2b00      	cmp	r3, #0
 800212c:	d007      	beq.n	800213e <HAL_DMA_IRQHandler+0x1ea>
        {
          hdma->Instance->CR  &= ~(DMA_IT_HT);
 800212e:	687b      	ldr	r3, [r7, #4]
 8002130:	681b      	ldr	r3, [r3, #0]
 8002132:	681a      	ldr	r2, [r3, #0]
 8002134:	687b      	ldr	r3, [r7, #4]
 8002136:	681b      	ldr	r3, [r3, #0]
 8002138:	f022 0208 	bic.w	r2, r2, #8
 800213c:	601a      	str	r2, [r3, #0]
        }

        /* Clear all interrupt flags at correct offset within the register */
        regs->IFCR = 0x3FU << hdma->StreamIndex;
 800213e:	687b      	ldr	r3, [r7, #4]
 8002140:	6ddb      	ldr	r3, [r3, #92]	@ 0x5c
 8002142:	223f      	movs	r2, #63	@ 0x3f
 8002144:	409a      	lsls	r2, r3
 8002146:	693b      	ldr	r3, [r7, #16]
 8002148:	609a      	str	r2, [r3, #8]

        /* Change the DMA state */
        hdma->State = HAL_DMA_STATE_READY;
 800214a:	687b      	ldr	r3, [r7, #4]
 800214c:	2201      	movs	r2, #1
 800214e:	f883 2035 	strb.w	r2, [r3, #53]	@ 0x35

        /* Process Unlocked */
        __HAL_UNLOCK(hdma);
 8002152:	687b      	ldr	r3, [r7, #4]
 8002154:	2200      	movs	r2, #0
 8002156:	f883 2034 	strb.w	r2, [r3, #52]	@ 0x34

        if(hdma->XferAbortCallback != NULL)
 800215a:	687b      	ldr	r3, [r7, #4]
 800215c:	6d1b      	ldr	r3, [r3, #80]	@ 0x50
 800215e:	2b00      	cmp	r3, #0
 8002160:	d07e      	beq.n	8002260 <HAL_DMA_IRQHandler+0x30c>
        {
          hdma->XferAbortCallback(hdma);
 8002162:	687b      	ldr	r3, [r7, #4]
 8002164:	6d1b      	ldr	r3, [r3, #80]	@ 0x50
 8002166:	6878      	ldr	r0, [r7, #4]
 8002168:	4798      	blx	r3
        }
        return;
 800216a:	e079      	b.n	8002260 <HAL_DMA_IRQHandler+0x30c>
      }

      if(((hdma->Instance->CR) & (uint32_t)(DMA_SxCR_DBM)) != RESET)
 800216c:	687b      	ldr	r3, [r7, #4]
 800216e:	681b      	ldr	r3, [r3, #0]
 8002170:	681b      	ldr	r3, [r3, #0]
 8002172:	f403 2380 	and.w	r3, r3, #262144	@ 0x40000
 8002176:	2b00      	cmp	r3, #0
 8002178:	d01d      	beq.n	80021b6 <HAL_DMA_IRQHandler+0x262>
      {
        /* Current memory buffer used is Memory 0 */
        if((hdma->Instance->CR & DMA_SxCR_CT) == RESET)
 800217a:	687b      	ldr	r3, [r7, #4]
 800217c:	681b      	ldr	r3, [r3, #0]
 800217e:	681b      	ldr	r3, [r3, #0]
 8002180:	f403 2300 	and.w	r3, r3, #524288	@ 0x80000
 8002184:	2b00      	cmp	r3, #0
 8002186:	d10d      	bne.n	80021a4 <HAL_DMA_IRQHandler+0x250>
        {
          if(hdma->XferM1CpltCallback != NULL)
 8002188:	687b      	ldr	r3, [r7, #4]
 800218a:	6c5b      	ldr	r3, [r3, #68]	@ 0x44
 800218c:	2b00      	cmp	r3, #0
 800218e:	d031      	beq.n	80021f4 <HAL_DMA_IRQHandler+0x2a0>
          {
            /* Transfer complete Callback for memory1 */
            hdma->XferM1CpltCallback(hdma);
 8002190:	687b      	ldr	r3, [r7, #4]
 8002192:	6c5b      	ldr	r3, [r3, #68]	@ 0x44
 8002194:	6878      	ldr	r0, [r7, #4]
 8002196:	4798      	blx	r3
 8002198:	e02c      	b.n	80021f4 <HAL_DMA_IRQHandler+0x2a0>
 800219a:	bf00      	nop
 800219c:	20000000 	.word	0x20000000
 80021a0:	1b4e81b5 	.word	0x1b4e81b5
          }
        }
        /* Current memory buffer used is Memory 1 */
        else
        {
          if(hdma->XferCpltCallback != NULL)
 80021a4:	687b      	ldr	r3, [r7, #4]
 80021a6:	6bdb      	ldr	r3, [r3, #60]	@ 0x3c
 80021a8:	2b00      	cmp	r3, #0
 80021aa:	d023      	beq.n	80021f4 <HAL_DMA_IRQHandler+0x2a0>
          {
            /* Transfer complete Callback for memory0 */
            hdma->XferCpltCallback(hdma);
 80021ac:	687b      	ldr	r3, [r7, #4]
 80021ae:	6bdb      	ldr	r3, [r3, #60]	@ 0x3c
 80021b0:	6878      	ldr	r0, [r7, #4]
 80021b2:	4798      	blx	r3
 80021b4:	e01e      	b.n	80021f4 <HAL_DMA_IRQHandler+0x2a0>
        }
      }
      /* Disable the transfer complete interrupt if the DMA mode is not CIRCULAR */
      else
      {
        if((hdma->Instance->CR & DMA_SxCR_CIRC) == RESET)
 80021b6:	687b      	ldr	r3, [r7, #4]
 80021b8:	681b      	ldr	r3, [r3, #0]
 80021ba:	681b      	ldr	r3, [r3, #0]
 80021bc:	f403 7380 	and.w	r3, r3, #256	@ 0x100
 80021c0:	2b00      	cmp	r3, #0
 80021c2:	d10f      	bne.n	80021e4 <HAL_DMA_IRQHandler+0x290>
        {
          /* Disable the transfer complete interrupt */
          hdma->Instance->CR  &= ~(DMA_IT_TC);
 80021c4:	687b      	ldr	r3, [r7, #4]
 80021c6:	681b      	ldr	r3, [r3, #0]
 80021c8:	681a      	ldr	r2, [r3, #0]
 80021ca:	687b      	ldr	r3, [r7, #4]
 80021cc:	681b      	ldr	r3, [r3, #0]
 80021ce:	f022 0210 	bic.w	r2, r2, #16
 80021d2:	601a      	str	r2, [r3, #0]

          /* Change the DMA state */
          hdma->State = HAL_DMA_STATE_READY;
 80021d4:	687b      	ldr	r3, [r7, #4]
 80021d6:	2201      	movs	r2, #1
 80021d8:	f883 2035 	strb.w	r2, [r3, #53]	@ 0x35

          /* Process Unlocked */
          __HAL_UNLOCK(hdma);
 80021dc:	687b      	ldr	r3, [r7, #4]
 80021de:	2200      	movs	r2, #0
 80021e0:	f883 2034 	strb.w	r2, [r3, #52]	@ 0x34
        }

        if(hdma->XferCpltCallback != NULL)
 80021e4:	687b      	ldr	r3, [r7, #4]
 80021e6:	6bdb      	ldr	r3, [r3, #60]	@ 0x3c
 80021e8:	2b00      	cmp	r3, #0
 80021ea:	d003      	beq.n	80021f4 <HAL_DMA_IRQHandler+0x2a0>
        {
          /* Transfer complete callback */
          hdma->XferCpltCallback(hdma);
 80021ec:	687b      	ldr	r3, [r7, #4]
 80021ee:	6bdb      	ldr	r3, [r3, #60]	@ 0x3c
 80021f0:	6878      	ldr	r0, [r7, #4]
 80021f2:	4798      	blx	r3
      }
    }
  }
  
  /* manage error case */
  if(hdma->ErrorCode != HAL_DMA_ERROR_NONE)
 80021f4:	687b      	ldr	r3, [r7, #4]
 80021f6:	6d5b      	ldr	r3, [r3, #84]	@ 0x54
 80021f8:	2b00      	cmp	r3, #0
 80021fa:	d032      	beq.n	8002262 <HAL_DMA_IRQHandler+0x30e>
  {
    if((hdma->ErrorCode & HAL_DMA_ERROR_TE) != RESET)
 80021fc:	687b      	ldr	r3, [r7, #4]
 80021fe:	6d5b      	ldr	r3, [r3, #84]	@ 0x54
 8002200:	f003 0301 	and.w	r3, r3, #1
 8002204:	2b00      	cmp	r3, #0
 8002206:	d022      	beq.n	800224e <HAL_DMA_IRQHandler+0x2fa>
    {
      hdma->State = HAL_DMA_STATE_ABORT;
 8002208:	687b      	ldr	r3, [r7, #4]
 800220a:	2205      	movs	r2, #5
 800220c:	f883 2035 	strb.w	r2, [r3, #53]	@ 0x35

      /* Disable the stream */
      __HAL_DMA_DISABLE(hdma);
 8002210:	687b      	ldr	r3, [r7, #4]
 8002212:	681b      	ldr	r3, [r3, #0]
 8002214:	681a      	ldr	r2, [r3, #0]
 8002216:	687b      	ldr	r3, [r7, #4]
 8002218:	681b      	ldr	r3, [r3, #0]
 800221a:	f022 0201 	bic.w	r2, r2, #1
 800221e:	601a      	str	r2, [r3, #0]

      do
      {
        if (++count > timeout)
 8002220:	68bb      	ldr	r3, [r7, #8]
 8002222:	3301      	adds	r3, #1
 8002224:	60bb      	str	r3, [r7, #8]
 8002226:	697a      	ldr	r2, [r7, #20]
 8002228:	429a      	cmp	r2, r3
 800222a:	d307      	bcc.n	800223c <HAL_DMA_IRQHandler+0x2e8>
        {
          break;
        }
      }
      while((hdma->Instance->CR & DMA_SxCR_EN) != RESET);
 800222c:	687b      	ldr	r3, [r7, #4]
 800222e:	681b      	ldr	r3, [r3, #0]
 8002230:	681b      	ldr	r3, [r3, #0]
 8002232:	f003 0301 	and.w	r3, r3, #1
 8002236:	2b00      	cmp	r3, #0
 8002238:	d1f2      	bne.n	8002220 <HAL_DMA_IRQHandler+0x2cc>
 800223a:	e000      	b.n	800223e <HAL_DMA_IRQHandler+0x2ea>
          break;
 800223c:	bf00      	nop

      /* Change the DMA state */
      hdma->State = HAL_DMA_STATE_READY;
 800223e:	687b      	ldr	r3, [r7, #4]
 8002240:	2201      	movs	r2, #1
 8002242:	f883 2035 	strb.w	r2, [r3, #53]	@ 0x35

      /* Process Unlocked */
      __HAL_UNLOCK(hdma);
 8002246:	687b      	ldr	r3, [r7, #4]
 8002248:	2200      	movs	r2, #0
 800224a:	f883 2034 	strb.w	r2, [r3, #52]	@ 0x34
    }

    if(hdma->XferErrorCallback != NULL)
 800224e:	687b      	ldr	r3, [r7, #4]
 8002250:	6cdb      	ldr	r3, [r3, #76]	@ 0x4c
 8002252:	2b00      	cmp	r3, #0
 8002254:	d005      	beq.n	8002262 <HAL_DMA_IRQHandler+0x30e>
    {
      /* Transfer error callback */
      hdma->XferErrorCallback(hdma);
 8002256:	687b      	ldr	r3, [r7, #4]
 8002258:	6cdb      	ldr	r3, [r3, #76]	@ 0x4c
 800225a:	6878      	ldr	r0, [r7, #4]
 800225c:	4798      	blx	r3
 800225e:	e000      	b.n	8002262 <HAL_DMA_IRQHandler+0x30e>
        return;
 8002260:	bf00      	nop
    }
  }
}
 8002262:	3718      	adds	r7, #24
 8002264:	46bd      	mov	sp, r7
 8002266:	bd80      	pop	{r7, pc}

08002268 <DMA_SetConfig>:
  * @param  DstAddress The destination memory Buffer address
  * @param  DataLength The length of data to be transferred from source to destination
  * @retval HAL status
  */
static void DMA_SetConfig(DMA_HandleTypeDef *hdma, uint32_t SrcAddress, uint32_t DstAddress, uint32_t DataLength)
{
 8002268:	b480      	push	{r7}
 800226a:	b085      	sub	sp, #20
 800226c:	af00      	add	r7, sp, #0
 800226e:	60f8      	str	r0, [r7, #12]
 8002270:	60b9      	str	r1, [r7, #8]
 8002272:	607a      	str	r2, [r7, #4]
 8002274:	603b      	str	r3, [r7, #0]
  /* Clear DBM bit */
  hdma->Instance->CR &= (uint32_t)(~DMA_SxCR_DBM);
 8002276:	68fb      	ldr	r3, [r7, #12]
 8002278:	681b      	ldr	r3, [r3, #0]
 800227a:	681a      	ldr	r2, [r3, #0]
 800227c:	68fb      	ldr	r3, [r7, #12]
 800227e:	681b      	ldr	r3, [r3, #0]
 8002280:	f422 2280 	bic.w	r2, r2, #262144	@ 0x40000
 8002284:	601a      	str	r2, [r3, #0]

  /* Configure DMA Stream data length */
  hdma->Instance->NDTR = DataLength;
 8002286:	68fb      	ldr	r3, [r7, #12]
 8002288:	681b      	ldr	r3, [r3, #0]
 800228a:	683a      	ldr	r2, [r7, #0]
 800228c:	605a      	str	r2, [r3, #4]

  /* Memory to Peripheral */
  if((hdma->Init.Direction) == DMA_MEMORY_TO_PERIPH)
 800228e:	68fb      	ldr	r3, [r7, #12]
 8002290:	689b      	ldr	r3, [r3, #8]
 8002292:	2b40      	cmp	r3, #64	@ 0x40
 8002294:	d108      	bne.n	80022a8 <DMA_SetConfig+0x40>
  {
    /* Configure DMA Stream destination address */
    hdma->Instance->PAR = DstAddress;
 8002296:	68fb      	ldr	r3, [r7, #12]
 8002298:	681b      	ldr	r3, [r3, #0]
 800229a:	687a      	ldr	r2, [r7, #4]
 800229c:	609a      	str	r2, [r3, #8]

    /* Configure DMA Stream source address */
    hdma->Instance->M0AR = SrcAddress;
 800229e:	68fb      	ldr	r3, [r7, #12]
 80022a0:	681b      	ldr	r3, [r3, #0]
 80022a2:	68ba      	ldr	r2, [r7, #8]
 80022a4:	60da      	str	r2, [r3, #12]
    hdma->Instance->PAR = SrcAddress;

    /* Configure DMA Stream destination address */
    hdma->Instance->M0AR = DstAddress;
  }
}
 80022a6:	e007      	b.n	80022b8 <DMA_SetConfig+0x50>
    hdma->Instance->PAR = SrcAddress;
 80022a8:	68fb      	ldr	r3, [r7, #12]
 80022aa:	681b      	ldr	r3, [r3, #0]
 80022ac:	68ba      	ldr	r2, [r7, #8]
 80022ae:	609a      	str	r2, [r3, #8]
    hdma->Instance->M0AR = DstAddress;
 80022b0:	68fb      	ldr	r3, [r7, #12]
 80022b2:	681b      	ldr	r3, [r3, #0]
 80022b4:	687a      	ldr	r2, [r7, #4]
 80022b6:	60da      	str	r2, [r3, #12]
}
 80022b8:	bf00      	nop
 80022ba:	3714      	adds	r7, #20
 80022bc:	46bd      	mov	sp, r7
 80022be:	f85d 7b04 	ldr.w	r7, [sp], #4
 80022c2:	4770      	bx	lr

080022c4 <DMA_CalcBaseAndBitshift>:
  * @param  hdma       pointer to a DMA_HandleTypeDef structure that contains
  *                     the configuration information for the specified DMA Stream. 
  * @retval Stream base address
  */
static uint32_t DMA_CalcBaseAndBitshift(DMA_HandleTypeDef *hdma)
{
 80022c4:	b480      	push	{r7}
 80022c6:	b085      	sub	sp, #20
 80022c8:	af00      	add	r7, sp, #0
 80022ca:	6078      	str	r0, [r7, #4]
  uint32_t stream_number = (((uint32_t)hdma->Instance & 0xFFU) - 16U) / 24U;
 80022cc:	687b      	ldr	r3, [r7, #4]
 80022ce:	681b      	ldr	r3, [r3, #0]
 80022d0:	b2db      	uxtb	r3, r3
 80022d2:	3b10      	subs	r3, #16
 80022d4:	4a14      	ldr	r2, [pc, #80]	@ (8002328 <DMA_CalcBaseAndBitshift+0x64>)
 80022d6:	fba2 2303 	umull	r2, r3, r2, r3
 80022da:	091b      	lsrs	r3, r3, #4
 80022dc:	60fb      	str	r3, [r7, #12]
  
  /* lookup table for necessary bitshift of flags within status registers */
  static const uint8_t flagBitshiftOffset[8U] = {0U, 6U, 16U, 22U, 0U, 6U, 16U, 22U};
  hdma->StreamIndex = flagBitshiftOffset[stream_number];
 80022de:	4a13      	ldr	r2, [pc, #76]	@ (800232c <DMA_CalcBaseAndBitshift+0x68>)
 80022e0:	68fb      	ldr	r3, [r7, #12]
 80022e2:	4413      	add	r3, r2
 80022e4:	781b      	ldrb	r3, [r3, #0]
 80022e6:	461a      	mov	r2, r3
 80022e8:	687b      	ldr	r3, [r7, #4]
 80022ea:	65da      	str	r2, [r3, #92]	@ 0x5c
  
  if (stream_number > 3U)
 80022ec:	68fb      	ldr	r3, [r7, #12]
 80022ee:	2b03      	cmp	r3, #3
 80022f0:	d909      	bls.n	8002306 <DMA_CalcBaseAndBitshift+0x42>
  {
    /* return pointer to HISR and HIFCR */
    hdma->StreamBaseAddress = (((uint32_t)hdma->Instance & (uint32_t)(~0x3FFU)) + 4U);
 80022f2:	687b      	ldr	r3, [r7, #4]
 80022f4:	681b      	ldr	r3, [r3, #0]
 80022f6:	f423 737f 	bic.w	r3, r3, #1020	@ 0x3fc
 80022fa:	f023 0303 	bic.w	r3, r3, #3
 80022fe:	1d1a      	adds	r2, r3, #4
 8002300:	687b      	ldr	r3, [r7, #4]
 8002302:	659a      	str	r2, [r3, #88]	@ 0x58
 8002304:	e007      	b.n	8002316 <DMA_CalcBaseAndBitshift+0x52>
  }
  else
  {
    /* return pointer to LISR and LIFCR */
    hdma->StreamBaseAddress = ((uint32_t)hdma->Instance & (uint32_t)(~0x3FFU));
 8002306:	687b      	ldr	r3, [r7, #4]
 8002308:	681b      	ldr	r3, [r3, #0]
 800230a:	f423 737f 	bic.w	r3, r3, #1020	@ 0x3fc
 800230e:	f023 0303 	bic.w	r3, r3, #3
 8002312:	687a      	ldr	r2, [r7, #4]
 8002314:	6593      	str	r3, [r2, #88]	@ 0x58
  }
  
  return hdma->StreamBaseAddress;
 8002316:	687b      	ldr	r3, [r7, #4]
 8002318:	6d9b      	ldr	r3, [r3, #88]	@ 0x58
}
 800231a:	4618      	mov	r0, r3
 800231c:	3714      	adds	r7, #20
 800231e:	46bd      	mov	sp, r7
 8002320:	f85d 7b04 	ldr.w	r7, [sp], #4
 8002324:	4770      	bx	lr
 8002326:	bf00      	nop
 8002328:	aaaaaaab 	.word	0xaaaaaaab
 800232c:	080097a8 	.word	0x080097a8

08002330 <DMA_CheckFifoParam>:
  * @param  hdma       pointer to a DMA_HandleTypeDef structure that contains
  *                     the configuration information for the specified DMA Stream. 
  * @retval HAL status
  */
static HAL_StatusTypeDef DMA_CheckFifoParam(DMA_HandleTypeDef *hdma)
{
 8002330:	b480      	push	{r7}
 8002332:	b085      	sub	sp, #20
 8002334:	af00      	add	r7, sp, #0
 8002336:	6078      	str	r0, [r7, #4]
  HAL_StatusTypeDef status = HAL_OK;
 8002338:	2300      	movs	r3, #0
 800233a:	73fb      	strb	r3, [r7, #15]
  uint32_t tmp = hdma->Init.FIFOThreshold;
 800233c:	687b      	ldr	r3, [r7, #4]
 800233e:	6a9b      	ldr	r3, [r3, #40]	@ 0x28
 8002340:	60bb      	str	r3, [r7, #8]
  
  /* Memory Data size equal to Byte */
  if(hdma->Init.MemDataAlignment == DMA_MDATAALIGN_BYTE)
 8002342:	687b      	ldr	r3, [r7, #4]
 8002344:	699b      	ldr	r3, [r3, #24]
 8002346:	2b00      	cmp	r3, #0
 8002348:	d11f      	bne.n	800238a <DMA_CheckFifoParam+0x5a>
  {
    switch (tmp)
 800234a:	68bb      	ldr	r3, [r7, #8]
 800234c:	2b03      	cmp	r3, #3
 800234e:	d856      	bhi.n	80023fe <DMA_CheckFifoParam+0xce>
 8002350:	a201      	add	r2, pc, #4	@ (adr r2, 8002358 <DMA_CheckFifoParam+0x28>)
 8002352:	f852 f023 	ldr.w	pc, [r2, r3, lsl #2]
 8002356:	bf00      	nop
 8002358:	08002369 	.word	0x08002369
 800235c:	0800237b 	.word	0x0800237b
 8002360:	08002369 	.word	0x08002369
 8002364:	080023ff 	.word	0x080023ff
    {
    case DMA_FIFO_THRESHOLD_1QUARTERFULL:
    case DMA_FIFO_THRESHOLD_3QUARTERSFULL:
      if ((hdma->Init.MemBurst & DMA_SxCR_MBURST_1) == DMA_SxCR_MBURST_1)
 8002368:	687b      	ldr	r3, [r7, #4]
 800236a:	6adb      	ldr	r3, [r3, #44]	@ 0x2c
 800236c:	f003 7380 	and.w	r3, r3, #16777216	@ 0x1000000
 8002370:	2b00      	cmp	r3, #0
 8002372:	d046      	beq.n	8002402 <DMA_CheckFifoParam+0xd2>
      {
        status = HAL_ERROR;
 8002374:	2301      	movs	r3, #1
 8002376:	73fb      	strb	r3, [r7, #15]
      }
      break;
 8002378:	e043      	b.n	8002402 <DMA_CheckFifoParam+0xd2>
    case DMA_FIFO_THRESHOLD_HALFFULL:
      if (hdma->Init.MemBurst == DMA_MBURST_INC16)
 800237a:	687b      	ldr	r3, [r7, #4]
 800237c:	6adb      	ldr	r3, [r3, #44]	@ 0x2c
 800237e:	f1b3 7fc0 	cmp.w	r3, #25165824	@ 0x1800000
 8002382:	d140      	bne.n	8002406 <DMA_CheckFifoParam+0xd6>
      {
        status = HAL_ERROR;
 8002384:	2301      	movs	r3, #1
 8002386:	73fb      	strb	r3, [r7, #15]
      }
      break;
 8002388:	e03d      	b.n	8002406 <DMA_CheckFifoParam+0xd6>
      break;
    }
  }
  
  /* Memory Data size equal to Half-Word */
  else if (hdma->Init.MemDataAlignment == DMA_MDATAALIGN_HALFWORD)
 800238a:	687b      	ldr	r3, [r7, #4]
 800238c:	699b      	ldr	r3, [r3, #24]
 800238e:	f5b3 5f00 	cmp.w	r3, #8192	@ 0x2000
 8002392:	d121      	bne.n	80023d8 <DMA_CheckFifoParam+0xa8>
  {
    switch (tmp)
 8002394:	68bb      	ldr	r3, [r7, #8]
 8002396:	2b03      	cmp	r3, #3
 8002398:	d837      	bhi.n	800240a <DMA_CheckFifoParam+0xda>
 800239a:	a201      	add	r2, pc, #4	@ (adr r2, 80023a0 <DMA_CheckFifoParam+0x70>)
 800239c:	f852 f023 	ldr.w	pc, [r2, r3, lsl #2]
 80023a0:	080023b1 	.word	0x080023b1
 80023a4:	080023b7 	.word	0x080023b7
 80023a8:	080023b1 	.word	0x080023b1
 80023ac:	080023c9 	.word	0x080023c9
    {
    case DMA_FIFO_THRESHOLD_1QUARTERFULL:
    case DMA_FIFO_THRESHOLD_3QUARTERSFULL:
      status = HAL_ERROR;
 80023b0:	2301      	movs	r3, #1
 80023b2:	73fb      	strb	r3, [r7, #15]
      break;
 80023b4:	e030      	b.n	8002418 <DMA_CheckFifoParam+0xe8>
    case DMA_FIFO_THRESHOLD_HALFFULL:
      if ((hdma->Init.MemBurst & DMA_SxCR_MBURST_1) == DMA_SxCR_MBURST_1)
 80023b6:	687b      	ldr	r3, [r7, #4]
 80023b8:	6adb      	ldr	r3, [r3, #44]	@ 0x2c
 80023ba:	f003 7380 	and.w	r3, r3, #16777216	@ 0x1000000
 80023be:	2b00      	cmp	r3, #0
 80023c0:	d025      	beq.n	800240e <DMA_CheckFifoParam+0xde>
      {
        status = HAL_ERROR;
 80023c2:	2301      	movs	r3, #1
 80023c4:	73fb      	strb	r3, [r7, #15]
      }
      break;
 80023c6:	e022      	b.n	800240e <DMA_CheckFifoParam+0xde>
    case DMA_FIFO_THRESHOLD_FULL:
      if (hdma->Init.MemBurst == DMA_MBURST_INC16)
 80023c8:	687b      	ldr	r3, [r7, #4]
 80023ca:	6adb      	ldr	r3, [r3, #44]	@ 0x2c
 80023cc:	f1b3 7fc0 	cmp.w	r3, #25165824	@ 0x1800000
 80023d0:	d11f      	bne.n	8002412 <DMA_CheckFifoParam+0xe2>
      {
        status = HAL_ERROR;
 80023d2:	2301      	movs	r3, #1
 80023d4:	73fb      	strb	r3, [r7, #15]
      }
      break;   
 80023d6:	e01c      	b.n	8002412 <DMA_CheckFifoParam+0xe2>
  }
  
  /* Memory Data size equal to Word */
  else
  {
    switch (tmp)
 80023d8:	68bb      	ldr	r3, [r7, #8]
 80023da:	2b02      	cmp	r3, #2
 80023dc:	d903      	bls.n	80023e6 <DMA_CheckFifoParam+0xb6>
 80023de:	68bb      	ldr	r3, [r7, #8]
 80023e0:	2b03      	cmp	r3, #3
 80023e2:	d003      	beq.n	80023ec <DMA_CheckFifoParam+0xbc>
      {
        status = HAL_ERROR;
      }
      break;
    default:
      break;
 80023e4:	e018      	b.n	8002418 <DMA_CheckFifoParam+0xe8>
      status = HAL_ERROR;
 80023e6:	2301      	movs	r3, #1
 80023e8:	73fb      	strb	r3, [r7, #15]
      break;
 80023ea:	e015      	b.n	8002418 <DMA_CheckFifoParam+0xe8>
      if ((hdma->Init.MemBurst & DMA_SxCR_MBURST_1) == DMA_SxCR_MBURST_1)
 80023ec:	687b      	ldr	r3, [r7, #4]
 80023ee:	6adb      	ldr	r3, [r3, #44]	@ 0x2c
 80023f0:	f003 7380 	and.w	r3, r3, #16777216	@ 0x1000000
 80023f4:	2b00      	cmp	r3, #0
 80023f6:	d00e      	beq.n	8002416 <DMA_CheckFifoParam+0xe6>
        status = HAL_ERROR;
 80023f8:	2301      	movs	r3, #1
 80023fa:	73fb      	strb	r3, [r7, #15]
      break;
 80023fc:	e00b      	b.n	8002416 <DMA_CheckFifoParam+0xe6>
      break;
 80023fe:	bf00      	nop
 8002400:	e00a      	b.n	8002418 <DMA_CheckFifoParam+0xe8>
      break;
 8002402:	bf00      	nop
 8002404:	e008      	b.n	8002418 <DMA_CheckFifoParam+0xe8>
      break;
 8002406:	bf00      	nop
 8002408:	e006      	b.n	8002418 <DMA_CheckFifoParam+0xe8>
      break;
 800240a:	bf00      	nop
 800240c:	e004      	b.n	8002418 <DMA_CheckFifoParam+0xe8>
      break;
 800240e:	bf00      	nop
 8002410:	e002      	b.n	8002418 <DMA_CheckFifoParam+0xe8>
      break;   
 8002412:	bf00      	nop
 8002414:	e000      	b.n	8002418 <DMA_CheckFifoParam+0xe8>
      break;
 8002416:	bf00      	nop
    }
  } 
  
  return status; 
 8002418:	7bfb      	ldrb	r3, [r7, #15]
}
 800241a:	4618      	mov	r0, r3
 800241c:	3714      	adds	r7, #20
 800241e:	46bd      	mov	sp, r7
 8002420:	f85d 7b04 	ldr.w	r7, [sp], #4
 8002424:	4770      	bx	lr
 8002426:	bf00      	nop

08002428 <HAL_GPIO_Init>:
  * @param  GPIO_Init pointer to a GPIO_InitTypeDef structure that contains
  *         the configuration information for the specified GPIO peripheral.
  * @retval None
  */
void HAL_GPIO_Init(GPIO_TypeDef  *GPIOx, GPIO_InitTypeDef *GPIO_Init)
{
 8002428:	b480      	push	{r7}
 800242a:	b089      	sub	sp, #36	@ 0x24
 800242c:	af00      	add	r7, sp, #0
 800242e:	6078      	str	r0, [r7, #4]
 8002430:	6039      	str	r1, [r7, #0]
  uint32_t position;
  uint32_t ioposition = 0x00U;
 8002432:	2300      	movs	r3, #0
 8002434:	617b      	str	r3, [r7, #20]
  uint32_t iocurrent = 0x00U;
 8002436:	2300      	movs	r3, #0
 8002438:	613b      	str	r3, [r7, #16]
  uint32_t temp = 0x00U;
 800243a:	2300      	movs	r3, #0
 800243c:	61bb      	str	r3, [r7, #24]
  assert_param(IS_GPIO_ALL_INSTANCE(GPIOx));
  assert_param(IS_GPIO_PIN(GPIO_Init->Pin));
  assert_param(IS_GPIO_MODE(GPIO_Init->Mode));

  /* Configure the port pins */
  for(position = 0U; position < GPIO_NUMBER; position++)
 800243e:	2300      	movs	r3, #0
 8002440:	61fb      	str	r3, [r7, #28]
 8002442:	e159      	b.n	80026f8 <HAL_GPIO_Init+0x2d0>
  {
    /* Get the IO position */
    ioposition = 0x01U << position;
 8002444:	2201      	movs	r2, #1
 8002446:	69fb      	ldr	r3, [r7, #28]
 8002448:	fa02 f303 	lsl.w	r3, r2, r3
 800244c:	617b      	str	r3, [r7, #20]
    /* Get the current IO position */
    iocurrent = (uint32_t)(GPIO_Init->Pin) & ioposition;
 800244e:	683b      	ldr	r3, [r7, #0]
 8002450:	681b      	ldr	r3, [r3, #0]
 8002452:	697a      	ldr	r2, [r7, #20]
 8002454:	4013      	ands	r3, r2
 8002456:	613b      	str	r3, [r7, #16]

    if(iocurrent == ioposition)
 8002458:	693a      	ldr	r2, [r7, #16]
 800245a:	697b      	ldr	r3, [r7, #20]
 800245c:	429a      	cmp	r2, r3
 800245e:	f040 8148 	bne.w	80026f2 <HAL_GPIO_Init+0x2ca>
    {
      /*--------------------- GPIO Mode Configuration ------------------------*/
      /* In case of Output or Alternate function mode selection */
      if(((GPIO_Init->Mode & GPIO_MODE) == MODE_OUTPUT) || \
 8002462:	683b      	ldr	r3, [r7, #0]
 8002464:	685b      	ldr	r3, [r3, #4]
 8002466:	f003 0303 	and.w	r3, r3, #3
 800246a:	2b01      	cmp	r3, #1
 800246c:	d005      	beq.n	800247a <HAL_GPIO_Init+0x52>
          (GPIO_Init->Mode & GPIO_MODE) == MODE_AF)
 800246e:	683b      	ldr	r3, [r7, #0]
 8002470:	685b      	ldr	r3, [r3, #4]
 8002472:	f003 0303 	and.w	r3, r3, #3
      if(((GPIO_Init->Mode & GPIO_MODE) == MODE_OUTPUT) || \
 8002476:	2b02      	cmp	r3, #2
 8002478:	d130      	bne.n	80024dc <HAL_GPIO_Init+0xb4>
      {
        /* Check the Speed parameter */
        assert_param(IS_GPIO_SPEED(GPIO_Init->Speed));
        /* Configure the IO Speed */
        temp = GPIOx->OSPEEDR; 
 800247a:	687b      	ldr	r3, [r7, #4]
 800247c:	689b      	ldr	r3, [r3, #8]
 800247e:	61bb      	str	r3, [r7, #24]
        temp &= ~(GPIO_OSPEEDER_OSPEEDR0 << (position * 2U));
 8002480:	69fb      	ldr	r3, [r7, #28]
 8002482:	005b      	lsls	r3, r3, #1
 8002484:	2203      	movs	r2, #3
 8002486:	fa02 f303 	lsl.w	r3, r2, r3
 800248a:	43db      	mvns	r3, r3
 800248c:	69ba      	ldr	r2, [r7, #24]
 800248e:	4013      	ands	r3, r2
 8002490:	61bb      	str	r3, [r7, #24]
        temp |= (GPIO_Init->Speed << (position * 2U));
 8002492:	683b      	ldr	r3, [r7, #0]
 8002494:	68da      	ldr	r2, [r3, #12]
 8002496:	69fb      	ldr	r3, [r7, #28]
 8002498:	005b      	lsls	r3, r3, #1
 800249a:	fa02 f303 	lsl.w	r3, r2, r3
 800249e:	69ba      	ldr	r2, [r7, #24]
 80024a0:	4313      	orrs	r3, r2
 80024a2:	61bb      	str	r3, [r7, #24]
        GPIOx->OSPEEDR = temp;
 80024a4:	687b      	ldr	r3, [r7, #4]
 80024a6:	69ba      	ldr	r2, [r7, #24]
 80024a8:	609a      	str	r2, [r3, #8]

        /* Configure the IO Output Type */
        temp = GPIOx->OTYPER;
 80024aa:	687b      	ldr	r3, [r7, #4]
 80024ac:	685b      	ldr	r3, [r3, #4]
 80024ae:	61bb      	str	r3, [r7, #24]
        temp &= ~(GPIO_OTYPER_OT_0 << position) ;
 80024b0:	2201      	movs	r2, #1
 80024b2:	69fb      	ldr	r3, [r7, #28]
 80024b4:	fa02 f303 	lsl.w	r3, r2, r3
 80024b8:	43db      	mvns	r3, r3
 80024ba:	69ba      	ldr	r2, [r7, #24]
 80024bc:	4013      	ands	r3, r2
 80024be:	61bb      	str	r3, [r7, #24]
        temp |= (((GPIO_Init->Mode & OUTPUT_TYPE) >> OUTPUT_TYPE_Pos) << position);
 80024c0:	683b      	ldr	r3, [r7, #0]
 80024c2:	685b      	ldr	r3, [r3, #4]
 80024c4:	091b      	lsrs	r3, r3, #4
 80024c6:	f003 0201 	and.w	r2, r3, #1
 80024ca:	69fb      	ldr	r3, [r7, #28]
 80024cc:	fa02 f303 	lsl.w	r3, r2, r3
 80024d0:	69ba      	ldr	r2, [r7, #24]
 80024d2:	4313      	orrs	r3, r2
 80024d4:	61bb      	str	r3, [r7, #24]
        GPIOx->OTYPER = temp;
 80024d6:	687b      	ldr	r3, [r7, #4]
 80024d8:	69ba      	ldr	r2, [r7, #24]
 80024da:	605a      	str	r2, [r3, #4]
       }

      if((GPIO_Init->Mode & GPIO_MODE) != MODE_ANALOG)
 80024dc:	683b      	ldr	r3, [r7, #0]
 80024de:	685b      	ldr	r3, [r3, #4]
 80024e0:	f003 0303 	and.w	r3, r3, #3
 80024e4:	2b03      	cmp	r3, #3
 80024e6:	d017      	beq.n	8002518 <HAL_GPIO_Init+0xf0>
      {
        /* Check the parameters */
        assert_param(IS_GPIO_PULL(GPIO_Init->Pull));
        
        /* Activate the Pull-up or Pull down resistor for the current IO */
        temp = GPIOx->PUPDR;
 80024e8:	687b      	ldr	r3, [r7, #4]
 80024ea:	68db      	ldr	r3, [r3, #12]
 80024ec:	61bb      	str	r3, [r7, #24]
        temp &= ~(GPIO_PUPDR_PUPDR0 << (position * 2U));
 80024ee:	69fb      	ldr	r3, [r7, #28]
 80024f0:	005b      	lsls	r3, r3, #1
 80024f2:	2203      	movs	r2, #3
 80024f4:	fa02 f303 	lsl.w	r3, r2, r3
 80024f8:	43db      	mvns	r3, r3
 80024fa:	69ba      	ldr	r2, [r7, #24]
 80024fc:	4013      	ands	r3, r2
 80024fe:	61bb      	str	r3, [r7, #24]
        temp |= ((GPIO_Init->Pull) << (position * 2U));
 8002500:	683b      	ldr	r3, [r7, #0]
 8002502:	689a      	ldr	r2, [r3, #8]
 8002504:	69fb      	ldr	r3, [r7, #28]
 8002506:	005b      	lsls	r3, r3, #1
 8002508:	fa02 f303 	lsl.w	r3, r2, r3
 800250c:	69ba      	ldr	r2, [r7, #24]
 800250e:	4313      	orrs	r3, r2
 8002510:	61bb      	str	r3, [r7, #24]
        GPIOx->PUPDR = temp;
 8002512:	687b      	ldr	r3, [r7, #4]
 8002514:	69ba      	ldr	r2, [r7, #24]
 8002516:	60da      	str	r2, [r3, #12]
      }

      /* In case of Alternate function mode selection */
      if((GPIO_Init->Mode & GPIO_MODE) == MODE_AF)
 8002518:	683b      	ldr	r3, [r7, #0]
 800251a:	685b      	ldr	r3, [r3, #4]
 800251c:	f003 0303 	and.w	r3, r3, #3
 8002520:	2b02      	cmp	r3, #2
 8002522:	d123      	bne.n	800256c <HAL_GPIO_Init+0x144>
      {
        /* Check the Alternate function parameter */
        assert_param(IS_GPIO_AF(GPIO_Init->Alternate));
        /* Configure Alternate function mapped with the current IO */
        temp = GPIOx->AFR[position >> 3U];
 8002524:	69fb      	ldr	r3, [r7, #28]
 8002526:	08da      	lsrs	r2, r3, #3
 8002528:	687b      	ldr	r3, [r7, #4]
 800252a:	3208      	adds	r2, #8
 800252c:	f853 3022 	ldr.w	r3, [r3, r2, lsl #2]
 8002530:	61bb      	str	r3, [r7, #24]
        temp &= ~(0xFU << ((uint32_t)(position & 0x07U) * 4U)) ;
 8002532:	69fb      	ldr	r3, [r7, #28]
 8002534:	f003 0307 	and.w	r3, r3, #7
 8002538:	009b      	lsls	r3, r3, #2
 800253a:	220f      	movs	r2, #15
 800253c:	fa02 f303 	lsl.w	r3, r2, r3
 8002540:	43db      	mvns	r3, r3
 8002542:	69ba      	ldr	r2, [r7, #24]
 8002544:	4013      	ands	r3, r2
 8002546:	61bb      	str	r3, [r7, #24]
        temp |= ((uint32_t)(GPIO_Init->Alternate) << (((uint32_t)position & 0x07U) * 4U));
 8002548:	683b      	ldr	r3, [r7, #0]
 800254a:	691a      	ldr	r2, [r3, #16]
 800254c:	69fb      	ldr	r3, [r7, #28]
 800254e:	f003 0307 	and.w	r3, r3, #7
 8002552:	009b      	lsls	r3, r3, #2
 8002554:	fa02 f303 	lsl.w	r3, r2, r3
 8002558:	69ba      	ldr	r2, [r7, #24]
 800255a:	4313      	orrs	r3, r2
 800255c:	61bb      	str	r3, [r7, #24]
        GPIOx->AFR[position >> 3U] = temp;
 800255e:	69fb      	ldr	r3, [r7, #28]
 8002560:	08da      	lsrs	r2, r3, #3
 8002562:	687b      	ldr	r3, [r7, #4]
 8002564:	3208      	adds	r2, #8
 8002566:	69b9      	ldr	r1, [r7, #24]
 8002568:	f843 1022 	str.w	r1, [r3, r2, lsl #2]
      }

      /* Configure IO Direction mode (Input, Output, Alternate or Analog) */
      temp = GPIOx->MODER;
 800256c:	687b      	ldr	r3, [r7, #4]
 800256e:	681b      	ldr	r3, [r3, #0]
 8002570:	61bb      	str	r3, [r7, #24]
      temp &= ~(GPIO_MODER_MODER0 << (position * 2U));
 8002572:	69fb      	ldr	r3, [r7, #28]
 8002574:	005b      	lsls	r3, r3, #1
 8002576:	2203      	movs	r2, #3
 8002578:	fa02 f303 	lsl.w	r3, r2, r3
 800257c:	43db      	mvns	r3, r3
 800257e:	69ba      	ldr	r2, [r7, #24]
 8002580:	4013      	ands	r3, r2
 8002582:	61bb      	str	r3, [r7, #24]
      temp |= ((GPIO_Init->Mode & GPIO_MODE) << (position * 2U));
 8002584:	683b      	ldr	r3, [r7, #0]
 8002586:	685b      	ldr	r3, [r3, #4]
 8002588:	f003 0203 	and.w	r2, r3, #3
 800258c:	69fb      	ldr	r3, [r7, #28]
 800258e:	005b      	lsls	r3, r3, #1
 8002590:	fa02 f303 	lsl.w	r3, r2, r3
 8002594:	69ba      	ldr	r2, [r7, #24]
 8002596:	4313      	orrs	r3, r2
 8002598:	61bb      	str	r3, [r7, #24]
      GPIOx->MODER = temp;
 800259a:	687b      	ldr	r3, [r7, #4]
 800259c:	69ba      	ldr	r2, [r7, #24]
 800259e:	601a      	str	r2, [r3, #0]

      /*--------------------- EXTI Mode Configuration ------------------------*/
      /* Configure the External Interrupt or event for the current IO */
      if((GPIO_Init->Mode & EXTI_MODE) != 0x00U)
 80025a0:	683b      	ldr	r3, [r7, #0]
 80025a2:	685b      	ldr	r3, [r3, #4]
 80025a4:	f403 3340 	and.w	r3, r3, #196608	@ 0x30000
 80025a8:	2b00      	cmp	r3, #0
 80025aa:	f000 80a2 	beq.w	80026f2 <HAL_GPIO_Init+0x2ca>
      {
        /* Enable SYSCFG Clock */
        __HAL_RCC_SYSCFG_CLK_ENABLE();
 80025ae:	2300      	movs	r3, #0
 80025b0:	60fb      	str	r3, [r7, #12]
 80025b2:	4b57      	ldr	r3, [pc, #348]	@ (8002710 <HAL_GPIO_Init+0x2e8>)
 80025b4:	6c5b      	ldr	r3, [r3, #68]	@ 0x44
 80025b6:	4a56      	ldr	r2, [pc, #344]	@ (8002710 <HAL_GPIO_Init+0x2e8>)
 80025b8:	f443 4380 	orr.w	r3, r3, #16384	@ 0x4000
 80025bc:	6453      	str	r3, [r2, #68]	@ 0x44
 80025be:	4b54      	ldr	r3, [pc, #336]	@ (8002710 <HAL_GPIO_Init+0x2e8>)
 80025c0:	6c5b      	ldr	r3, [r3, #68]	@ 0x44
 80025c2:	f403 4380 	and.w	r3, r3, #16384	@ 0x4000
 80025c6:	60fb      	str	r3, [r7, #12]
 80025c8:	68fb      	ldr	r3, [r7, #12]

        temp = SYSCFG->EXTICR[position >> 2U];
 80025ca:	4a52      	ldr	r2, [pc, #328]	@ (8002714 <HAL_GPIO_Init+0x2ec>)
 80025cc:	69fb      	ldr	r3, [r7, #28]
 80025ce:	089b      	lsrs	r3, r3, #2
 80025d0:	3302      	adds	r3, #2
 80025d2:	f852 3023 	ldr.w	r3, [r2, r3, lsl #2]
 80025d6:	61bb      	str	r3, [r7, #24]
        temp &= ~(0x0FU << (4U * (position & 0x03U)));
 80025d8:	69fb      	ldr	r3, [r7, #28]
 80025da:	f003 0303 	and.w	r3, r3, #3
 80025de:	009b      	lsls	r3, r3, #2
 80025e0:	220f      	movs	r2, #15
 80025e2:	fa02 f303 	lsl.w	r3, r2, r3
 80025e6:	43db      	mvns	r3, r3
 80025e8:	69ba      	ldr	r2, [r7, #24]
 80025ea:	4013      	ands	r3, r2
 80025ec:	61bb      	str	r3, [r7, #24]
        temp |= ((uint32_t)(GPIO_GET_INDEX(GPIOx)) << (4U * (position & 0x03U)));
 80025ee:	687b      	ldr	r3, [r7, #4]
 80025f0:	4a49      	ldr	r2, [pc, #292]	@ (8002718 <HAL_GPIO_Init+0x2f0>)
 80025f2:	4293      	cmp	r3, r2
 80025f4:	d019      	beq.n	800262a <HAL_GPIO_Init+0x202>
 80025f6:	687b      	ldr	r3, [r7, #4]
 80025f8:	4a48      	ldr	r2, [pc, #288]	@ (800271c <HAL_GPIO_Init+0x2f4>)
 80025fa:	4293      	cmp	r3, r2
 80025fc:	d013      	beq.n	8002626 <HAL_GPIO_Init+0x1fe>
 80025fe:	687b      	ldr	r3, [r7, #4]
 8002600:	4a47      	ldr	r2, [pc, #284]	@ (8002720 <HAL_GPIO_Init+0x2f8>)
 8002602:	4293      	cmp	r3, r2
 8002604:	d00d      	beq.n	8002622 <HAL_GPIO_Init+0x1fa>
 8002606:	687b      	ldr	r3, [r7, #4]
 8002608:	4a46      	ldr	r2, [pc, #280]	@ (8002724 <HAL_GPIO_Init+0x2fc>)
 800260a:	4293      	cmp	r3, r2
 800260c:	d007      	beq.n	800261e <HAL_GPIO_Init+0x1f6>
 800260e:	687b      	ldr	r3, [r7, #4]
 8002610:	4a45      	ldr	r2, [pc, #276]	@ (8002728 <HAL_GPIO_Init+0x300>)
 8002612:	4293      	cmp	r3, r2
 8002614:	d101      	bne.n	800261a <HAL_GPIO_Init+0x1f2>
 8002616:	2304      	movs	r3, #4
 8002618:	e008      	b.n	800262c <HAL_GPIO_Init+0x204>
 800261a:	2307      	movs	r3, #7
 800261c:	e006      	b.n	800262c <HAL_GPIO_Init+0x204>
 800261e:	2303      	movs	r3, #3
 8002620:	e004      	b.n	800262c <HAL_GPIO_Init+0x204>
 8002622:	2302      	movs	r3, #2
 8002624:	e002      	b.n	800262c <HAL_GPIO_Init+0x204>
 8002626:	2301      	movs	r3, #1
 8002628:	e000      	b.n	800262c <HAL_GPIO_Init+0x204>
 800262a:	2300      	movs	r3, #0
 800262c:	69fa      	ldr	r2, [r7, #28]
 800262e:	f002 0203 	and.w	r2, r2, #3
 8002632:	0092      	lsls	r2, r2, #2
 8002634:	4093      	lsls	r3, r2
 8002636:	69ba      	ldr	r2, [r7, #24]
 8002638:	4313      	orrs	r3, r2
 800263a:	61bb      	str	r3, [r7, #24]
        SYSCFG->EXTICR[position >> 2U] = temp;
 800263c:	4935      	ldr	r1, [pc, #212]	@ (8002714 <HAL_GPIO_Init+0x2ec>)
 800263e:	69fb      	ldr	r3, [r7, #28]
 8002640:	089b      	lsrs	r3, r3, #2
 8002642:	3302      	adds	r3, #2
 8002644:	69ba      	ldr	r2, [r7, #24]
 8002646:	f841 2023 	str.w	r2, [r1, r3, lsl #2]

        /* Clear Rising Falling edge configuration */
        temp = EXTI->RTSR;
 800264a:	4b38      	ldr	r3, [pc, #224]	@ (800272c <HAL_GPIO_Init+0x304>)
 800264c:	689b      	ldr	r3, [r3, #8]
 800264e:	61bb      	str	r3, [r7, #24]
        temp &= ~((uint32_t)iocurrent);
 8002650:	693b      	ldr	r3, [r7, #16]
 8002652:	43db      	mvns	r3, r3
 8002654:	69ba      	ldr	r2, [r7, #24]
 8002656:	4013      	ands	r3, r2
 8002658:	61bb      	str	r3, [r7, #24]
        if((GPIO_Init->Mode & TRIGGER_RISING) != 0x00U)
 800265a:	683b      	ldr	r3, [r7, #0]
 800265c:	685b      	ldr	r3, [r3, #4]
 800265e:	f403 1380 	and.w	r3, r3, #1048576	@ 0x100000
 8002662:	2b00      	cmp	r3, #0
 8002664:	d003      	beq.n	800266e <HAL_GPIO_Init+0x246>
        {
          temp |= iocurrent;
 8002666:	69ba      	ldr	r2, [r7, #24]
 8002668:	693b      	ldr	r3, [r7, #16]
 800266a:	4313      	orrs	r3, r2
 800266c:	61bb      	str	r3, [r7, #24]
        }
        EXTI->RTSR = temp;
 800266e:	4a2f      	ldr	r2, [pc, #188]	@ (800272c <HAL_GPIO_Init+0x304>)
 8002670:	69bb      	ldr	r3, [r7, #24]
 8002672:	6093      	str	r3, [r2, #8]

        temp = EXTI->FTSR;
 8002674:	4b2d      	ldr	r3, [pc, #180]	@ (800272c <HAL_GPIO_Init+0x304>)
 8002676:	68db      	ldr	r3, [r3, #12]
 8002678:	61bb      	str	r3, [r7, #24]
        temp &= ~((uint32_t)iocurrent);
 800267a:	693b      	ldr	r3, [r7, #16]
 800267c:	43db      	mvns	r3, r3
 800267e:	69ba      	ldr	r2, [r7, #24]
 8002680:	4013      	ands	r3, r2
 8002682:	61bb      	str	r3, [r7, #24]
        if((GPIO_Init->Mode & TRIGGER_FALLING) != 0x00U)
 8002684:	683b      	ldr	r3, [r7, #0]
 8002686:	685b      	ldr	r3, [r3, #4]
 8002688:	f403 1300 	and.w	r3, r3, #2097152	@ 0x200000
 800268c:	2b00      	cmp	r3, #0
 800268e:	d003      	beq.n	8002698 <HAL_GPIO_Init+0x270>
        {
          temp |= iocurrent;
 8002690:	69ba      	ldr	r2, [r7, #24]
 8002692:	693b      	ldr	r3, [r7, #16]
 8002694:	4313      	orrs	r3, r2
 8002696:	61bb      	str	r3, [r7, #24]
        }
        EXTI->FTSR = temp;
 8002698:	4a24      	ldr	r2, [pc, #144]	@ (800272c <HAL_GPIO_Init+0x304>)
 800269a:	69bb      	ldr	r3, [r7, #24]
 800269c:	60d3      	str	r3, [r2, #12]

        temp = EXTI->EMR;
 800269e:	4b23      	ldr	r3, [pc, #140]	@ (800272c <HAL_GPIO_Init+0x304>)
 80026a0:	685b      	ldr	r3, [r3, #4]
 80026a2:	61bb      	str	r3, [r7, #24]
        temp &= ~((uint32_t)iocurrent);
 80026a4:	693b      	ldr	r3, [r7, #16]
 80026a6:	43db      	mvns	r3, r3
 80026a8:	69ba      	ldr	r2, [r7, #24]
 80026aa:	4013      	ands	r3, r2
 80026ac:	61bb      	str	r3, [r7, #24]
        if((GPIO_Init->Mode & EXTI_EVT) != 0x00U)
 80026ae:	683b      	ldr	r3, [r7, #0]
 80026b0:	685b      	ldr	r3, [r3, #4]
 80026b2:	f403 3300 	and.w	r3, r3, #131072	@ 0x20000
 80026b6:	2b00      	cmp	r3, #0
 80026b8:	d003      	beq.n	80026c2 <HAL_GPIO_Init+0x29a>
        {
          temp |= iocurrent;
 80026ba:	69ba      	ldr	r2, [r7, #24]
 80026bc:	693b      	ldr	r3, [r7, #16]
 80026be:	4313      	orrs	r3, r2
 80026c0:	61bb      	str	r3, [r7, #24]
        }
        EXTI->EMR = temp;
 80026c2:	4a1a      	ldr	r2, [pc, #104]	@ (800272c <HAL_GPIO_Init+0x304>)
 80026c4:	69bb      	ldr	r3, [r7, #24]
 80026c6:	6053      	str	r3, [r2, #4]

        /* Clear EXTI line configuration */
        temp = EXTI->IMR;
 80026c8:	4b18      	ldr	r3, [pc, #96]	@ (800272c <HAL_GPIO_Init+0x304>)
 80026ca:	681b      	ldr	r3, [r3, #0]
 80026cc:	61bb      	str	r3, [r7, #24]
        temp &= ~((uint32_t)iocurrent);
 80026ce:	693b      	ldr	r3, [r7, #16]
 80026d0:	43db      	mvns	r3, r3
 80026d2:	69ba      	ldr	r2, [r7, #24]
 80026d4:	4013      	ands	r3, r2
 80026d6:	61bb      	str	r3, [r7, #24]
        if((GPIO_Init->Mode & EXTI_IT) != 0x00U)
 80026d8:	683b      	ldr	r3, [r7, #0]
 80026da:	685b      	ldr	r3, [r3, #4]
 80026dc:	f403 3380 	and.w	r3, r3, #65536	@ 0x10000
 80026e0:	2b00      	cmp	r3, #0
 80026e2:	d003      	beq.n	80026ec <HAL_GPIO_Init+0x2c4>
        {
          temp |= iocurrent;
 80026e4:	69ba      	ldr	r2, [r7, #24]
 80026e6:	693b      	ldr	r3, [r7, #16]
 80026e8:	4313      	orrs	r3, r2
 80026ea:	61bb      	str	r3, [r7, #24]
        }
        EXTI->IMR = temp;
 80026ec:	4a0f      	ldr	r2, [pc, #60]	@ (800272c <HAL_GPIO_Init+0x304>)
 80026ee:	69bb      	ldr	r3, [r7, #24]
 80026f0:	6013      	str	r3, [r2, #0]
  for(position = 0U; position < GPIO_NUMBER; position++)
 80026f2:	69fb      	ldr	r3, [r7, #28]
 80026f4:	3301      	adds	r3, #1
 80026f6:	61fb      	str	r3, [r7, #28]
 80026f8:	69fb      	ldr	r3, [r7, #28]
 80026fa:	2b0f      	cmp	r3, #15
 80026fc:	f67f aea2 	bls.w	8002444 <HAL_GPIO_Init+0x1c>
      }
    }
  }
}
 8002700:	bf00      	nop
 8002702:	bf00      	nop
 8002704:	3724      	adds	r7, #36	@ 0x24
 8002706:	46bd      	mov	sp, r7
 8002708:	f85d 7b04 	ldr.w	r7, [sp], #4
 800270c:	4770      	bx	lr
 800270e:	bf00      	nop
 8002710:	40023800 	.word	0x40023800
 8002714:	40013800 	.word	0x40013800
 8002718:	40020000 	.word	0x40020000
 800271c:	40020400 	.word	0x40020400
 8002720:	40020800 	.word	0x40020800
 8002724:	40020c00 	.word	0x40020c00
 8002728:	40021000 	.word	0x40021000
 800272c:	40013c00 	.word	0x40013c00

08002730 <HAL_GPIO_WritePin>:
  *            @arg GPIO_PIN_RESET: to clear the port pin
  *            @arg GPIO_PIN_SET: to set the port pin
  * @retval None
  */
void HAL_GPIO_WritePin(GPIO_TypeDef* GPIOx, uint16_t GPIO_Pin, GPIO_PinState PinState)
{
 8002730:	b480      	push	{r7}
 8002732:	b083      	sub	sp, #12
 8002734:	af00      	add	r7, sp, #0
 8002736:	6078      	str	r0, [r7, #4]
 8002738:	460b      	mov	r3, r1
 800273a:	807b      	strh	r3, [r7, #2]
 800273c:	4613      	mov	r3, r2
 800273e:	707b      	strb	r3, [r7, #1]
  /* Check the parameters */
  assert_param(IS_GPIO_PIN(GPIO_Pin));
  assert_param(IS_GPIO_PIN_ACTION(PinState));

  if(PinState != GPIO_PIN_RESET)
 8002740:	787b      	ldrb	r3, [r7, #1]
 8002742:	2b00      	cmp	r3, #0
 8002744:	d003      	beq.n	800274e <HAL_GPIO_WritePin+0x1e>
  {
    GPIOx->BSRR = GPIO_Pin;
 8002746:	887a      	ldrh	r2, [r7, #2]
 8002748:	687b      	ldr	r3, [r7, #4]
 800274a:	619a      	str	r2, [r3, #24]
  }
  else
  {
    GPIOx->BSRR = (uint32_t)GPIO_Pin << 16U;
  }
}
 800274c:	e003      	b.n	8002756 <HAL_GPIO_WritePin+0x26>
    GPIOx->BSRR = (uint32_t)GPIO_Pin << 16U;
 800274e:	887b      	ldrh	r3, [r7, #2]
 8002750:	041a      	lsls	r2, r3, #16
 8002752:	687b      	ldr	r3, [r7, #4]
 8002754:	619a      	str	r2, [r3, #24]
}
 8002756:	bf00      	nop
 8002758:	370c      	adds	r7, #12
 800275a:	46bd      	mov	sp, r7
 800275c:	f85d 7b04 	ldr.w	r7, [sp], #4
 8002760:	4770      	bx	lr
	...

08002764 <HAL_I2C_Init>:
  * @param  hi2c Pointer to a I2C_HandleTypeDef structure that contains
  *                the configuration information for the specified I2C.
  * @retval HAL status
  */
HAL_StatusTypeDef HAL_I2C_Init(I2C_HandleTypeDef *hi2c)
{
 8002764:	b580      	push	{r7, lr}
 8002766:	b084      	sub	sp, #16
 8002768:	af00      	add	r7, sp, #0
 800276a:	6078      	str	r0, [r7, #4]
  uint32_t freqrange;
  uint32_t pclk1;

  /* Check the I2C handle allocation */
  if (hi2c == NULL)
 800276c:	687b      	ldr	r3, [r7, #4]
 800276e:	2b00      	cmp	r3, #0
 8002770:	d101      	bne.n	8002776 <HAL_I2C_Init+0x12>
  {
    return HAL_ERROR;
 8002772:	2301      	movs	r3, #1
 8002774:	e12b      	b.n	80029ce <HAL_I2C_Init+0x26a>
  assert_param(IS_I2C_DUAL_ADDRESS(hi2c->Init.DualAddressMode));
  assert_param(IS_I2C_OWN_ADDRESS2(hi2c->Init.OwnAddress2));
  assert_param(IS_I2C_GENERAL_CALL(hi2c->Init.GeneralCallMode));
  assert_param(IS_I2C_NO_STRETCH(hi2c->Init.NoStretchMode));

  if (hi2c->State == HAL_I2C_STATE_RESET)
 8002776:	687b      	ldr	r3, [r7, #4]
 8002778:	f893 303d 	ldrb.w	r3, [r3, #61]	@ 0x3d
 800277c:	b2db      	uxtb	r3, r3
 800277e:	2b00      	cmp	r3, #0
 8002780:	d106      	bne.n	8002790 <HAL_I2C_Init+0x2c>
  {
    /* Allocate lock resource and initialize it */
    hi2c->Lock = HAL_UNLOCKED;
 8002782:	687b      	ldr	r3, [r7, #4]
 8002784:	2200      	movs	r2, #0
 8002786:	f883 203c 	strb.w	r2, [r3, #60]	@ 0x3c

    /* Init the low level hardware : GPIO, CLOCK, NVIC */
    hi2c->MspInitCallback(hi2c);
#else
    /* Init the low level hardware : GPIO, CLOCK, NVIC */
    HAL_I2C_MspInit(hi2c);
 800278a:	6878      	ldr	r0, [r7, #4]
 800278c:	f7fe fb50 	bl	8000e30 <HAL_I2C_MspInit>
#endif /* USE_HAL_I2C_REGISTER_CALLBACKS */
  }

  hi2c->State = HAL_I2C_STATE_BUSY;
 8002790:	687b      	ldr	r3, [r7, #4]
 8002792:	2224      	movs	r2, #36	@ 0x24
 8002794:	f883 203d 	strb.w	r2, [r3, #61]	@ 0x3d

  /* Disable the selected I2C peripheral */
  __HAL_I2C_DISABLE(hi2c);
 8002798:	687b      	ldr	r3, [r7, #4]
 800279a:	681b      	ldr	r3, [r3, #0]
 800279c:	681a      	ldr	r2, [r3, #0]
 800279e:	687b      	ldr	r3, [r7, #4]
 80027a0:	681b      	ldr	r3, [r3, #0]
 80027a2:	f022 0201 	bic.w	r2, r2, #1
 80027a6:	601a      	str	r2, [r3, #0]

  /*Reset I2C*/
  hi2c->Instance->CR1 |= I2C_CR1_SWRST;
 80027a8:	687b      	ldr	r3, [r7, #4]
 80027aa:	681b      	ldr	r3, [r3, #0]
 80027ac:	681a      	ldr	r2, [r3, #0]
 80027ae:	687b      	ldr	r3, [r7, #4]
 80027b0:	681b      	ldr	r3, [r3, #0]
 80027b2:	f442 4200 	orr.w	r2, r2, #32768	@ 0x8000
 80027b6:	601a      	str	r2, [r3, #0]
  hi2c->Instance->CR1 &= ~I2C_CR1_SWRST;
 80027b8:	687b      	ldr	r3, [r7, #4]
 80027ba:	681b      	ldr	r3, [r3, #0]
 80027bc:	681a      	ldr	r2, [r3, #0]
 80027be:	687b      	ldr	r3, [r7, #4]
 80027c0:	681b      	ldr	r3, [r3, #0]
 80027c2:	f422 4200 	bic.w	r2, r2, #32768	@ 0x8000
 80027c6:	601a      	str	r2, [r3, #0]

  /* Get PCLK1 frequency */
  pclk1 = HAL_RCC_GetPCLK1Freq();
 80027c8:	f001 ffd2 	bl	8004770 <HAL_RCC_GetPCLK1Freq>
 80027cc:	60f8      	str	r0, [r7, #12]

  /* Check the minimum allowed PCLK1 frequency */
  if (I2C_MIN_PCLK_FREQ(pclk1, hi2c->Init.ClockSpeed) == 1U)
 80027ce:	687b      	ldr	r3, [r7, #4]
 80027d0:	685b      	ldr	r3, [r3, #4]
 80027d2:	4a81      	ldr	r2, [pc, #516]	@ (80029d8 <HAL_I2C_Init+0x274>)
 80027d4:	4293      	cmp	r3, r2
 80027d6:	d807      	bhi.n	80027e8 <HAL_I2C_Init+0x84>
 80027d8:	68fb      	ldr	r3, [r7, #12]
 80027da:	4a80      	ldr	r2, [pc, #512]	@ (80029dc <HAL_I2C_Init+0x278>)
 80027dc:	4293      	cmp	r3, r2
 80027de:	bf94      	ite	ls
 80027e0:	2301      	movls	r3, #1
 80027e2:	2300      	movhi	r3, #0
 80027e4:	b2db      	uxtb	r3, r3
 80027e6:	e006      	b.n	80027f6 <HAL_I2C_Init+0x92>
 80027e8:	68fb      	ldr	r3, [r7, #12]
 80027ea:	4a7d      	ldr	r2, [pc, #500]	@ (80029e0 <HAL_I2C_Init+0x27c>)
 80027ec:	4293      	cmp	r3, r2
 80027ee:	bf94      	ite	ls
 80027f0:	2301      	movls	r3, #1
 80027f2:	2300      	movhi	r3, #0
 80027f4:	b2db      	uxtb	r3, r3
 80027f6:	2b00      	cmp	r3, #0
 80027f8:	d001      	beq.n	80027fe <HAL_I2C_Init+0x9a>
  {
    return HAL_ERROR;
 80027fa:	2301      	movs	r3, #1
 80027fc:	e0e7      	b.n	80029ce <HAL_I2C_Init+0x26a>
  }

  /* Calculate frequency range */
  freqrange = I2C_FREQRANGE(pclk1);
 80027fe:	68fb      	ldr	r3, [r7, #12]
 8002800:	4a78      	ldr	r2, [pc, #480]	@ (80029e4 <HAL_I2C_Init+0x280>)
 8002802:	fba2 2303 	umull	r2, r3, r2, r3
 8002806:	0c9b      	lsrs	r3, r3, #18
 8002808:	60bb      	str	r3, [r7, #8]

  /*---------------------------- I2Cx CR2 Configuration ----------------------*/
  /* Configure I2Cx: Frequency range */
  MODIFY_REG(hi2c->Instance->CR2, I2C_CR2_FREQ, freqrange);
 800280a:	687b      	ldr	r3, [r7, #4]
 800280c:	681b      	ldr	r3, [r3, #0]
 800280e:	685b      	ldr	r3, [r3, #4]
 8002810:	f023 013f 	bic.w	r1, r3, #63	@ 0x3f
 8002814:	687b      	ldr	r3, [r7, #4]
 8002816:	681b      	ldr	r3, [r3, #0]
 8002818:	68ba      	ldr	r2, [r7, #8]
 800281a:	430a      	orrs	r2, r1
 800281c:	605a      	str	r2, [r3, #4]

  /*---------------------------- I2Cx TRISE Configuration --------------------*/
  /* Configure I2Cx: Rise Time */
  MODIFY_REG(hi2c->Instance->TRISE, I2C_TRISE_TRISE, I2C_RISE_TIME(freqrange, hi2c->Init.ClockSpeed));
 800281e:	687b      	ldr	r3, [r7, #4]
 8002820:	681b      	ldr	r3, [r3, #0]
 8002822:	6a1b      	ldr	r3, [r3, #32]
 8002824:	f023 013f 	bic.w	r1, r3, #63	@ 0x3f
 8002828:	687b      	ldr	r3, [r7, #4]
 800282a:	685b      	ldr	r3, [r3, #4]
 800282c:	4a6a      	ldr	r2, [pc, #424]	@ (80029d8 <HAL_I2C_Init+0x274>)
 800282e:	4293      	cmp	r3, r2
 8002830:	d802      	bhi.n	8002838 <HAL_I2C_Init+0xd4>
 8002832:	68bb      	ldr	r3, [r7, #8]
 8002834:	3301      	adds	r3, #1
 8002836:	e009      	b.n	800284c <HAL_I2C_Init+0xe8>
 8002838:	68bb      	ldr	r3, [r7, #8]
 800283a:	f44f 7296 	mov.w	r2, #300	@ 0x12c
 800283e:	fb02 f303 	mul.w	r3, r2, r3
 8002842:	4a69      	ldr	r2, [pc, #420]	@ (80029e8 <HAL_I2C_Init+0x284>)
 8002844:	fba2 2303 	umull	r2, r3, r2, r3
 8002848:	099b      	lsrs	r3, r3, #6
 800284a:	3301      	adds	r3, #1
 800284c:	687a      	ldr	r2, [r7, #4]
 800284e:	6812      	ldr	r2, [r2, #0]
 8002850:	430b      	orrs	r3, r1
 8002852:	6213      	str	r3, [r2, #32]

  /*---------------------------- I2Cx CCR Configuration ----------------------*/
  /* Configure I2Cx: Speed */
  MODIFY_REG(hi2c->Instance->CCR, (I2C_CCR_FS | I2C_CCR_DUTY | I2C_CCR_CCR), I2C_SPEED(pclk1, hi2c->Init.ClockSpeed, hi2c->Init.DutyCycle));
 8002854:	687b      	ldr	r3, [r7, #4]
 8002856:	681b      	ldr	r3, [r3, #0]
 8002858:	69db      	ldr	r3, [r3, #28]
 800285a:	f423 424f 	bic.w	r2, r3, #52992	@ 0xcf00
 800285e:	f022 02ff 	bic.w	r2, r2, #255	@ 0xff
 8002862:	687b      	ldr	r3, [r7, #4]
 8002864:	685b      	ldr	r3, [r3, #4]
 8002866:	495c      	ldr	r1, [pc, #368]	@ (80029d8 <HAL_I2C_Init+0x274>)
 8002868:	428b      	cmp	r3, r1
 800286a:	d819      	bhi.n	80028a0 <HAL_I2C_Init+0x13c>
 800286c:	68fb      	ldr	r3, [r7, #12]
 800286e:	1e59      	subs	r1, r3, #1
 8002870:	687b      	ldr	r3, [r7, #4]
 8002872:	685b      	ldr	r3, [r3, #4]
 8002874:	005b      	lsls	r3, r3, #1
 8002876:	fbb1 f3f3 	udiv	r3, r1, r3
 800287a:	1c59      	adds	r1, r3, #1
 800287c:	f640 73fc 	movw	r3, #4092	@ 0xffc
 8002880:	400b      	ands	r3, r1
 8002882:	2b00      	cmp	r3, #0
 8002884:	d00a      	beq.n	800289c <HAL_I2C_Init+0x138>
 8002886:	68fb      	ldr	r3, [r7, #12]
 8002888:	1e59      	subs	r1, r3, #1
 800288a:	687b      	ldr	r3, [r7, #4]
 800288c:	685b      	ldr	r3, [r3, #4]
 800288e:	005b      	lsls	r3, r3, #1
 8002890:	fbb1 f3f3 	udiv	r3, r1, r3
 8002894:	3301      	adds	r3, #1
 8002896:	f3c3 030b 	ubfx	r3, r3, #0, #12
 800289a:	e051      	b.n	8002940 <HAL_I2C_Init+0x1dc>
 800289c:	2304      	movs	r3, #4
 800289e:	e04f      	b.n	8002940 <HAL_I2C_Init+0x1dc>
 80028a0:	687b      	ldr	r3, [r7, #4]
 80028a2:	689b      	ldr	r3, [r3, #8]
 80028a4:	2b00      	cmp	r3, #0
 80028a6:	d111      	bne.n	80028cc <HAL_I2C_Init+0x168>
 80028a8:	68fb      	ldr	r3, [r7, #12]
 80028aa:	1e58      	subs	r0, r3, #1
 80028ac:	687b      	ldr	r3, [r7, #4]
 80028ae:	6859      	ldr	r1, [r3, #4]
 80028b0:	460b      	mov	r3, r1
 80028b2:	005b      	lsls	r3, r3, #1
 80028b4:	440b      	add	r3, r1
 80028b6:	fbb0 f3f3 	udiv	r3, r0, r3
 80028ba:	3301      	adds	r3, #1
 80028bc:	f3c3 030b 	ubfx	r3, r3, #0, #12
 80028c0:	2b00      	cmp	r3, #0
 80028c2:	bf0c      	ite	eq
 80028c4:	2301      	moveq	r3, #1
 80028c6:	2300      	movne	r3, #0
 80028c8:	b2db      	uxtb	r3, r3
 80028ca:	e012      	b.n	80028f2 <HAL_I2C_Init+0x18e>
 80028cc:	68fb      	ldr	r3, [r7, #12]
 80028ce:	1e58      	subs	r0, r3, #1
 80028d0:	687b      	ldr	r3, [r7, #4]
 80028d2:	6859      	ldr	r1, [r3, #4]
 80028d4:	460b      	mov	r3, r1
 80028d6:	009b      	lsls	r3, r3, #2
 80028d8:	440b      	add	r3, r1
 80028da:	0099      	lsls	r1, r3, #2
 80028dc:	440b      	add	r3, r1
 80028de:	fbb0 f3f3 	udiv	r3, r0, r3
 80028e2:	3301      	adds	r3, #1
 80028e4:	f3c3 030b 	ubfx	r3, r3, #0, #12
 80028e8:	2b00      	cmp	r3, #0
 80028ea:	bf0c      	ite	eq
 80028ec:	2301      	moveq	r3, #1
 80028ee:	2300      	movne	r3, #0
 80028f0:	b2db      	uxtb	r3, r3
 80028f2:	2b00      	cmp	r3, #0
 80028f4:	d001      	beq.n	80028fa <HAL_I2C_Init+0x196>
 80028f6:	2301      	movs	r3, #1
 80028f8:	e022      	b.n	8002940 <HAL_I2C_Init+0x1dc>
 80028fa:	687b      	ldr	r3, [r7, #4]
 80028fc:	689b      	ldr	r3, [r3, #8]
 80028fe:	2b00      	cmp	r3, #0
 8002900:	d10e      	bne.n	8002920 <HAL_I2C_Init+0x1bc>
 8002902:	68fb      	ldr	r3, [r7, #12]
 8002904:	1e58      	subs	r0, r3, #1
 8002906:	687b      	ldr	r3, [r7, #4]
 8002908:	6859      	ldr	r1, [r3, #4]
 800290a:	460b      	mov	r3, r1
 800290c:	005b      	lsls	r3, r3, #1
 800290e:	440b      	add	r3, r1
 8002910:	fbb0 f3f3 	udiv	r3, r0, r3
 8002914:	3301      	adds	r3, #1
 8002916:	f3c3 030b 	ubfx	r3, r3, #0, #12
 800291a:	f443 4300 	orr.w	r3, r3, #32768	@ 0x8000
 800291e:	e00f      	b.n	8002940 <HAL_I2C_Init+0x1dc>
 8002920:	68fb      	ldr	r3, [r7, #12]
 8002922:	1e58      	subs	r0, r3, #1
 8002924:	687b      	ldr	r3, [r7, #4]
 8002926:	6859      	ldr	r1, [r3, #4]
 8002928:	460b      	mov	r3, r1
 800292a:	009b      	lsls	r3, r3, #2
 800292c:	440b      	add	r3, r1
 800292e:	0099      	lsls	r1, r3, #2
 8002930:	440b      	add	r3, r1
 8002932:	fbb0 f3f3 	udiv	r3, r0, r3
 8002936:	3301      	adds	r3, #1
 8002938:	f3c3 030b 	ubfx	r3, r3, #0, #12
 800293c:	f443 4340 	orr.w	r3, r3, #49152	@ 0xc000
 8002940:	6879      	ldr	r1, [r7, #4]
 8002942:	6809      	ldr	r1, [r1, #0]
 8002944:	4313      	orrs	r3, r2
 8002946:	61cb      	str	r3, [r1, #28]

  /*---------------------------- I2Cx CR1 Configuration ----------------------*/
  /* Configure I2Cx: Generalcall and NoStretch mode */
  MODIFY_REG(hi2c->Instance->CR1, (I2C_CR1_ENGC | I2C_CR1_NOSTRETCH), (hi2c->Init.GeneralCallMode | hi2c->Init.NoStretchMode));
 8002948:	687b      	ldr	r3, [r7, #4]
 800294a:	681b      	ldr	r3, [r3, #0]
 800294c:	681b      	ldr	r3, [r3, #0]
 800294e:	f023 01c0 	bic.w	r1, r3, #192	@ 0xc0
 8002952:	687b      	ldr	r3, [r7, #4]
 8002954:	69da      	ldr	r2, [r3, #28]
 8002956:	687b      	ldr	r3, [r7, #4]
 8002958:	6a1b      	ldr	r3, [r3, #32]
 800295a:	431a      	orrs	r2, r3
 800295c:	687b      	ldr	r3, [r7, #4]
 800295e:	681b      	ldr	r3, [r3, #0]
 8002960:	430a      	orrs	r2, r1
 8002962:	601a      	str	r2, [r3, #0]

  /*---------------------------- I2Cx OAR1 Configuration ---------------------*/
  /* Configure I2Cx: Own Address1 and addressing mode */
  MODIFY_REG(hi2c->Instance->OAR1, (I2C_OAR1_ADDMODE | I2C_OAR1_ADD8_9 | I2C_OAR1_ADD1_7 | I2C_OAR1_ADD0), (hi2c->Init.AddressingMode | hi2c->Init.OwnAddress1));
 8002964:	687b      	ldr	r3, [r7, #4]
 8002966:	681b      	ldr	r3, [r3, #0]
 8002968:	689b      	ldr	r3, [r3, #8]
 800296a:	f423 4303 	bic.w	r3, r3, #33536	@ 0x8300
 800296e:	f023 03ff 	bic.w	r3, r3, #255	@ 0xff
 8002972:	687a      	ldr	r2, [r7, #4]
 8002974:	6911      	ldr	r1, [r2, #16]
 8002976:	687a      	ldr	r2, [r7, #4]
 8002978:	68d2      	ldr	r2, [r2, #12]
 800297a:	4311      	orrs	r1, r2
 800297c:	687a      	ldr	r2, [r7, #4]
 800297e:	6812      	ldr	r2, [r2, #0]
 8002980:	430b      	orrs	r3, r1
 8002982:	6093      	str	r3, [r2, #8]

  /*---------------------------- I2Cx OAR2 Configuration ---------------------*/
  /* Configure I2Cx: Dual mode and Own Address2 */
  MODIFY_REG(hi2c->Instance->OAR2, (I2C_OAR2_ENDUAL | I2C_OAR2_ADD2), (hi2c->Init.DualAddressMode | hi2c->Init.OwnAddress2));
 8002984:	687b      	ldr	r3, [r7, #4]
 8002986:	681b      	ldr	r3, [r3, #0]
 8002988:	68db      	ldr	r3, [r3, #12]
 800298a:	f023 01ff 	bic.w	r1, r3, #255	@ 0xff
 800298e:	687b      	ldr	r3, [r7, #4]
 8002990:	695a      	ldr	r2, [r3, #20]
 8002992:	687b      	ldr	r3, [r7, #4]
 8002994:	699b      	ldr	r3, [r3, #24]
 8002996:	431a      	orrs	r2, r3
 8002998:	687b      	ldr	r3, [r7, #4]
 800299a:	681b      	ldr	r3, [r3, #0]
 800299c:	430a      	orrs	r2, r1
 800299e:	60da      	str	r2, [r3, #12]

  /* Enable the selected I2C peripheral */
  __HAL_I2C_ENABLE(hi2c);
 80029a0:	687b      	ldr	r3, [r7, #4]
 80029a2:	681b      	ldr	r3, [r3, #0]
 80029a4:	681a      	ldr	r2, [r3, #0]
 80029a6:	687b      	ldr	r3, [r7, #4]
 80029a8:	681b      	ldr	r3, [r3, #0]
 80029aa:	f042 0201 	orr.w	r2, r2, #1
 80029ae:	601a      	str	r2, [r3, #0]

  hi2c->ErrorCode = HAL_I2C_ERROR_NONE;
 80029b0:	687b      	ldr	r3, [r7, #4]
 80029b2:	2200      	movs	r2, #0
 80029b4:	641a      	str	r2, [r3, #64]	@ 0x40
  hi2c->State = HAL_I2C_STATE_READY;
 80029b6:	687b      	ldr	r3, [r7, #4]
 80029b8:	2220      	movs	r2, #32
 80029ba:	f883 203d 	strb.w	r2, [r3, #61]	@ 0x3d
  hi2c->PreviousState = I2C_STATE_NONE;
 80029be:	687b      	ldr	r3, [r7, #4]
 80029c0:	2200      	movs	r2, #0
 80029c2:	631a      	str	r2, [r3, #48]	@ 0x30
  hi2c->Mode = HAL_I2C_MODE_NONE;
 80029c4:	687b      	ldr	r3, [r7, #4]
 80029c6:	2200      	movs	r2, #0
 80029c8:	f883 203e 	strb.w	r2, [r3, #62]	@ 0x3e

  return HAL_OK;
 80029cc:	2300      	movs	r3, #0
}
 80029ce:	4618      	mov	r0, r3
 80029d0:	3710      	adds	r7, #16
 80029d2:	46bd      	mov	sp, r7
 80029d4:	bd80      	pop	{r7, pc}
 80029d6:	bf00      	nop
 80029d8:	000186a0 	.word	0x000186a0
 80029dc:	001e847f 	.word	0x001e847f
 80029e0:	003d08ff 	.word	0x003d08ff
 80029e4:	431bde83 	.word	0x431bde83
 80029e8:	10624dd3 	.word	0x10624dd3

080029ec <HAL_PCD_Init>:
  *         parameters in the PCD_InitTypeDef and initialize the associated handle.
  * @param  hpcd PCD handle
  * @retval HAL status
  */
HAL_StatusTypeDef HAL_PCD_Init(PCD_HandleTypeDef *hpcd)
{
 80029ec:	b580      	push	{r7, lr}
 80029ee:	b086      	sub	sp, #24
 80029f0:	af02      	add	r7, sp, #8
 80029f2:	6078      	str	r0, [r7, #4]
  const USB_OTG_GlobalTypeDef *USBx;
#endif /* defined (USB_OTG_FS) */
  uint8_t i;

  /* Check the PCD handle allocation */
  if (hpcd == NULL)
 80029f4:	687b      	ldr	r3, [r7, #4]
 80029f6:	2b00      	cmp	r3, #0
 80029f8:	d101      	bne.n	80029fe <HAL_PCD_Init+0x12>
  {
    return HAL_ERROR;
 80029fa:	2301      	movs	r3, #1
 80029fc:	e101      	b.n	8002c02 <HAL_PCD_Init+0x216>

  /* Check the parameters */
  assert_param(IS_PCD_ALL_INSTANCE(hpcd->Instance));

#if defined (USB_OTG_FS)
  USBx = hpcd->Instance;
 80029fe:	687b      	ldr	r3, [r7, #4]
 8002a00:	681b      	ldr	r3, [r3, #0]
 8002a02:	60bb      	str	r3, [r7, #8]
#endif /* defined (USB_OTG_FS) */

  if (hpcd->State == HAL_PCD_STATE_RESET)
 8002a04:	687b      	ldr	r3, [r7, #4]
 8002a06:	f893 3495 	ldrb.w	r3, [r3, #1173]	@ 0x495
 8002a0a:	b2db      	uxtb	r3, r3
 8002a0c:	2b00      	cmp	r3, #0
 8002a0e:	d106      	bne.n	8002a1e <HAL_PCD_Init+0x32>
  {
    /* Allocate lock resource and initialize it */
    hpcd->Lock = HAL_UNLOCKED;
 8002a10:	687b      	ldr	r3, [r7, #4]
 8002a12:	2200      	movs	r2, #0
 8002a14:	f883 2494 	strb.w	r2, [r3, #1172]	@ 0x494

    /* Init the low level hardware */
    hpcd->MspInitCallback(hpcd);
#else
    /* Init the low level hardware : GPIO, CLOCK, NVIC... */
    HAL_PCD_MspInit(hpcd);
 8002a18:	6878      	ldr	r0, [r7, #4]
 8002a1a:	f006 fb3d 	bl	8009098 <HAL_PCD_MspInit>
#endif /* (USE_HAL_PCD_REGISTER_CALLBACKS) */
  }

  hpcd->State = HAL_PCD_STATE_BUSY;
 8002a1e:	687b      	ldr	r3, [r7, #4]
 8002a20:	2203      	movs	r2, #3
 8002a22:	f883 2495 	strb.w	r2, [r3, #1173]	@ 0x495

#if defined (USB_OTG_FS)
  /* Disable DMA mode for FS instance */
  if (USBx == USB_OTG_FS)
 8002a26:	68bb      	ldr	r3, [r7, #8]
 8002a28:	f1b3 4fa0 	cmp.w	r3, #1342177280	@ 0x50000000
 8002a2c:	d102      	bne.n	8002a34 <HAL_PCD_Init+0x48>
  {
    hpcd->Init.dma_enable = 0U;
 8002a2e:	687b      	ldr	r3, [r7, #4]
 8002a30:	2200      	movs	r2, #0
 8002a32:	719a      	strb	r2, [r3, #6]
  }
#endif /* defined (USB_OTG_FS) */

  /* Disable the Interrupts */
  __HAL_PCD_DISABLE(hpcd);
 8002a34:	687b      	ldr	r3, [r7, #4]
 8002a36:	681b      	ldr	r3, [r3, #0]
 8002a38:	4618      	mov	r0, r3
 8002a3a:	f002 fe3a 	bl	80056b2 <USB_DisableGlobalInt>

  /*Init the Core (common init.) */
  if (USB_CoreInit(hpcd->Instance, hpcd->Init) != HAL_OK)
 8002a3e:	687b      	ldr	r3, [r7, #4]
 8002a40:	6818      	ldr	r0, [r3, #0]
 8002a42:	687b      	ldr	r3, [r7, #4]
 8002a44:	7c1a      	ldrb	r2, [r3, #16]
 8002a46:	f88d 2000 	strb.w	r2, [sp]
 8002a4a:	3304      	adds	r3, #4
 8002a4c:	cb0e      	ldmia	r3, {r1, r2, r3}
 8002a4e:	f002 fd19 	bl	8005484 <USB_CoreInit>
 8002a52:	4603      	mov	r3, r0
 8002a54:	2b00      	cmp	r3, #0
 8002a56:	d005      	beq.n	8002a64 <HAL_PCD_Init+0x78>
  {
    hpcd->State = HAL_PCD_STATE_ERROR;
 8002a58:	687b      	ldr	r3, [r7, #4]
 8002a5a:	2202      	movs	r2, #2
 8002a5c:	f883 2495 	strb.w	r2, [r3, #1173]	@ 0x495
    return HAL_ERROR;
 8002a60:	2301      	movs	r3, #1
 8002a62:	e0ce      	b.n	8002c02 <HAL_PCD_Init+0x216>
  }

  /* Force Device Mode */
  if (USB_SetCurrentMode(hpcd->Instance, USB_DEVICE_MODE) != HAL_OK)
 8002a64:	687b      	ldr	r3, [r7, #4]
 8002a66:	681b      	ldr	r3, [r3, #0]
 8002a68:	2100      	movs	r1, #0
 8002a6a:	4618      	mov	r0, r3
 8002a6c:	f002 fe32 	bl	80056d4 <USB_SetCurrentMode>
 8002a70:	4603      	mov	r3, r0
 8002a72:	2b00      	cmp	r3, #0
 8002a74:	d005      	beq.n	8002a82 <HAL_PCD_Init+0x96>
  {
    hpcd->State = HAL_PCD_STATE_ERROR;
 8002a76:	687b      	ldr	r3, [r7, #4]
 8002a78:	2202      	movs	r2, #2
 8002a7a:	f883 2495 	strb.w	r2, [r3, #1173]	@ 0x495
    return HAL_ERROR;
 8002a7e:	2301      	movs	r3, #1
 8002a80:	e0bf      	b.n	8002c02 <HAL_PCD_Init+0x216>
  }

  /* Init endpoints structures */
  for (i = 0U; i < hpcd->Init.dev_endpoints; i++)
 8002a82:	2300      	movs	r3, #0
 8002a84:	73fb      	strb	r3, [r7, #15]
 8002a86:	e04a      	b.n	8002b1e <HAL_PCD_Init+0x132>
  {
    /* Init ep structure */
    hpcd->IN_ep[i].is_in = 1U;
 8002a88:	7bfa      	ldrb	r2, [r7, #15]
 8002a8a:	6879      	ldr	r1, [r7, #4]
 8002a8c:	4613      	mov	r3, r2
 8002a8e:	00db      	lsls	r3, r3, #3
 8002a90:	4413      	add	r3, r2
 8002a92:	009b      	lsls	r3, r3, #2
 8002a94:	440b      	add	r3, r1
 8002a96:	3315      	adds	r3, #21
 8002a98:	2201      	movs	r2, #1
 8002a9a:	701a      	strb	r2, [r3, #0]
    hpcd->IN_ep[i].num = i;
 8002a9c:	7bfa      	ldrb	r2, [r7, #15]
 8002a9e:	6879      	ldr	r1, [r7, #4]
 8002aa0:	4613      	mov	r3, r2
 8002aa2:	00db      	lsls	r3, r3, #3
 8002aa4:	4413      	add	r3, r2
 8002aa6:	009b      	lsls	r3, r3, #2
 8002aa8:	440b      	add	r3, r1
 8002aaa:	3314      	adds	r3, #20
 8002aac:	7bfa      	ldrb	r2, [r7, #15]
 8002aae:	701a      	strb	r2, [r3, #0]
    hpcd->IN_ep[i].tx_fifo_num = i;
 8002ab0:	7bfa      	ldrb	r2, [r7, #15]
 8002ab2:	7bfb      	ldrb	r3, [r7, #15]
 8002ab4:	b298      	uxth	r0, r3
 8002ab6:	6879      	ldr	r1, [r7, #4]
 8002ab8:	4613      	mov	r3, r2
 8002aba:	00db      	lsls	r3, r3, #3
 8002abc:	4413      	add	r3, r2
 8002abe:	009b      	lsls	r3, r3, #2
 8002ac0:	440b      	add	r3, r1
 8002ac2:	332e      	adds	r3, #46	@ 0x2e
 8002ac4:	4602      	mov	r2, r0
 8002ac6:	801a      	strh	r2, [r3, #0]
    /* Control until ep is activated */
    hpcd->IN_ep[i].type = EP_TYPE_CTRL;
 8002ac8:	7bfa      	ldrb	r2, [r7, #15]
 8002aca:	6879      	ldr	r1, [r7, #4]
 8002acc:	4613      	mov	r3, r2
 8002ace:	00db      	lsls	r3, r3, #3
 8002ad0:	4413      	add	r3, r2
 8002ad2:	009b      	lsls	r3, r3, #2
 8002ad4:	440b      	add	r3, r1
 8002ad6:	3318      	adds	r3, #24
 8002ad8:	2200      	movs	r2, #0
 8002ada:	701a      	strb	r2, [r3, #0]
    hpcd->IN_ep[i].maxpacket = 0U;
 8002adc:	7bfa      	ldrb	r2, [r7, #15]
 8002ade:	6879      	ldr	r1, [r7, #4]
 8002ae0:	4613      	mov	r3, r2
 8002ae2:	00db      	lsls	r3, r3, #3
 8002ae4:	4413      	add	r3, r2
 8002ae6:	009b      	lsls	r3, r3, #2
 8002ae8:	440b      	add	r3, r1
 8002aea:	331c      	adds	r3, #28
 8002aec:	2200      	movs	r2, #0
 8002aee:	601a      	str	r2, [r3, #0]
    hpcd->IN_ep[i].xfer_buff = 0U;
 8002af0:	7bfa      	ldrb	r2, [r7, #15]
 8002af2:	6879      	ldr	r1, [r7, #4]
 8002af4:	4613      	mov	r3, r2
 8002af6:	00db      	lsls	r3, r3, #3
 8002af8:	4413      	add	r3, r2
 8002afa:	009b      	lsls	r3, r3, #2
 8002afc:	440b      	add	r3, r1
 8002afe:	3320      	adds	r3, #32
 8002b00:	2200      	movs	r2, #0
 8002b02:	601a      	str	r2, [r3, #0]
    hpcd->IN_ep[i].xfer_len = 0U;
 8002b04:	7bfa      	ldrb	r2, [r7, #15]
 8002b06:	6879      	ldr	r1, [r7, #4]
 8002b08:	4613      	mov	r3, r2
 8002b0a:	00db      	lsls	r3, r3, #3
 8002b0c:	4413      	add	r3, r2
 8002b0e:	009b      	lsls	r3, r3, #2
 8002b10:	440b      	add	r3, r1
 8002b12:	3324      	adds	r3, #36	@ 0x24
 8002b14:	2200      	movs	r2, #0
 8002b16:	601a      	str	r2, [r3, #0]
  for (i = 0U; i < hpcd->Init.dev_endpoints; i++)
 8002b18:	7bfb      	ldrb	r3, [r7, #15]
 8002b1a:	3301      	adds	r3, #1
 8002b1c:	73fb      	strb	r3, [r7, #15]
 8002b1e:	687b      	ldr	r3, [r7, #4]
 8002b20:	791b      	ldrb	r3, [r3, #4]
 8002b22:	7bfa      	ldrb	r2, [r7, #15]
 8002b24:	429a      	cmp	r2, r3
 8002b26:	d3af      	bcc.n	8002a88 <HAL_PCD_Init+0x9c>
  }

  for (i = 0U; i < hpcd->Init.dev_endpoints; i++)
 8002b28:	2300      	movs	r3, #0
 8002b2a:	73fb      	strb	r3, [r7, #15]
 8002b2c:	e044      	b.n	8002bb8 <HAL_PCD_Init+0x1cc>
  {
    hpcd->OUT_ep[i].is_in = 0U;
 8002b2e:	7bfa      	ldrb	r2, [r7, #15]
 8002b30:	6879      	ldr	r1, [r7, #4]
 8002b32:	4613      	mov	r3, r2
 8002b34:	00db      	lsls	r3, r3, #3
 8002b36:	4413      	add	r3, r2
 8002b38:	009b      	lsls	r3, r3, #2
 8002b3a:	440b      	add	r3, r1
 8002b3c:	f203 2355 	addw	r3, r3, #597	@ 0x255
 8002b40:	2200      	movs	r2, #0
 8002b42:	701a      	strb	r2, [r3, #0]
    hpcd->OUT_ep[i].num = i;
 8002b44:	7bfa      	ldrb	r2, [r7, #15]
 8002b46:	6879      	ldr	r1, [r7, #4]
 8002b48:	4613      	mov	r3, r2
 8002b4a:	00db      	lsls	r3, r3, #3
 8002b4c:	4413      	add	r3, r2
 8002b4e:	009b      	lsls	r3, r3, #2
 8002b50:	440b      	add	r3, r1
 8002b52:	f503 7315 	add.w	r3, r3, #596	@ 0x254
 8002b56:	7bfa      	ldrb	r2, [r7, #15]
 8002b58:	701a      	strb	r2, [r3, #0]
    /* Control until ep is activated */
    hpcd->OUT_ep[i].type = EP_TYPE_CTRL;
 8002b5a:	7bfa      	ldrb	r2, [r7, #15]
 8002b5c:	6879      	ldr	r1, [r7, #4]
 8002b5e:	4613      	mov	r3, r2
 8002b60:	00db      	lsls	r3, r3, #3
 8002b62:	4413      	add	r3, r2
 8002b64:	009b      	lsls	r3, r3, #2
 8002b66:	440b      	add	r3, r1
 8002b68:	f503 7316 	add.w	r3, r3, #600	@ 0x258
 8002b6c:	2200      	movs	r2, #0
 8002b6e:	701a      	strb	r2, [r3, #0]
    hpcd->OUT_ep[i].maxpacket = 0U;
 8002b70:	7bfa      	ldrb	r2, [r7, #15]
 8002b72:	6879      	ldr	r1, [r7, #4]
 8002b74:	4613      	mov	r3, r2
 8002b76:	00db      	lsls	r3, r3, #3
 8002b78:	4413      	add	r3, r2
 8002b7a:	009b      	lsls	r3, r3, #2
 8002b7c:	440b      	add	r3, r1
 8002b7e:	f503 7317 	add.w	r3, r3, #604	@ 0x25c
 8002b82:	2200      	movs	r2, #0
 8002b84:	601a      	str	r2, [r3, #0]
    hpcd->OUT_ep[i].xfer_buff = 0U;
 8002b86:	7bfa      	ldrb	r2, [r7, #15]
 8002b88:	6879      	ldr	r1, [r7, #4]
 8002b8a:	4613      	mov	r3, r2
 8002b8c:	00db      	lsls	r3, r3, #3
 8002b8e:	4413      	add	r3, r2
 8002b90:	009b      	lsls	r3, r3, #2
 8002b92:	440b      	add	r3, r1
 8002b94:	f503 7318 	add.w	r3, r3, #608	@ 0x260
 8002b98:	2200      	movs	r2, #0
 8002b9a:	601a      	str	r2, [r3, #0]
    hpcd->OUT_ep[i].xfer_len = 0U;
 8002b9c:	7bfa      	ldrb	r2, [r7, #15]
 8002b9e:	6879      	ldr	r1, [r7, #4]
 8002ba0:	4613      	mov	r3, r2
 8002ba2:	00db      	lsls	r3, r3, #3
 8002ba4:	4413      	add	r3, r2
 8002ba6:	009b      	lsls	r3, r3, #2
 8002ba8:	440b      	add	r3, r1
 8002baa:	f503 7319 	add.w	r3, r3, #612	@ 0x264
 8002bae:	2200      	movs	r2, #0
 8002bb0:	601a      	str	r2, [r3, #0]
  for (i = 0U; i < hpcd->Init.dev_endpoints; i++)
 8002bb2:	7bfb      	ldrb	r3, [r7, #15]
 8002bb4:	3301      	adds	r3, #1
 8002bb6:	73fb      	strb	r3, [r7, #15]
 8002bb8:	687b      	ldr	r3, [r7, #4]
 8002bba:	791b      	ldrb	r3, [r3, #4]
 8002bbc:	7bfa      	ldrb	r2, [r7, #15]
 8002bbe:	429a      	cmp	r2, r3
 8002bc0:	d3b5      	bcc.n	8002b2e <HAL_PCD_Init+0x142>
  }

  /* Init Device */
  if (USB_DevInit(hpcd->Instance, hpcd->Init) != HAL_OK)
 8002bc2:	687b      	ldr	r3, [r7, #4]
 8002bc4:	6818      	ldr	r0, [r3, #0]
 8002bc6:	687b      	ldr	r3, [r7, #4]
 8002bc8:	7c1a      	ldrb	r2, [r3, #16]
 8002bca:	f88d 2000 	strb.w	r2, [sp]
 8002bce:	3304      	adds	r3, #4
 8002bd0:	cb0e      	ldmia	r3, {r1, r2, r3}
 8002bd2:	f002 fdcb 	bl	800576c <USB_DevInit>
 8002bd6:	4603      	mov	r3, r0
 8002bd8:	2b00      	cmp	r3, #0
 8002bda:	d005      	beq.n	8002be8 <HAL_PCD_Init+0x1fc>
  {
    hpcd->State = HAL_PCD_STATE_ERROR;
 8002bdc:	687b      	ldr	r3, [r7, #4]
 8002bde:	2202      	movs	r2, #2
 8002be0:	f883 2495 	strb.w	r2, [r3, #1173]	@ 0x495
    return HAL_ERROR;
 8002be4:	2301      	movs	r3, #1
 8002be6:	e00c      	b.n	8002c02 <HAL_PCD_Init+0x216>
  }

  hpcd->USB_Address = 0U;
 8002be8:	687b      	ldr	r3, [r7, #4]
 8002bea:	2200      	movs	r2, #0
 8002bec:	745a      	strb	r2, [r3, #17]
  hpcd->State = HAL_PCD_STATE_READY;
 8002bee:	687b      	ldr	r3, [r7, #4]
 8002bf0:	2201      	movs	r2, #1
 8002bf2:	f883 2495 	strb.w	r2, [r3, #1173]	@ 0x495
    (void)HAL_PCDEx_ActivateLPM(hpcd);
  }
#endif /* defined(STM32F446xx) || defined(STM32F469xx) || defined(STM32F479xx) || defined(STM32F412Zx) ||
          defined(STM32F412Vx) || defined(STM32F412Rx) || defined(STM32F412Cx) || defined(STM32F413xx) ||
          defined(STM32F423xx) */
  (void)USB_DevDisconnect(hpcd->Instance);
 8002bf6:	687b      	ldr	r3, [r7, #4]
 8002bf8:	681b      	ldr	r3, [r3, #0]
 8002bfa:	4618      	mov	r0, r3
 8002bfc:	f003 fe15 	bl	800682a <USB_DevDisconnect>

  return HAL_OK;
 8002c00:	2300      	movs	r3, #0
}
 8002c02:	4618      	mov	r0, r3
 8002c04:	3710      	adds	r7, #16
 8002c06:	46bd      	mov	sp, r7
 8002c08:	bd80      	pop	{r7, pc}

08002c0a <HAL_PCD_Start>:
  * @brief  Start the USB device
  * @param  hpcd PCD handle
  * @retval HAL status
  */
HAL_StatusTypeDef HAL_PCD_Start(PCD_HandleTypeDef *hpcd)
{
 8002c0a:	b580      	push	{r7, lr}
 8002c0c:	b084      	sub	sp, #16
 8002c0e:	af00      	add	r7, sp, #0
 8002c10:	6078      	str	r0, [r7, #4]
  USB_OTG_GlobalTypeDef *USBx = hpcd->Instance;
 8002c12:	687b      	ldr	r3, [r7, #4]
 8002c14:	681b      	ldr	r3, [r3, #0]
 8002c16:	60fb      	str	r3, [r7, #12]

  __HAL_LOCK(hpcd);
 8002c18:	687b      	ldr	r3, [r7, #4]
 8002c1a:	f893 3494 	ldrb.w	r3, [r3, #1172]	@ 0x494
 8002c1e:	2b01      	cmp	r3, #1
 8002c20:	d101      	bne.n	8002c26 <HAL_PCD_Start+0x1c>
 8002c22:	2302      	movs	r3, #2
 8002c24:	e022      	b.n	8002c6c <HAL_PCD_Start+0x62>
 8002c26:	687b      	ldr	r3, [r7, #4]
 8002c28:	2201      	movs	r2, #1
 8002c2a:	f883 2494 	strb.w	r2, [r3, #1172]	@ 0x494

  if (((USBx->GUSBCFG & USB_OTG_GUSBCFG_PHYSEL) != 0U) &&
 8002c2e:	68fb      	ldr	r3, [r7, #12]
 8002c30:	68db      	ldr	r3, [r3, #12]
 8002c32:	f003 0340 	and.w	r3, r3, #64	@ 0x40
 8002c36:	2b00      	cmp	r3, #0
 8002c38:	d009      	beq.n	8002c4e <HAL_PCD_Start+0x44>
      (hpcd->Init.battery_charging_enable == 1U))
 8002c3a:	687b      	ldr	r3, [r7, #4]
 8002c3c:	7b5b      	ldrb	r3, [r3, #13]
  if (((USBx->GUSBCFG & USB_OTG_GUSBCFG_PHYSEL) != 0U) &&
 8002c3e:	2b01      	cmp	r3, #1
 8002c40:	d105      	bne.n	8002c4e <HAL_PCD_Start+0x44>
  {
    /* Enable USB Transceiver */
    USBx->GCCFG |= USB_OTG_GCCFG_PWRDWN;
 8002c42:	68fb      	ldr	r3, [r7, #12]
 8002c44:	6b9b      	ldr	r3, [r3, #56]	@ 0x38
 8002c46:	f443 3280 	orr.w	r2, r3, #65536	@ 0x10000
 8002c4a:	68fb      	ldr	r3, [r7, #12]
 8002c4c:	639a      	str	r2, [r3, #56]	@ 0x38
  }

  __HAL_PCD_ENABLE(hpcd);
 8002c4e:	687b      	ldr	r3, [r7, #4]
 8002c50:	681b      	ldr	r3, [r3, #0]
 8002c52:	4618      	mov	r0, r3
 8002c54:	f002 fd1c 	bl	8005690 <USB_EnableGlobalInt>
  (void)USB_DevConnect(hpcd->Instance);
 8002c58:	687b      	ldr	r3, [r7, #4]
 8002c5a:	681b      	ldr	r3, [r3, #0]
 8002c5c:	4618      	mov	r0, r3
 8002c5e:	f003 fdc3 	bl	80067e8 <USB_DevConnect>
  __HAL_UNLOCK(hpcd);
 8002c62:	687b      	ldr	r3, [r7, #4]
 8002c64:	2200      	movs	r2, #0
 8002c66:	f883 2494 	strb.w	r2, [r3, #1172]	@ 0x494

  return HAL_OK;
 8002c6a:	2300      	movs	r3, #0
}
 8002c6c:	4618      	mov	r0, r3
 8002c6e:	3710      	adds	r7, #16
 8002c70:	46bd      	mov	sp, r7
 8002c72:	bd80      	pop	{r7, pc}

08002c74 <HAL_PCD_IRQHandler>:
  * @brief  Handles PCD interrupt request.
  * @param  hpcd PCD handle
  * @retval HAL status
  */
void HAL_PCD_IRQHandler(PCD_HandleTypeDef *hpcd)
{
 8002c74:	b590      	push	{r4, r7, lr}
 8002c76:	b08d      	sub	sp, #52	@ 0x34
 8002c78:	af00      	add	r7, sp, #0
 8002c7a:	6078      	str	r0, [r7, #4]
  USB_OTG_GlobalTypeDef *USBx = hpcd->Instance;
 8002c7c:	687b      	ldr	r3, [r7, #4]
 8002c7e:	681b      	ldr	r3, [r3, #0]
 8002c80:	623b      	str	r3, [r7, #32]
  uint32_t USBx_BASE = (uint32_t)USBx;
 8002c82:	6a3b      	ldr	r3, [r7, #32]
 8002c84:	61fb      	str	r3, [r7, #28]
  uint32_t epnum;
  uint32_t fifoemptymsk;
  uint32_t RegVal;

  /* ensure that we are in device mode */
  if (USB_GetMode(hpcd->Instance) == USB_OTG_MODE_DEVICE)
 8002c86:	687b      	ldr	r3, [r7, #4]
 8002c88:	681b      	ldr	r3, [r3, #0]
 8002c8a:	4618      	mov	r0, r3
 8002c8c:	f003 fe81 	bl	8006992 <USB_GetMode>
 8002c90:	4603      	mov	r3, r0
 8002c92:	2b00      	cmp	r3, #0
 8002c94:	f040 848c 	bne.w	80035b0 <HAL_PCD_IRQHandler+0x93c>
  {
    /* avoid spurious interrupt */
    if (__HAL_PCD_IS_INVALID_INTERRUPT(hpcd))
 8002c98:	687b      	ldr	r3, [r7, #4]
 8002c9a:	681b      	ldr	r3, [r3, #0]
 8002c9c:	4618      	mov	r0, r3
 8002c9e:	f003 fde5 	bl	800686c <USB_ReadInterrupts>
 8002ca2:	4603      	mov	r3, r0
 8002ca4:	2b00      	cmp	r3, #0
 8002ca6:	f000 8482 	beq.w	80035ae <HAL_PCD_IRQHandler+0x93a>
    {
      return;
    }

    /* store current frame number */
    hpcd->FrameNumber = (USBx_DEVICE->DSTS & USB_OTG_DSTS_FNSOF_Msk) >> USB_OTG_DSTS_FNSOF_Pos;
 8002caa:	69fb      	ldr	r3, [r7, #28]
 8002cac:	f503 6300 	add.w	r3, r3, #2048	@ 0x800
 8002cb0:	689b      	ldr	r3, [r3, #8]
 8002cb2:	0a1b      	lsrs	r3, r3, #8
 8002cb4:	f3c3 020d 	ubfx	r2, r3, #0, #14
 8002cb8:	687b      	ldr	r3, [r7, #4]
 8002cba:	f8c3 24d4 	str.w	r2, [r3, #1236]	@ 0x4d4

    if (__HAL_PCD_GET_FLAG(hpcd, USB_OTG_GINTSTS_MMIS))
 8002cbe:	687b      	ldr	r3, [r7, #4]
 8002cc0:	681b      	ldr	r3, [r3, #0]
 8002cc2:	4618      	mov	r0, r3
 8002cc4:	f003 fdd2 	bl	800686c <USB_ReadInterrupts>
 8002cc8:	4603      	mov	r3, r0
 8002cca:	f003 0302 	and.w	r3, r3, #2
 8002cce:	2b02      	cmp	r3, #2
 8002cd0:	d107      	bne.n	8002ce2 <HAL_PCD_IRQHandler+0x6e>
    {
      /* incorrect mode, acknowledge the interrupt */
      __HAL_PCD_CLEAR_FLAG(hpcd, USB_OTG_GINTSTS_MMIS);
 8002cd2:	687b      	ldr	r3, [r7, #4]
 8002cd4:	681b      	ldr	r3, [r3, #0]
 8002cd6:	695a      	ldr	r2, [r3, #20]
 8002cd8:	687b      	ldr	r3, [r7, #4]
 8002cda:	681b      	ldr	r3, [r3, #0]
 8002cdc:	f002 0202 	and.w	r2, r2, #2
 8002ce0:	615a      	str	r2, [r3, #20]
    }

    /* Handle RxQLevel Interrupt */
    if (__HAL_PCD_GET_FLAG(hpcd, USB_OTG_GINTSTS_RXFLVL))
 8002ce2:	687b      	ldr	r3, [r7, #4]
 8002ce4:	681b      	ldr	r3, [r3, #0]
 8002ce6:	4618      	mov	r0, r3
 8002ce8:	f003 fdc0 	bl	800686c <USB_ReadInterrupts>
 8002cec:	4603      	mov	r3, r0
 8002cee:	f003 0310 	and.w	r3, r3, #16
 8002cf2:	2b10      	cmp	r3, #16
 8002cf4:	d161      	bne.n	8002dba <HAL_PCD_IRQHandler+0x146>
    {
      USB_MASK_INTERRUPT(hpcd->Instance, USB_OTG_GINTSTS_RXFLVL);
 8002cf6:	687b      	ldr	r3, [r7, #4]
 8002cf8:	681b      	ldr	r3, [r3, #0]
 8002cfa:	699a      	ldr	r2, [r3, #24]
 8002cfc:	687b      	ldr	r3, [r7, #4]
 8002cfe:	681b      	ldr	r3, [r3, #0]
 8002d00:	f022 0210 	bic.w	r2, r2, #16
 8002d04:	619a      	str	r2, [r3, #24]

      RegVal = USBx->GRXSTSP;
 8002d06:	6a3b      	ldr	r3, [r7, #32]
 8002d08:	6a1b      	ldr	r3, [r3, #32]
 8002d0a:	61bb      	str	r3, [r7, #24]

      ep = &hpcd->OUT_ep[RegVal & USB_OTG_GRXSTSP_EPNUM];
 8002d0c:	69bb      	ldr	r3, [r7, #24]
 8002d0e:	f003 020f 	and.w	r2, r3, #15
 8002d12:	4613      	mov	r3, r2
 8002d14:	00db      	lsls	r3, r3, #3
 8002d16:	4413      	add	r3, r2
 8002d18:	009b      	lsls	r3, r3, #2
 8002d1a:	f503 7314 	add.w	r3, r3, #592	@ 0x250
 8002d1e:	687a      	ldr	r2, [r7, #4]
 8002d20:	4413      	add	r3, r2
 8002d22:	3304      	adds	r3, #4
 8002d24:	617b      	str	r3, [r7, #20]

      if (((RegVal & USB_OTG_GRXSTSP_PKTSTS) >> 17) ==  STS_DATA_UPDT)
 8002d26:	69bb      	ldr	r3, [r7, #24]
 8002d28:	f403 13f0 	and.w	r3, r3, #1966080	@ 0x1e0000
 8002d2c:	f5b3 2f80 	cmp.w	r3, #262144	@ 0x40000
 8002d30:	d124      	bne.n	8002d7c <HAL_PCD_IRQHandler+0x108>
      {
        if ((RegVal & USB_OTG_GRXSTSP_BCNT) != 0U)
 8002d32:	69ba      	ldr	r2, [r7, #24]
 8002d34:	f647 73f0 	movw	r3, #32752	@ 0x7ff0
 8002d38:	4013      	ands	r3, r2
 8002d3a:	2b00      	cmp	r3, #0
 8002d3c:	d035      	beq.n	8002daa <HAL_PCD_IRQHandler+0x136>
        {
          (void)USB_ReadPacket(USBx, ep->xfer_buff,
 8002d3e:	697b      	ldr	r3, [r7, #20]
 8002d40:	68d9      	ldr	r1, [r3, #12]
                               (uint16_t)((RegVal & USB_OTG_GRXSTSP_BCNT) >> 4));
 8002d42:	69bb      	ldr	r3, [r7, #24]
 8002d44:	091b      	lsrs	r3, r3, #4
 8002d46:	b29b      	uxth	r3, r3
          (void)USB_ReadPacket(USBx, ep->xfer_buff,
 8002d48:	f3c3 030a 	ubfx	r3, r3, #0, #11
 8002d4c:	b29b      	uxth	r3, r3
 8002d4e:	461a      	mov	r2, r3
 8002d50:	6a38      	ldr	r0, [r7, #32]
 8002d52:	f003 fbf7 	bl	8006544 <USB_ReadPacket>

          ep->xfer_buff += (RegVal & USB_OTG_GRXSTSP_BCNT) >> 4;
 8002d56:	697b      	ldr	r3, [r7, #20]
 8002d58:	68da      	ldr	r2, [r3, #12]
 8002d5a:	69bb      	ldr	r3, [r7, #24]
 8002d5c:	091b      	lsrs	r3, r3, #4
 8002d5e:	f3c3 030a 	ubfx	r3, r3, #0, #11
 8002d62:	441a      	add	r2, r3
 8002d64:	697b      	ldr	r3, [r7, #20]
 8002d66:	60da      	str	r2, [r3, #12]
          ep->xfer_count += (RegVal & USB_OTG_GRXSTSP_BCNT) >> 4;
 8002d68:	697b      	ldr	r3, [r7, #20]
 8002d6a:	695a      	ldr	r2, [r3, #20]
 8002d6c:	69bb      	ldr	r3, [r7, #24]
 8002d6e:	091b      	lsrs	r3, r3, #4
 8002d70:	f3c3 030a 	ubfx	r3, r3, #0, #11
 8002d74:	441a      	add	r2, r3
 8002d76:	697b      	ldr	r3, [r7, #20]
 8002d78:	615a      	str	r2, [r3, #20]
 8002d7a:	e016      	b.n	8002daa <HAL_PCD_IRQHandler+0x136>
        }
      }
      else if (((RegVal & USB_OTG_GRXSTSP_PKTSTS) >> 17) == STS_SETUP_UPDT)
 8002d7c:	69bb      	ldr	r3, [r7, #24]
 8002d7e:	f403 13f0 	and.w	r3, r3, #1966080	@ 0x1e0000
 8002d82:	f5b3 2f40 	cmp.w	r3, #786432	@ 0xc0000
 8002d86:	d110      	bne.n	8002daa <HAL_PCD_IRQHandler+0x136>
      {
        (void)USB_ReadPacket(USBx, (uint8_t *)hpcd->Setup, 8U);
 8002d88:	687b      	ldr	r3, [r7, #4]
 8002d8a:	f203 439c 	addw	r3, r3, #1180	@ 0x49c
 8002d8e:	2208      	movs	r2, #8
 8002d90:	4619      	mov	r1, r3
 8002d92:	6a38      	ldr	r0, [r7, #32]
 8002d94:	f003 fbd6 	bl	8006544 <USB_ReadPacket>
        ep->xfer_count += (RegVal & USB_OTG_GRXSTSP_BCNT) >> 4;
 8002d98:	697b      	ldr	r3, [r7, #20]
 8002d9a:	695a      	ldr	r2, [r3, #20]
 8002d9c:	69bb      	ldr	r3, [r7, #24]
 8002d9e:	091b      	lsrs	r3, r3, #4
 8002da0:	f3c3 030a 	ubfx	r3, r3, #0, #11
 8002da4:	441a      	add	r2, r3
 8002da6:	697b      	ldr	r3, [r7, #20]
 8002da8:	615a      	str	r2, [r3, #20]
      else
      {
        /* ... */
      }

      USB_UNMASK_INTERRUPT(hpcd->Instance, USB_OTG_GINTSTS_RXFLVL);
 8002daa:	687b      	ldr	r3, [r7, #4]
 8002dac:	681b      	ldr	r3, [r3, #0]
 8002dae:	699a      	ldr	r2, [r3, #24]
 8002db0:	687b      	ldr	r3, [r7, #4]
 8002db2:	681b      	ldr	r3, [r3, #0]
 8002db4:	f042 0210 	orr.w	r2, r2, #16
 8002db8:	619a      	str	r2, [r3, #24]
    }

    if (__HAL_PCD_GET_FLAG(hpcd, USB_OTG_GINTSTS_OEPINT))
 8002dba:	687b      	ldr	r3, [r7, #4]
 8002dbc:	681b      	ldr	r3, [r3, #0]
 8002dbe:	4618      	mov	r0, r3
 8002dc0:	f003 fd54 	bl	800686c <USB_ReadInterrupts>
 8002dc4:	4603      	mov	r3, r0
 8002dc6:	f403 2300 	and.w	r3, r3, #524288	@ 0x80000
 8002dca:	f5b3 2f00 	cmp.w	r3, #524288	@ 0x80000
 8002dce:	f040 80a7 	bne.w	8002f20 <HAL_PCD_IRQHandler+0x2ac>
    {
      epnum = 0U;
 8002dd2:	2300      	movs	r3, #0
 8002dd4:	627b      	str	r3, [r7, #36]	@ 0x24

      /* Read in the device interrupt bits */
      ep_intr = USB_ReadDevAllOutEpInterrupt(hpcd->Instance);
 8002dd6:	687b      	ldr	r3, [r7, #4]
 8002dd8:	681b      	ldr	r3, [r3, #0]
 8002dda:	4618      	mov	r0, r3
 8002ddc:	f003 fd59 	bl	8006892 <USB_ReadDevAllOutEpInterrupt>
 8002de0:	62b8      	str	r0, [r7, #40]	@ 0x28

      while (ep_intr != 0U)
 8002de2:	e099      	b.n	8002f18 <HAL_PCD_IRQHandler+0x2a4>
      {
        if ((ep_intr & 0x1U) != 0U)
 8002de4:	6abb      	ldr	r3, [r7, #40]	@ 0x28
 8002de6:	f003 0301 	and.w	r3, r3, #1
 8002dea:	2b00      	cmp	r3, #0
 8002dec:	f000 808e 	beq.w	8002f0c <HAL_PCD_IRQHandler+0x298>
        {
          epint = USB_ReadDevOutEPInterrupt(hpcd->Instance, (uint8_t)epnum);
 8002df0:	687b      	ldr	r3, [r7, #4]
 8002df2:	681b      	ldr	r3, [r3, #0]
 8002df4:	6a7a      	ldr	r2, [r7, #36]	@ 0x24
 8002df6:	b2d2      	uxtb	r2, r2
 8002df8:	4611      	mov	r1, r2
 8002dfa:	4618      	mov	r0, r3
 8002dfc:	f003 fd7d 	bl	80068fa <USB_ReadDevOutEPInterrupt>
 8002e00:	6138      	str	r0, [r7, #16]

          if ((epint & USB_OTG_DOEPINT_XFRC) == USB_OTG_DOEPINT_XFRC)
 8002e02:	693b      	ldr	r3, [r7, #16]
 8002e04:	f003 0301 	and.w	r3, r3, #1
 8002e08:	2b00      	cmp	r3, #0
 8002e0a:	d00c      	beq.n	8002e26 <HAL_PCD_IRQHandler+0x1b2>
          {
            CLEAR_OUT_EP_INTR(epnum, USB_OTG_DOEPINT_XFRC);
 8002e0c:	6a7b      	ldr	r3, [r7, #36]	@ 0x24
 8002e0e:	015a      	lsls	r2, r3, #5
 8002e10:	69fb      	ldr	r3, [r7, #28]
 8002e12:	4413      	add	r3, r2
 8002e14:	f503 6330 	add.w	r3, r3, #2816	@ 0xb00
 8002e18:	461a      	mov	r2, r3
 8002e1a:	2301      	movs	r3, #1
 8002e1c:	6093      	str	r3, [r2, #8]
            (void)PCD_EP_OutXfrComplete_int(hpcd, epnum);
 8002e1e:	6a79      	ldr	r1, [r7, #36]	@ 0x24
 8002e20:	6878      	ldr	r0, [r7, #4]
 8002e22:	f000 fea3 	bl	8003b6c <PCD_EP_OutXfrComplete_int>
          }

          if ((epint & USB_OTG_DOEPINT_STUP) == USB_OTG_DOEPINT_STUP)
 8002e26:	693b      	ldr	r3, [r7, #16]
 8002e28:	f003 0308 	and.w	r3, r3, #8
 8002e2c:	2b00      	cmp	r3, #0
 8002e2e:	d00c      	beq.n	8002e4a <HAL_PCD_IRQHandler+0x1d6>
          {
            CLEAR_OUT_EP_INTR(epnum, USB_OTG_DOEPINT_STUP);
 8002e30:	6a7b      	ldr	r3, [r7, #36]	@ 0x24
 8002e32:	015a      	lsls	r2, r3, #5
 8002e34:	69fb      	ldr	r3, [r7, #28]
 8002e36:	4413      	add	r3, r2
 8002e38:	f503 6330 	add.w	r3, r3, #2816	@ 0xb00
 8002e3c:	461a      	mov	r2, r3
 8002e3e:	2308      	movs	r3, #8
 8002e40:	6093      	str	r3, [r2, #8]
            /* Class B setup phase done for previous decoded setup */
            (void)PCD_EP_OutSetupPacket_int(hpcd, epnum);
 8002e42:	6a79      	ldr	r1, [r7, #36]	@ 0x24
 8002e44:	6878      	ldr	r0, [r7, #4]
 8002e46:	f000 ff79 	bl	8003d3c <PCD_EP_OutSetupPacket_int>
          }

          if ((epint & USB_OTG_DOEPINT_OTEPDIS) == USB_OTG_DOEPINT_OTEPDIS)
 8002e4a:	693b      	ldr	r3, [r7, #16]
 8002e4c:	f003 0310 	and.w	r3, r3, #16
 8002e50:	2b00      	cmp	r3, #0
 8002e52:	d008      	beq.n	8002e66 <HAL_PCD_IRQHandler+0x1f2>
          {
            CLEAR_OUT_EP_INTR(epnum, USB_OTG_DOEPINT_OTEPDIS);
 8002e54:	6a7b      	ldr	r3, [r7, #36]	@ 0x24
 8002e56:	015a      	lsls	r2, r3, #5
 8002e58:	69fb      	ldr	r3, [r7, #28]
 8002e5a:	4413      	add	r3, r2
 8002e5c:	f503 6330 	add.w	r3, r3, #2816	@ 0xb00
 8002e60:	461a      	mov	r2, r3
 8002e62:	2310      	movs	r3, #16
 8002e64:	6093      	str	r3, [r2, #8]
          }

          /* Clear OUT Endpoint disable interrupt */
          if ((epint & USB_OTG_DOEPINT_EPDISD) == USB_OTG_DOEPINT_EPDISD)
 8002e66:	693b      	ldr	r3, [r7, #16]
 8002e68:	f003 0302 	and.w	r3, r3, #2
 8002e6c:	2b00      	cmp	r3, #0
 8002e6e:	d030      	beq.n	8002ed2 <HAL_PCD_IRQHandler+0x25e>
          {
            if ((USBx->GINTSTS & USB_OTG_GINTSTS_BOUTNAKEFF) == USB_OTG_GINTSTS_BOUTNAKEFF)
 8002e70:	6a3b      	ldr	r3, [r7, #32]
 8002e72:	695b      	ldr	r3, [r3, #20]
 8002e74:	f003 0380 	and.w	r3, r3, #128	@ 0x80
 8002e78:	2b80      	cmp	r3, #128	@ 0x80
 8002e7a:	d109      	bne.n	8002e90 <HAL_PCD_IRQHandler+0x21c>
            {
              USBx_DEVICE->DCTL |= USB_OTG_DCTL_CGONAK;
 8002e7c:	69fb      	ldr	r3, [r7, #28]
 8002e7e:	f503 6300 	add.w	r3, r3, #2048	@ 0x800
 8002e82:	685b      	ldr	r3, [r3, #4]
 8002e84:	69fa      	ldr	r2, [r7, #28]
 8002e86:	f502 6200 	add.w	r2, r2, #2048	@ 0x800
 8002e8a:	f443 6380 	orr.w	r3, r3, #1024	@ 0x400
 8002e8e:	6053      	str	r3, [r2, #4]
            }

            ep = &hpcd->OUT_ep[epnum];
 8002e90:	6a7a      	ldr	r2, [r7, #36]	@ 0x24
 8002e92:	4613      	mov	r3, r2
 8002e94:	00db      	lsls	r3, r3, #3
 8002e96:	4413      	add	r3, r2
 8002e98:	009b      	lsls	r3, r3, #2
 8002e9a:	f503 7314 	add.w	r3, r3, #592	@ 0x250
 8002e9e:	687a      	ldr	r2, [r7, #4]
 8002ea0:	4413      	add	r3, r2
 8002ea2:	3304      	adds	r3, #4
 8002ea4:	617b      	str	r3, [r7, #20]

            if (ep->is_iso_incomplete == 1U)
 8002ea6:	697b      	ldr	r3, [r7, #20]
 8002ea8:	78db      	ldrb	r3, [r3, #3]
 8002eaa:	2b01      	cmp	r3, #1
 8002eac:	d108      	bne.n	8002ec0 <HAL_PCD_IRQHandler+0x24c>
            {
              ep->is_iso_incomplete = 0U;
 8002eae:	697b      	ldr	r3, [r7, #20]
 8002eb0:	2200      	movs	r2, #0
 8002eb2:	70da      	strb	r2, [r3, #3]

#if (USE_HAL_PCD_REGISTER_CALLBACKS == 1U)
              hpcd->ISOOUTIncompleteCallback(hpcd, (uint8_t)epnum);
#else
              HAL_PCD_ISOOUTIncompleteCallback(hpcd, (uint8_t)epnum);
 8002eb4:	6a7b      	ldr	r3, [r7, #36]	@ 0x24
 8002eb6:	b2db      	uxtb	r3, r3
 8002eb8:	4619      	mov	r1, r3
 8002eba:	6878      	ldr	r0, [r7, #4]
 8002ebc:	f006 f9f6 	bl	80092ac <HAL_PCD_ISOOUTIncompleteCallback>
#endif /* USE_HAL_PCD_REGISTER_CALLBACKS */
            }

            CLEAR_OUT_EP_INTR(epnum, USB_OTG_DOEPINT_EPDISD);
 8002ec0:	6a7b      	ldr	r3, [r7, #36]	@ 0x24
 8002ec2:	015a      	lsls	r2, r3, #5
 8002ec4:	69fb      	ldr	r3, [r7, #28]
 8002ec6:	4413      	add	r3, r2
 8002ec8:	f503 6330 	add.w	r3, r3, #2816	@ 0xb00
 8002ecc:	461a      	mov	r2, r3
 8002ece:	2302      	movs	r3, #2
 8002ed0:	6093      	str	r3, [r2, #8]
          }

          /* Clear Status Phase Received interrupt */
          if ((epint & USB_OTG_DOEPINT_OTEPSPR) == USB_OTG_DOEPINT_OTEPSPR)
 8002ed2:	693b      	ldr	r3, [r7, #16]
 8002ed4:	f003 0320 	and.w	r3, r3, #32
 8002ed8:	2b00      	cmp	r3, #0
 8002eda:	d008      	beq.n	8002eee <HAL_PCD_IRQHandler+0x27a>
          {
            CLEAR_OUT_EP_INTR(epnum, USB_OTG_DOEPINT_OTEPSPR);
 8002edc:	6a7b      	ldr	r3, [r7, #36]	@ 0x24
 8002ede:	015a      	lsls	r2, r3, #5
 8002ee0:	69fb      	ldr	r3, [r7, #28]
 8002ee2:	4413      	add	r3, r2
 8002ee4:	f503 6330 	add.w	r3, r3, #2816	@ 0xb00
 8002ee8:	461a      	mov	r2, r3
 8002eea:	2320      	movs	r3, #32
 8002eec:	6093      	str	r3, [r2, #8]
          }

          /* Clear OUT NAK interrupt */
          if ((epint & USB_OTG_DOEPINT_NAK) == USB_OTG_DOEPINT_NAK)
 8002eee:	693b      	ldr	r3, [r7, #16]
 8002ef0:	f403 5300 	and.w	r3, r3, #8192	@ 0x2000
 8002ef4:	2b00      	cmp	r3, #0
 8002ef6:	d009      	beq.n	8002f0c <HAL_PCD_IRQHandler+0x298>
          {
            CLEAR_OUT_EP_INTR(epnum, USB_OTG_DOEPINT_NAK);
 8002ef8:	6a7b      	ldr	r3, [r7, #36]	@ 0x24
 8002efa:	015a      	lsls	r2, r3, #5
 8002efc:	69fb      	ldr	r3, [r7, #28]
 8002efe:	4413      	add	r3, r2
 8002f00:	f503 6330 	add.w	r3, r3, #2816	@ 0xb00
 8002f04:	461a      	mov	r2, r3
 8002f06:	f44f 5300 	mov.w	r3, #8192	@ 0x2000
 8002f0a:	6093      	str	r3, [r2, #8]
          }
        }
        epnum++;
 8002f0c:	6a7b      	ldr	r3, [r7, #36]	@ 0x24
 8002f0e:	3301      	adds	r3, #1
 8002f10:	627b      	str	r3, [r7, #36]	@ 0x24
        ep_intr >>= 1U;
 8002f12:	6abb      	ldr	r3, [r7, #40]	@ 0x28
 8002f14:	085b      	lsrs	r3, r3, #1
 8002f16:	62bb      	str	r3, [r7, #40]	@ 0x28
      while (ep_intr != 0U)
 8002f18:	6abb      	ldr	r3, [r7, #40]	@ 0x28
 8002f1a:	2b00      	cmp	r3, #0
 8002f1c:	f47f af62 	bne.w	8002de4 <HAL_PCD_IRQHandler+0x170>
      }
    }

    if (__HAL_PCD_GET_FLAG(hpcd, USB_OTG_GINTSTS_IEPINT))
 8002f20:	687b      	ldr	r3, [r7, #4]
 8002f22:	681b      	ldr	r3, [r3, #0]
 8002f24:	4618      	mov	r0, r3
 8002f26:	f003 fca1 	bl	800686c <USB_ReadInterrupts>
 8002f2a:	4603      	mov	r3, r0
 8002f2c:	f403 2380 	and.w	r3, r3, #262144	@ 0x40000
 8002f30:	f5b3 2f80 	cmp.w	r3, #262144	@ 0x40000
 8002f34:	f040 80db 	bne.w	80030ee <HAL_PCD_IRQHandler+0x47a>
    {
      /* Read in the device interrupt bits */
      ep_intr = USB_ReadDevAllInEpInterrupt(hpcd->Instance);
 8002f38:	687b      	ldr	r3, [r7, #4]
 8002f3a:	681b      	ldr	r3, [r3, #0]
 8002f3c:	4618      	mov	r0, r3
 8002f3e:	f003 fcc2 	bl	80068c6 <USB_ReadDevAllInEpInterrupt>
 8002f42:	62b8      	str	r0, [r7, #40]	@ 0x28

      epnum = 0U;
 8002f44:	2300      	movs	r3, #0
 8002f46:	627b      	str	r3, [r7, #36]	@ 0x24

      while (ep_intr != 0U)
 8002f48:	e0cd      	b.n	80030e6 <HAL_PCD_IRQHandler+0x472>
      {
        if ((ep_intr & 0x1U) != 0U) /* In ITR */
 8002f4a:	6abb      	ldr	r3, [r7, #40]	@ 0x28
 8002f4c:	f003 0301 	and.w	r3, r3, #1
 8002f50:	2b00      	cmp	r3, #0
 8002f52:	f000 80c2 	beq.w	80030da <HAL_PCD_IRQHandler+0x466>
        {
          epint = USB_ReadDevInEPInterrupt(hpcd->Instance, (uint8_t)epnum);
 8002f56:	687b      	ldr	r3, [r7, #4]
 8002f58:	681b      	ldr	r3, [r3, #0]
 8002f5a:	6a7a      	ldr	r2, [r7, #36]	@ 0x24
 8002f5c:	b2d2      	uxtb	r2, r2
 8002f5e:	4611      	mov	r1, r2
 8002f60:	4618      	mov	r0, r3
 8002f62:	f003 fce8 	bl	8006936 <USB_ReadDevInEPInterrupt>
 8002f66:	6138      	str	r0, [r7, #16]

          if ((epint & USB_OTG_DIEPINT_XFRC) == USB_OTG_DIEPINT_XFRC)
 8002f68:	693b      	ldr	r3, [r7, #16]
 8002f6a:	f003 0301 	and.w	r3, r3, #1
 8002f6e:	2b00      	cmp	r3, #0
 8002f70:	d057      	beq.n	8003022 <HAL_PCD_IRQHandler+0x3ae>
          {
            fifoemptymsk = (uint32_t)(0x1UL << (epnum & EP_ADDR_MSK));
 8002f72:	6a7b      	ldr	r3, [r7, #36]	@ 0x24
 8002f74:	f003 030f 	and.w	r3, r3, #15
 8002f78:	2201      	movs	r2, #1
 8002f7a:	fa02 f303 	lsl.w	r3, r2, r3
 8002f7e:	60fb      	str	r3, [r7, #12]
            USBx_DEVICE->DIEPEMPMSK &= ~fifoemptymsk;
 8002f80:	69fb      	ldr	r3, [r7, #28]
 8002f82:	f503 6300 	add.w	r3, r3, #2048	@ 0x800
 8002f86:	6b5a      	ldr	r2, [r3, #52]	@ 0x34
 8002f88:	68fb      	ldr	r3, [r7, #12]
 8002f8a:	43db      	mvns	r3, r3
 8002f8c:	69f9      	ldr	r1, [r7, #28]
 8002f8e:	f501 6100 	add.w	r1, r1, #2048	@ 0x800
 8002f92:	4013      	ands	r3, r2
 8002f94:	634b      	str	r3, [r1, #52]	@ 0x34

            CLEAR_IN_EP_INTR(epnum, USB_OTG_DIEPINT_XFRC);
 8002f96:	6a7b      	ldr	r3, [r7, #36]	@ 0x24
 8002f98:	015a      	lsls	r2, r3, #5
 8002f9a:	69fb      	ldr	r3, [r7, #28]
 8002f9c:	4413      	add	r3, r2
 8002f9e:	f503 6310 	add.w	r3, r3, #2304	@ 0x900
 8002fa2:	461a      	mov	r2, r3
 8002fa4:	2301      	movs	r3, #1
 8002fa6:	6093      	str	r3, [r2, #8]

            if (hpcd->Init.dma_enable == 1U)
 8002fa8:	687b      	ldr	r3, [r7, #4]
 8002faa:	799b      	ldrb	r3, [r3, #6]
 8002fac:	2b01      	cmp	r3, #1
 8002fae:	d132      	bne.n	8003016 <HAL_PCD_IRQHandler+0x3a2>
            {
              hpcd->IN_ep[epnum].xfer_buff += hpcd->IN_ep[epnum].maxpacket;
 8002fb0:	6879      	ldr	r1, [r7, #4]
 8002fb2:	6a7a      	ldr	r2, [r7, #36]	@ 0x24
 8002fb4:	4613      	mov	r3, r2
 8002fb6:	00db      	lsls	r3, r3, #3
 8002fb8:	4413      	add	r3, r2
 8002fba:	009b      	lsls	r3, r3, #2
 8002fbc:	440b      	add	r3, r1
 8002fbe:	3320      	adds	r3, #32
 8002fc0:	6819      	ldr	r1, [r3, #0]
 8002fc2:	6878      	ldr	r0, [r7, #4]
 8002fc4:	6a7a      	ldr	r2, [r7, #36]	@ 0x24
 8002fc6:	4613      	mov	r3, r2
 8002fc8:	00db      	lsls	r3, r3, #3
 8002fca:	4413      	add	r3, r2
 8002fcc:	009b      	lsls	r3, r3, #2
 8002fce:	4403      	add	r3, r0
 8002fd0:	331c      	adds	r3, #28
 8002fd2:	681b      	ldr	r3, [r3, #0]
 8002fd4:	4419      	add	r1, r3
 8002fd6:	6878      	ldr	r0, [r7, #4]
 8002fd8:	6a7a      	ldr	r2, [r7, #36]	@ 0x24
 8002fda:	4613      	mov	r3, r2
 8002fdc:	00db      	lsls	r3, r3, #3
 8002fde:	4413      	add	r3, r2
 8002fe0:	009b      	lsls	r3, r3, #2
 8002fe2:	4403      	add	r3, r0
 8002fe4:	3320      	adds	r3, #32
 8002fe6:	6019      	str	r1, [r3, #0]

              /* this is ZLP, so prepare EP0 for next setup */
              if ((epnum == 0U) && (hpcd->IN_ep[epnum].xfer_len == 0U))
 8002fe8:	6a7b      	ldr	r3, [r7, #36]	@ 0x24
 8002fea:	2b00      	cmp	r3, #0
 8002fec:	d113      	bne.n	8003016 <HAL_PCD_IRQHandler+0x3a2>
 8002fee:	6879      	ldr	r1, [r7, #4]
 8002ff0:	6a7a      	ldr	r2, [r7, #36]	@ 0x24
 8002ff2:	4613      	mov	r3, r2
 8002ff4:	00db      	lsls	r3, r3, #3
 8002ff6:	4413      	add	r3, r2
 8002ff8:	009b      	lsls	r3, r3, #2
 8002ffa:	440b      	add	r3, r1
 8002ffc:	3324      	adds	r3, #36	@ 0x24
 8002ffe:	681b      	ldr	r3, [r3, #0]
 8003000:	2b00      	cmp	r3, #0
 8003002:	d108      	bne.n	8003016 <HAL_PCD_IRQHandler+0x3a2>
              {
                /* prepare to rx more setup packets */
                (void)USB_EP0_OutStart(hpcd->Instance, 1U, (uint8_t *)hpcd->Setup);
 8003004:	687b      	ldr	r3, [r7, #4]
 8003006:	6818      	ldr	r0, [r3, #0]
 8003008:	687b      	ldr	r3, [r7, #4]
 800300a:	f203 439c 	addw	r3, r3, #1180	@ 0x49c
 800300e:	461a      	mov	r2, r3
 8003010:	2101      	movs	r1, #1
 8003012:	f003 fcef 	bl	80069f4 <USB_EP0_OutStart>
            }

#if (USE_HAL_PCD_REGISTER_CALLBACKS == 1U)
            hpcd->DataInStageCallback(hpcd, (uint8_t)epnum);
#else
            HAL_PCD_DataInStageCallback(hpcd, (uint8_t)epnum);
 8003016:	6a7b      	ldr	r3, [r7, #36]	@ 0x24
 8003018:	b2db      	uxtb	r3, r3
 800301a:	4619      	mov	r1, r3
 800301c:	6878      	ldr	r0, [r7, #4]
 800301e:	f006 f8ca 	bl	80091b6 <HAL_PCD_DataInStageCallback>
#endif /* USE_HAL_PCD_REGISTER_CALLBACKS */
          }
          if ((epint & USB_OTG_DIEPINT_TOC) == USB_OTG_DIEPINT_TOC)
 8003022:	693b      	ldr	r3, [r7, #16]
 8003024:	f003 0308 	and.w	r3, r3, #8
 8003028:	2b00      	cmp	r3, #0
 800302a:	d008      	beq.n	800303e <HAL_PCD_IRQHandler+0x3ca>
          {
            CLEAR_IN_EP_INTR(epnum, USB_OTG_DIEPINT_TOC);
 800302c:	6a7b      	ldr	r3, [r7, #36]	@ 0x24
 800302e:	015a      	lsls	r2, r3, #5
 8003030:	69fb      	ldr	r3, [r7, #28]
 8003032:	4413      	add	r3, r2
 8003034:	f503 6310 	add.w	r3, r3, #2304	@ 0x900
 8003038:	461a      	mov	r2, r3
 800303a:	2308      	movs	r3, #8
 800303c:	6093      	str	r3, [r2, #8]
          }
          if ((epint & USB_OTG_DIEPINT_ITTXFE) == USB_OTG_DIEPINT_ITTXFE)
 800303e:	693b      	ldr	r3, [r7, #16]
 8003040:	f003 0310 	and.w	r3, r3, #16
 8003044:	2b00      	cmp	r3, #0
 8003046:	d008      	beq.n	800305a <HAL_PCD_IRQHandler+0x3e6>
          {
            CLEAR_IN_EP_INTR(epnum, USB_OTG_DIEPINT_ITTXFE);
 8003048:	6a7b      	ldr	r3, [r7, #36]	@ 0x24
 800304a:	015a      	lsls	r2, r3, #5
 800304c:	69fb      	ldr	r3, [r7, #28]
 800304e:	4413      	add	r3, r2
 8003050:	f503 6310 	add.w	r3, r3, #2304	@ 0x900
 8003054:	461a      	mov	r2, r3
 8003056:	2310      	movs	r3, #16
 8003058:	6093      	str	r3, [r2, #8]
          }
          if ((epint & USB_OTG_DIEPINT_INEPNE) == USB_OTG_DIEPINT_INEPNE)
 800305a:	693b      	ldr	r3, [r7, #16]
 800305c:	f003 0340 	and.w	r3, r3, #64	@ 0x40
 8003060:	2b00      	cmp	r3, #0
 8003062:	d008      	beq.n	8003076 <HAL_PCD_IRQHandler+0x402>
          {
            CLEAR_IN_EP_INTR(epnum, USB_OTG_DIEPINT_INEPNE);
 8003064:	6a7b      	ldr	r3, [r7, #36]	@ 0x24
 8003066:	015a      	lsls	r2, r3, #5
 8003068:	69fb      	ldr	r3, [r7, #28]
 800306a:	4413      	add	r3, r2
 800306c:	f503 6310 	add.w	r3, r3, #2304	@ 0x900
 8003070:	461a      	mov	r2, r3
 8003072:	2340      	movs	r3, #64	@ 0x40
 8003074:	6093      	str	r3, [r2, #8]
          }
          if ((epint & USB_OTG_DIEPINT_EPDISD) == USB_OTG_DIEPINT_EPDISD)
 8003076:	693b      	ldr	r3, [r7, #16]
 8003078:	f003 0302 	and.w	r3, r3, #2
 800307c:	2b00      	cmp	r3, #0
 800307e:	d023      	beq.n	80030c8 <HAL_PCD_IRQHandler+0x454>
          {
            (void)USB_FlushTxFifo(USBx, epnum);
 8003080:	6a79      	ldr	r1, [r7, #36]	@ 0x24
 8003082:	6a38      	ldr	r0, [r7, #32]
 8003084:	f002 fcd6 	bl	8005a34 <USB_FlushTxFifo>

            ep = &hpcd->IN_ep[epnum];
 8003088:	6a7a      	ldr	r2, [r7, #36]	@ 0x24
 800308a:	4613      	mov	r3, r2
 800308c:	00db      	lsls	r3, r3, #3
 800308e:	4413      	add	r3, r2
 8003090:	009b      	lsls	r3, r3, #2
 8003092:	3310      	adds	r3, #16
 8003094:	687a      	ldr	r2, [r7, #4]
 8003096:	4413      	add	r3, r2
 8003098:	3304      	adds	r3, #4
 800309a:	617b      	str	r3, [r7, #20]

            if (ep->is_iso_incomplete == 1U)
 800309c:	697b      	ldr	r3, [r7, #20]
 800309e:	78db      	ldrb	r3, [r3, #3]
 80030a0:	2b01      	cmp	r3, #1
 80030a2:	d108      	bne.n	80030b6 <HAL_PCD_IRQHandler+0x442>
            {
              ep->is_iso_incomplete = 0U;
 80030a4:	697b      	ldr	r3, [r7, #20]
 80030a6:	2200      	movs	r2, #0
 80030a8:	70da      	strb	r2, [r3, #3]

#if (USE_HAL_PCD_REGISTER_CALLBACKS == 1U)
              hpcd->ISOINIncompleteCallback(hpcd, (uint8_t)epnum);
#else
              HAL_PCD_ISOINIncompleteCallback(hpcd, (uint8_t)epnum);
 80030aa:	6a7b      	ldr	r3, [r7, #36]	@ 0x24
 80030ac:	b2db      	uxtb	r3, r3
 80030ae:	4619      	mov	r1, r3
 80030b0:	6878      	ldr	r0, [r7, #4]
 80030b2:	f006 f90d 	bl	80092d0 <HAL_PCD_ISOINIncompleteCallback>
#endif /* USE_HAL_PCD_REGISTER_CALLBACKS */
            }

            CLEAR_IN_EP_INTR(epnum, USB_OTG_DIEPINT_EPDISD);
 80030b6:	6a7b      	ldr	r3, [r7, #36]	@ 0x24
 80030b8:	015a      	lsls	r2, r3, #5
 80030ba:	69fb      	ldr	r3, [r7, #28]
 80030bc:	4413      	add	r3, r2
 80030be:	f503 6310 	add.w	r3, r3, #2304	@ 0x900
 80030c2:	461a      	mov	r2, r3
 80030c4:	2302      	movs	r3, #2
 80030c6:	6093      	str	r3, [r2, #8]
          }
          if ((epint & USB_OTG_DIEPINT_TXFE) == USB_OTG_DIEPINT_TXFE)
 80030c8:	693b      	ldr	r3, [r7, #16]
 80030ca:	f003 0380 	and.w	r3, r3, #128	@ 0x80
 80030ce:	2b00      	cmp	r3, #0
 80030d0:	d003      	beq.n	80030da <HAL_PCD_IRQHandler+0x466>
          {
            (void)PCD_WriteEmptyTxFifo(hpcd, epnum);
 80030d2:	6a79      	ldr	r1, [r7, #36]	@ 0x24
 80030d4:	6878      	ldr	r0, [r7, #4]
 80030d6:	f000 fcbd 	bl	8003a54 <PCD_WriteEmptyTxFifo>
          }
        }
        epnum++;
 80030da:	6a7b      	ldr	r3, [r7, #36]	@ 0x24
 80030dc:	3301      	adds	r3, #1
 80030de:	627b      	str	r3, [r7, #36]	@ 0x24
        ep_intr >>= 1U;
 80030e0:	6abb      	ldr	r3, [r7, #40]	@ 0x28
 80030e2:	085b      	lsrs	r3, r3, #1
 80030e4:	62bb      	str	r3, [r7, #40]	@ 0x28
      while (ep_intr != 0U)
 80030e6:	6abb      	ldr	r3, [r7, #40]	@ 0x28
 80030e8:	2b00      	cmp	r3, #0
 80030ea:	f47f af2e 	bne.w	8002f4a <HAL_PCD_IRQHandler+0x2d6>
      }
    }

    /* Handle Resume Interrupt */
    if (__HAL_PCD_GET_FLAG(hpcd, USB_OTG_GINTSTS_WKUINT))
 80030ee:	687b      	ldr	r3, [r7, #4]
 80030f0:	681b      	ldr	r3, [r3, #0]
 80030f2:	4618      	mov	r0, r3
 80030f4:	f003 fbba 	bl	800686c <USB_ReadInterrupts>
 80030f8:	4603      	mov	r3, r0
 80030fa:	f003 4300 	and.w	r3, r3, #2147483648	@ 0x80000000
 80030fe:	f1b3 4f00 	cmp.w	r3, #2147483648	@ 0x80000000
 8003102:	d122      	bne.n	800314a <HAL_PCD_IRQHandler+0x4d6>
    {
      /* Clear the Remote Wake-up Signaling */
      USBx_DEVICE->DCTL &= ~USB_OTG_DCTL_RWUSIG;
 8003104:	69fb      	ldr	r3, [r7, #28]
 8003106:	f503 6300 	add.w	r3, r3, #2048	@ 0x800
 800310a:	685b      	ldr	r3, [r3, #4]
 800310c:	69fa      	ldr	r2, [r7, #28]
 800310e:	f502 6200 	add.w	r2, r2, #2048	@ 0x800
 8003112:	f023 0301 	bic.w	r3, r3, #1
 8003116:	6053      	str	r3, [r2, #4]

      if (hpcd->LPM_State == LPM_L1)
 8003118:	687b      	ldr	r3, [r7, #4]
 800311a:	f893 34cc 	ldrb.w	r3, [r3, #1228]	@ 0x4cc
 800311e:	2b01      	cmp	r3, #1
 8003120:	d108      	bne.n	8003134 <HAL_PCD_IRQHandler+0x4c0>
      {
        hpcd->LPM_State = LPM_L0;
 8003122:	687b      	ldr	r3, [r7, #4]
 8003124:	2200      	movs	r2, #0
 8003126:	f883 24cc 	strb.w	r2, [r3, #1228]	@ 0x4cc

#if (USE_HAL_PCD_REGISTER_CALLBACKS == 1U)
        hpcd->LPMCallback(hpcd, PCD_LPM_L0_ACTIVE);
#else
        HAL_PCDEx_LPM_Callback(hpcd, PCD_LPM_L0_ACTIVE);
 800312a:	2100      	movs	r1, #0
 800312c:	6878      	ldr	r0, [r7, #4]
 800312e:	f000 fea3 	bl	8003e78 <HAL_PCDEx_LPM_Callback>
 8003132:	e002      	b.n	800313a <HAL_PCD_IRQHandler+0x4c6>
      else
      {
#if (USE_HAL_PCD_REGISTER_CALLBACKS == 1U)
        hpcd->ResumeCallback(hpcd);
#else
        HAL_PCD_ResumeCallback(hpcd);
 8003134:	6878      	ldr	r0, [r7, #4]
 8003136:	f006 f8ab 	bl	8009290 <HAL_PCD_ResumeCallback>
#endif /* USE_HAL_PCD_REGISTER_CALLBACKS */
      }

      __HAL_PCD_CLEAR_FLAG(hpcd, USB_OTG_GINTSTS_WKUINT);
 800313a:	687b      	ldr	r3, [r7, #4]
 800313c:	681b      	ldr	r3, [r3, #0]
 800313e:	695a      	ldr	r2, [r3, #20]
 8003140:	687b      	ldr	r3, [r7, #4]
 8003142:	681b      	ldr	r3, [r3, #0]
 8003144:	f002 4200 	and.w	r2, r2, #2147483648	@ 0x80000000
 8003148:	615a      	str	r2, [r3, #20]
    }

    /* Handle Suspend Interrupt */
    if (__HAL_PCD_GET_FLAG(hpcd, USB_OTG_GINTSTS_USBSUSP))
 800314a:	687b      	ldr	r3, [r7, #4]
 800314c:	681b      	ldr	r3, [r3, #0]
 800314e:	4618      	mov	r0, r3
 8003150:	f003 fb8c 	bl	800686c <USB_ReadInterrupts>
 8003154:	4603      	mov	r3, r0
 8003156:	f403 6300 	and.w	r3, r3, #2048	@ 0x800
 800315a:	f5b3 6f00 	cmp.w	r3, #2048	@ 0x800
 800315e:	d112      	bne.n	8003186 <HAL_PCD_IRQHandler+0x512>
    {
      if ((USBx_DEVICE->DSTS & USB_OTG_DSTS_SUSPSTS) == USB_OTG_DSTS_SUSPSTS)
 8003160:	69fb      	ldr	r3, [r7, #28]
 8003162:	f503 6300 	add.w	r3, r3, #2048	@ 0x800
 8003166:	689b      	ldr	r3, [r3, #8]
 8003168:	f003 0301 	and.w	r3, r3, #1
 800316c:	2b01      	cmp	r3, #1
 800316e:	d102      	bne.n	8003176 <HAL_PCD_IRQHandler+0x502>
      {
#if (USE_HAL_PCD_REGISTER_CALLBACKS == 1U)
        hpcd->SuspendCallback(hpcd);
#else
        HAL_PCD_SuspendCallback(hpcd);
 8003170:	6878      	ldr	r0, [r7, #4]
 8003172:	f006 f867 	bl	8009244 <HAL_PCD_SuspendCallback>
#endif /* USE_HAL_PCD_REGISTER_CALLBACKS */
      }
      __HAL_PCD_CLEAR_FLAG(hpcd, USB_OTG_GINTSTS_USBSUSP);
 8003176:	687b      	ldr	r3, [r7, #4]
 8003178:	681b      	ldr	r3, [r3, #0]
 800317a:	695a      	ldr	r2, [r3, #20]
 800317c:	687b      	ldr	r3, [r7, #4]
 800317e:	681b      	ldr	r3, [r3, #0]
 8003180:	f402 6200 	and.w	r2, r2, #2048	@ 0x800
 8003184:	615a      	str	r2, [r3, #20]
    }
#endif /* defined(STM32F446xx) || defined(STM32F469xx) || defined(STM32F479xx) || defined(STM32F412Zx) ||
          defined(STM32F412Vx) || defined(STM32F412Rx) || defined(STM32F412Cx) || defined(STM32F413xx) ||
          defined(STM32F423xx) */
    /* Handle Reset Interrupt */
    if (__HAL_PCD_GET_FLAG(hpcd, USB_OTG_GINTSTS_USBRST))
 8003186:	687b      	ldr	r3, [r7, #4]
 8003188:	681b      	ldr	r3, [r3, #0]
 800318a:	4618      	mov	r0, r3
 800318c:	f003 fb6e 	bl	800686c <USB_ReadInterrupts>
 8003190:	4603      	mov	r3, r0
 8003192:	f403 5380 	and.w	r3, r3, #4096	@ 0x1000
 8003196:	f5b3 5f80 	cmp.w	r3, #4096	@ 0x1000
 800319a:	f040 80b7 	bne.w	800330c <HAL_PCD_IRQHandler+0x698>
    {
      USBx_DEVICE->DCTL &= ~USB_OTG_DCTL_RWUSIG;
 800319e:	69fb      	ldr	r3, [r7, #28]
 80031a0:	f503 6300 	add.w	r3, r3, #2048	@ 0x800
 80031a4:	685b      	ldr	r3, [r3, #4]
 80031a6:	69fa      	ldr	r2, [r7, #28]
 80031a8:	f502 6200 	add.w	r2, r2, #2048	@ 0x800
 80031ac:	f023 0301 	bic.w	r3, r3, #1
 80031b0:	6053      	str	r3, [r2, #4]
      (void)USB_FlushTxFifo(hpcd->Instance, 0x10U);
 80031b2:	687b      	ldr	r3, [r7, #4]
 80031b4:	681b      	ldr	r3, [r3, #0]
 80031b6:	2110      	movs	r1, #16
 80031b8:	4618      	mov	r0, r3
 80031ba:	f002 fc3b 	bl	8005a34 <USB_FlushTxFifo>

      for (i = 0U; i < hpcd->Init.dev_endpoints; i++)
 80031be:	2300      	movs	r3, #0
 80031c0:	62fb      	str	r3, [r7, #44]	@ 0x2c
 80031c2:	e046      	b.n	8003252 <HAL_PCD_IRQHandler+0x5de>
      {
        USBx_INEP(i)->DIEPINT = 0xFB7FU;
 80031c4:	6afb      	ldr	r3, [r7, #44]	@ 0x2c
 80031c6:	015a      	lsls	r2, r3, #5
 80031c8:	69fb      	ldr	r3, [r7, #28]
 80031ca:	4413      	add	r3, r2
 80031cc:	f503 6310 	add.w	r3, r3, #2304	@ 0x900
 80031d0:	461a      	mov	r2, r3
 80031d2:	f64f 337f 	movw	r3, #64383	@ 0xfb7f
 80031d6:	6093      	str	r3, [r2, #8]
        USBx_INEP(i)->DIEPCTL &= ~USB_OTG_DIEPCTL_STALL;
 80031d8:	6afb      	ldr	r3, [r7, #44]	@ 0x2c
 80031da:	015a      	lsls	r2, r3, #5
 80031dc:	69fb      	ldr	r3, [r7, #28]
 80031de:	4413      	add	r3, r2
 80031e0:	f503 6310 	add.w	r3, r3, #2304	@ 0x900
 80031e4:	681b      	ldr	r3, [r3, #0]
 80031e6:	6afa      	ldr	r2, [r7, #44]	@ 0x2c
 80031e8:	0151      	lsls	r1, r2, #5
 80031ea:	69fa      	ldr	r2, [r7, #28]
 80031ec:	440a      	add	r2, r1
 80031ee:	f502 6210 	add.w	r2, r2, #2304	@ 0x900
 80031f2:	f423 1300 	bic.w	r3, r3, #2097152	@ 0x200000
 80031f6:	6013      	str	r3, [r2, #0]
        USBx_OUTEP(i)->DOEPINT = 0xFB7FU;
 80031f8:	6afb      	ldr	r3, [r7, #44]	@ 0x2c
 80031fa:	015a      	lsls	r2, r3, #5
 80031fc:	69fb      	ldr	r3, [r7, #28]
 80031fe:	4413      	add	r3, r2
 8003200:	f503 6330 	add.w	r3, r3, #2816	@ 0xb00
 8003204:	461a      	mov	r2, r3
 8003206:	f64f 337f 	movw	r3, #64383	@ 0xfb7f
 800320a:	6093      	str	r3, [r2, #8]
        USBx_OUTEP(i)->DOEPCTL &= ~USB_OTG_DOEPCTL_STALL;
 800320c:	6afb      	ldr	r3, [r7, #44]	@ 0x2c
 800320e:	015a      	lsls	r2, r3, #5
 8003210:	69fb      	ldr	r3, [r7, #28]
 8003212:	4413      	add	r3, r2
 8003214:	f503 6330 	add.w	r3, r3, #2816	@ 0xb00
 8003218:	681b      	ldr	r3, [r3, #0]
 800321a:	6afa      	ldr	r2, [r7, #44]	@ 0x2c
 800321c:	0151      	lsls	r1, r2, #5
 800321e:	69fa      	ldr	r2, [r7, #28]
 8003220:	440a      	add	r2, r1
 8003222:	f502 6230 	add.w	r2, r2, #2816	@ 0xb00
 8003226:	f423 1300 	bic.w	r3, r3, #2097152	@ 0x200000
 800322a:	6013      	str	r3, [r2, #0]
        USBx_OUTEP(i)->DOEPCTL |= USB_OTG_DOEPCTL_SNAK;
 800322c:	6afb      	ldr	r3, [r7, #44]	@ 0x2c
 800322e:	015a      	lsls	r2, r3, #5
 8003230:	69fb      	ldr	r3, [r7, #28]
 8003232:	4413      	add	r3, r2
 8003234:	f503 6330 	add.w	r3, r3, #2816	@ 0xb00
 8003238:	681b      	ldr	r3, [r3, #0]
 800323a:	6afa      	ldr	r2, [r7, #44]	@ 0x2c
 800323c:	0151      	lsls	r1, r2, #5
 800323e:	69fa      	ldr	r2, [r7, #28]
 8003240:	440a      	add	r2, r1
 8003242:	f502 6230 	add.w	r2, r2, #2816	@ 0xb00
 8003246:	f043 6300 	orr.w	r3, r3, #134217728	@ 0x8000000
 800324a:	6013      	str	r3, [r2, #0]
      for (i = 0U; i < hpcd->Init.dev_endpoints; i++)
 800324c:	6afb      	ldr	r3, [r7, #44]	@ 0x2c
 800324e:	3301      	adds	r3, #1
 8003250:	62fb      	str	r3, [r7, #44]	@ 0x2c
 8003252:	687b      	ldr	r3, [r7, #4]
 8003254:	791b      	ldrb	r3, [r3, #4]
 8003256:	461a      	mov	r2, r3
 8003258:	6afb      	ldr	r3, [r7, #44]	@ 0x2c
 800325a:	4293      	cmp	r3, r2
 800325c:	d3b2      	bcc.n	80031c4 <HAL_PCD_IRQHandler+0x550>
      }
      USBx_DEVICE->DAINTMSK |= 0x10001U;
 800325e:	69fb      	ldr	r3, [r7, #28]
 8003260:	f503 6300 	add.w	r3, r3, #2048	@ 0x800
 8003264:	69db      	ldr	r3, [r3, #28]
 8003266:	69fa      	ldr	r2, [r7, #28]
 8003268:	f502 6200 	add.w	r2, r2, #2048	@ 0x800
 800326c:	f043 1301 	orr.w	r3, r3, #65537	@ 0x10001
 8003270:	61d3      	str	r3, [r2, #28]

      if (hpcd->Init.use_dedicated_ep1 != 0U)
 8003272:	687b      	ldr	r3, [r7, #4]
 8003274:	7bdb      	ldrb	r3, [r3, #15]
 8003276:	2b00      	cmp	r3, #0
 8003278:	d016      	beq.n	80032a8 <HAL_PCD_IRQHandler+0x634>
      {
        USBx_DEVICE->DOUTEP1MSK |= USB_OTG_DOEPMSK_STUPM |
 800327a:	69fb      	ldr	r3, [r7, #28]
 800327c:	f503 6300 	add.w	r3, r3, #2048	@ 0x800
 8003280:	f8d3 3084 	ldr.w	r3, [r3, #132]	@ 0x84
 8003284:	69fa      	ldr	r2, [r7, #28]
 8003286:	f502 6200 	add.w	r2, r2, #2048	@ 0x800
 800328a:	f043 030b 	orr.w	r3, r3, #11
 800328e:	f8c2 3084 	str.w	r3, [r2, #132]	@ 0x84
                                   USB_OTG_DOEPMSK_XFRCM |
                                   USB_OTG_DOEPMSK_EPDM;

        USBx_DEVICE->DINEP1MSK |= USB_OTG_DIEPMSK_TOM |
 8003292:	69fb      	ldr	r3, [r7, #28]
 8003294:	f503 6300 	add.w	r3, r3, #2048	@ 0x800
 8003298:	6c5b      	ldr	r3, [r3, #68]	@ 0x44
 800329a:	69fa      	ldr	r2, [r7, #28]
 800329c:	f502 6200 	add.w	r2, r2, #2048	@ 0x800
 80032a0:	f043 030b 	orr.w	r3, r3, #11
 80032a4:	6453      	str	r3, [r2, #68]	@ 0x44
 80032a6:	e015      	b.n	80032d4 <HAL_PCD_IRQHandler+0x660>
                                  USB_OTG_DIEPMSK_XFRCM |
                                  USB_OTG_DIEPMSK_EPDM;
      }
      else
      {
        USBx_DEVICE->DOEPMSK |= USB_OTG_DOEPMSK_STUPM |
 80032a8:	69fb      	ldr	r3, [r7, #28]
 80032aa:	f503 6300 	add.w	r3, r3, #2048	@ 0x800
 80032ae:	695b      	ldr	r3, [r3, #20]
 80032b0:	69fa      	ldr	r2, [r7, #28]
 80032b2:	f502 6200 	add.w	r2, r2, #2048	@ 0x800
 80032b6:	f443 5300 	orr.w	r3, r3, #8192	@ 0x2000
 80032ba:	f043 032b 	orr.w	r3, r3, #43	@ 0x2b
 80032be:	6153      	str	r3, [r2, #20]
                                USB_OTG_DOEPMSK_XFRCM |
                                USB_OTG_DOEPMSK_EPDM |
                                USB_OTG_DOEPMSK_OTEPSPRM |
                                USB_OTG_DOEPMSK_NAKM;

        USBx_DEVICE->DIEPMSK |= USB_OTG_DIEPMSK_TOM |
 80032c0:	69fb      	ldr	r3, [r7, #28]
 80032c2:	f503 6300 	add.w	r3, r3, #2048	@ 0x800
 80032c6:	691b      	ldr	r3, [r3, #16]
 80032c8:	69fa      	ldr	r2, [r7, #28]
 80032ca:	f502 6200 	add.w	r2, r2, #2048	@ 0x800
 80032ce:	f043 030b 	orr.w	r3, r3, #11
 80032d2:	6113      	str	r3, [r2, #16]
                                USB_OTG_DIEPMSK_XFRCM |
                                USB_OTG_DIEPMSK_EPDM;
      }

      /* Set Default Address to 0 */
      USBx_DEVICE->DCFG &= ~USB_OTG_DCFG_DAD;
 80032d4:	69fb      	ldr	r3, [r7, #28]
 80032d6:	f503 6300 	add.w	r3, r3, #2048	@ 0x800
 80032da:	681b      	ldr	r3, [r3, #0]
 80032dc:	69fa      	ldr	r2, [r7, #28]
 80032de:	f502 6200 	add.w	r2, r2, #2048	@ 0x800
 80032e2:	f423 63fe 	bic.w	r3, r3, #2032	@ 0x7f0
 80032e6:	6013      	str	r3, [r2, #0]

      /* setup EP0 to receive SETUP packets */
      (void)USB_EP0_OutStart(hpcd->Instance, (uint8_t)hpcd->Init.dma_enable,
 80032e8:	687b      	ldr	r3, [r7, #4]
 80032ea:	6818      	ldr	r0, [r3, #0]
 80032ec:	687b      	ldr	r3, [r7, #4]
 80032ee:	7999      	ldrb	r1, [r3, #6]
                             (uint8_t *)hpcd->Setup);
 80032f0:	687b      	ldr	r3, [r7, #4]
 80032f2:	f203 439c 	addw	r3, r3, #1180	@ 0x49c
      (void)USB_EP0_OutStart(hpcd->Instance, (uint8_t)hpcd->Init.dma_enable,
 80032f6:	461a      	mov	r2, r3
 80032f8:	f003 fb7c 	bl	80069f4 <USB_EP0_OutStart>

      __HAL_PCD_CLEAR_FLAG(hpcd, USB_OTG_GINTSTS_USBRST);
 80032fc:	687b      	ldr	r3, [r7, #4]
 80032fe:	681b      	ldr	r3, [r3, #0]
 8003300:	695a      	ldr	r2, [r3, #20]
 8003302:	687b      	ldr	r3, [r7, #4]
 8003304:	681b      	ldr	r3, [r3, #0]
 8003306:	f402 5280 	and.w	r2, r2, #4096	@ 0x1000
 800330a:	615a      	str	r2, [r3, #20]
    }

    /* Handle Enumeration done Interrupt */
    if (__HAL_PCD_GET_FLAG(hpcd, USB_OTG_GINTSTS_ENUMDNE))
 800330c:	687b      	ldr	r3, [r7, #4]
 800330e:	681b      	ldr	r3, [r3, #0]
 8003310:	4618      	mov	r0, r3
 8003312:	f003 faab 	bl	800686c <USB_ReadInterrupts>
 8003316:	4603      	mov	r3, r0
 8003318:	f403 5300 	and.w	r3, r3, #8192	@ 0x2000
 800331c:	f5b3 5f00 	cmp.w	r3, #8192	@ 0x2000
 8003320:	d123      	bne.n	800336a <HAL_PCD_IRQHandler+0x6f6>
    {
      (void)USB_ActivateSetup(hpcd->Instance);
 8003322:	687b      	ldr	r3, [r7, #4]
 8003324:	681b      	ldr	r3, [r3, #0]
 8003326:	4618      	mov	r0, r3
 8003328:	f003 fb41 	bl	80069ae <USB_ActivateSetup>
      hpcd->Init.speed = USB_GetDevSpeed(hpcd->Instance);
 800332c:	687b      	ldr	r3, [r7, #4]
 800332e:	681b      	ldr	r3, [r3, #0]
 8003330:	4618      	mov	r0, r3
 8003332:	f002 fbf8 	bl	8005b26 <USB_GetDevSpeed>
 8003336:	4603      	mov	r3, r0
 8003338:	461a      	mov	r2, r3
 800333a:	687b      	ldr	r3, [r7, #4]
 800333c:	71da      	strb	r2, [r3, #7]

      /* Set USB Turnaround time */
      (void)USB_SetTurnaroundTime(hpcd->Instance,
 800333e:	687b      	ldr	r3, [r7, #4]
 8003340:	681c      	ldr	r4, [r3, #0]
 8003342:	f001 fa09 	bl	8004758 <HAL_RCC_GetHCLKFreq>
 8003346:	4601      	mov	r1, r0
 8003348:	687b      	ldr	r3, [r7, #4]
 800334a:	79db      	ldrb	r3, [r3, #7]
 800334c:	461a      	mov	r2, r3
 800334e:	4620      	mov	r0, r4
 8003350:	f002 f8fc 	bl	800554c <USB_SetTurnaroundTime>
                                  (uint8_t)hpcd->Init.speed);

#if (USE_HAL_PCD_REGISTER_CALLBACKS == 1U)
      hpcd->ResetCallback(hpcd);
#else
      HAL_PCD_ResetCallback(hpcd);
 8003354:	6878      	ldr	r0, [r7, #4]
 8003356:	f005 ff56 	bl	8009206 <HAL_PCD_ResetCallback>
#endif /* USE_HAL_PCD_REGISTER_CALLBACKS */

      __HAL_PCD_CLEAR_FLAG(hpcd, USB_OTG_GINTSTS_ENUMDNE);
 800335a:	687b      	ldr	r3, [r7, #4]
 800335c:	681b      	ldr	r3, [r3, #0]
 800335e:	695a      	ldr	r2, [r3, #20]
 8003360:	687b      	ldr	r3, [r7, #4]
 8003362:	681b      	ldr	r3, [r3, #0]
 8003364:	f402 5200 	and.w	r2, r2, #8192	@ 0x2000
 8003368:	615a      	str	r2, [r3, #20]
    }

    /* Handle SOF Interrupt */
    if (__HAL_PCD_GET_FLAG(hpcd, USB_OTG_GINTSTS_SOF))
 800336a:	687b      	ldr	r3, [r7, #4]
 800336c:	681b      	ldr	r3, [r3, #0]
 800336e:	4618      	mov	r0, r3
 8003370:	f003 fa7c 	bl	800686c <USB_ReadInterrupts>
 8003374:	4603      	mov	r3, r0
 8003376:	f003 0308 	and.w	r3, r3, #8
 800337a:	2b08      	cmp	r3, #8
 800337c:	d10a      	bne.n	8003394 <HAL_PCD_IRQHandler+0x720>
    {
#if (USE_HAL_PCD_REGISTER_CALLBACKS == 1U)
      hpcd->SOFCallback(hpcd);
#else
      HAL_PCD_SOFCallback(hpcd);
 800337e:	6878      	ldr	r0, [r7, #4]
 8003380:	f005 ff33 	bl	80091ea <HAL_PCD_SOFCallback>
#endif /* USE_HAL_PCD_REGISTER_CALLBACKS */

      __HAL_PCD_CLEAR_FLAG(hpcd, USB_OTG_GINTSTS_SOF);
 8003384:	687b      	ldr	r3, [r7, #4]
 8003386:	681b      	ldr	r3, [r3, #0]
 8003388:	695a      	ldr	r2, [r3, #20]
 800338a:	687b      	ldr	r3, [r7, #4]
 800338c:	681b      	ldr	r3, [r3, #0]
 800338e:	f002 0208 	and.w	r2, r2, #8
 8003392:	615a      	str	r2, [r3, #20]
    }

    /* Handle Global OUT NAK effective Interrupt */
    if (__HAL_PCD_GET_FLAG(hpcd, USB_OTG_GINTSTS_BOUTNAKEFF))
 8003394:	687b      	ldr	r3, [r7, #4]
 8003396:	681b      	ldr	r3, [r3, #0]
 8003398:	4618      	mov	r0, r3
 800339a:	f003 fa67 	bl	800686c <USB_ReadInterrupts>
 800339e:	4603      	mov	r3, r0
 80033a0:	f003 0380 	and.w	r3, r3, #128	@ 0x80
 80033a4:	2b80      	cmp	r3, #128	@ 0x80
 80033a6:	d123      	bne.n	80033f0 <HAL_PCD_IRQHandler+0x77c>
    {
      USBx->GINTMSK &= ~USB_OTG_GINTMSK_GONAKEFFM;
 80033a8:	6a3b      	ldr	r3, [r7, #32]
 80033aa:	699b      	ldr	r3, [r3, #24]
 80033ac:	f023 0280 	bic.w	r2, r3, #128	@ 0x80
 80033b0:	6a3b      	ldr	r3, [r7, #32]
 80033b2:	619a      	str	r2, [r3, #24]

      for (epnum = 1U; epnum < hpcd->Init.dev_endpoints; epnum++)
 80033b4:	2301      	movs	r3, #1
 80033b6:	627b      	str	r3, [r7, #36]	@ 0x24
 80033b8:	e014      	b.n	80033e4 <HAL_PCD_IRQHandler+0x770>
      {
        if (hpcd->OUT_ep[epnum].is_iso_incomplete == 1U)
 80033ba:	6879      	ldr	r1, [r7, #4]
 80033bc:	6a7a      	ldr	r2, [r7, #36]	@ 0x24
 80033be:	4613      	mov	r3, r2
 80033c0:	00db      	lsls	r3, r3, #3
 80033c2:	4413      	add	r3, r2
 80033c4:	009b      	lsls	r3, r3, #2
 80033c6:	440b      	add	r3, r1
 80033c8:	f203 2357 	addw	r3, r3, #599	@ 0x257
 80033cc:	781b      	ldrb	r3, [r3, #0]
 80033ce:	2b01      	cmp	r3, #1
 80033d0:	d105      	bne.n	80033de <HAL_PCD_IRQHandler+0x76a>
        {
          /* Abort current transaction and disable the EP */
          (void)HAL_PCD_EP_Abort(hpcd, (uint8_t)epnum);
 80033d2:	6a7b      	ldr	r3, [r7, #36]	@ 0x24
 80033d4:	b2db      	uxtb	r3, r3
 80033d6:	4619      	mov	r1, r3
 80033d8:	6878      	ldr	r0, [r7, #4]
 80033da:	f000 fb0a 	bl	80039f2 <HAL_PCD_EP_Abort>
      for (epnum = 1U; epnum < hpcd->Init.dev_endpoints; epnum++)
 80033de:	6a7b      	ldr	r3, [r7, #36]	@ 0x24
 80033e0:	3301      	adds	r3, #1
 80033e2:	627b      	str	r3, [r7, #36]	@ 0x24
 80033e4:	687b      	ldr	r3, [r7, #4]
 80033e6:	791b      	ldrb	r3, [r3, #4]
 80033e8:	461a      	mov	r2, r3
 80033ea:	6a7b      	ldr	r3, [r7, #36]	@ 0x24
 80033ec:	4293      	cmp	r3, r2
 80033ee:	d3e4      	bcc.n	80033ba <HAL_PCD_IRQHandler+0x746>
        }
      }
    }

    /* Handle Incomplete ISO IN Interrupt */
    if (__HAL_PCD_GET_FLAG(hpcd, USB_OTG_GINTSTS_IISOIXFR))
 80033f0:	687b      	ldr	r3, [r7, #4]
 80033f2:	681b      	ldr	r3, [r3, #0]
 80033f4:	4618      	mov	r0, r3
 80033f6:	f003 fa39 	bl	800686c <USB_ReadInterrupts>
 80033fa:	4603      	mov	r3, r0
 80033fc:	f403 1380 	and.w	r3, r3, #1048576	@ 0x100000
 8003400:	f5b3 1f80 	cmp.w	r3, #1048576	@ 0x100000
 8003404:	d13c      	bne.n	8003480 <HAL_PCD_IRQHandler+0x80c>
    {
      for (epnum = 1U; epnum < hpcd->Init.dev_endpoints; epnum++)
 8003406:	2301      	movs	r3, #1
 8003408:	627b      	str	r3, [r7, #36]	@ 0x24
 800340a:	e02b      	b.n	8003464 <HAL_PCD_IRQHandler+0x7f0>
      {
        RegVal = USBx_INEP(epnum)->DIEPCTL;
 800340c:	6a7b      	ldr	r3, [r7, #36]	@ 0x24
 800340e:	015a      	lsls	r2, r3, #5
 8003410:	69fb      	ldr	r3, [r7, #28]
 8003412:	4413      	add	r3, r2
 8003414:	f503 6310 	add.w	r3, r3, #2304	@ 0x900
 8003418:	681b      	ldr	r3, [r3, #0]
 800341a:	61bb      	str	r3, [r7, #24]

        if ((hpcd->IN_ep[epnum].type == EP_TYPE_ISOC) &&
 800341c:	6879      	ldr	r1, [r7, #4]
 800341e:	6a7a      	ldr	r2, [r7, #36]	@ 0x24
 8003420:	4613      	mov	r3, r2
 8003422:	00db      	lsls	r3, r3, #3
 8003424:	4413      	add	r3, r2
 8003426:	009b      	lsls	r3, r3, #2
 8003428:	440b      	add	r3, r1
 800342a:	3318      	adds	r3, #24
 800342c:	781b      	ldrb	r3, [r3, #0]
 800342e:	2b01      	cmp	r3, #1
 8003430:	d115      	bne.n	800345e <HAL_PCD_IRQHandler+0x7ea>
            ((RegVal & USB_OTG_DIEPCTL_EPENA) == USB_OTG_DIEPCTL_EPENA))
 8003432:	69bb      	ldr	r3, [r7, #24]
        if ((hpcd->IN_ep[epnum].type == EP_TYPE_ISOC) &&
 8003434:	2b00      	cmp	r3, #0
 8003436:	da12      	bge.n	800345e <HAL_PCD_IRQHandler+0x7ea>
        {
          hpcd->IN_ep[epnum].is_iso_incomplete = 1U;
 8003438:	6879      	ldr	r1, [r7, #4]
 800343a:	6a7a      	ldr	r2, [r7, #36]	@ 0x24
 800343c:	4613      	mov	r3, r2
 800343e:	00db      	lsls	r3, r3, #3
 8003440:	4413      	add	r3, r2
 8003442:	009b      	lsls	r3, r3, #2
 8003444:	440b      	add	r3, r1
 8003446:	3317      	adds	r3, #23
 8003448:	2201      	movs	r2, #1
 800344a:	701a      	strb	r2, [r3, #0]

          /* Abort current transaction and disable the EP */
          (void)HAL_PCD_EP_Abort(hpcd, (uint8_t)(epnum | 0x80U));
 800344c:	6a7b      	ldr	r3, [r7, #36]	@ 0x24
 800344e:	b2db      	uxtb	r3, r3
 8003450:	f063 037f 	orn	r3, r3, #127	@ 0x7f
 8003454:	b2db      	uxtb	r3, r3
 8003456:	4619      	mov	r1, r3
 8003458:	6878      	ldr	r0, [r7, #4]
 800345a:	f000 faca 	bl	80039f2 <HAL_PCD_EP_Abort>
      for (epnum = 1U; epnum < hpcd->Init.dev_endpoints; epnum++)
 800345e:	6a7b      	ldr	r3, [r7, #36]	@ 0x24
 8003460:	3301      	adds	r3, #1
 8003462:	627b      	str	r3, [r7, #36]	@ 0x24
 8003464:	687b      	ldr	r3, [r7, #4]
 8003466:	791b      	ldrb	r3, [r3, #4]
 8003468:	461a      	mov	r2, r3
 800346a:	6a7b      	ldr	r3, [r7, #36]	@ 0x24
 800346c:	4293      	cmp	r3, r2
 800346e:	d3cd      	bcc.n	800340c <HAL_PCD_IRQHandler+0x798>
        }
      }

      __HAL_PCD_CLEAR_FLAG(hpcd, USB_OTG_GINTSTS_IISOIXFR);
 8003470:	687b      	ldr	r3, [r7, #4]
 8003472:	681b      	ldr	r3, [r3, #0]
 8003474:	695a      	ldr	r2, [r3, #20]
 8003476:	687b      	ldr	r3, [r7, #4]
 8003478:	681b      	ldr	r3, [r3, #0]
 800347a:	f402 1280 	and.w	r2, r2, #1048576	@ 0x100000
 800347e:	615a      	str	r2, [r3, #20]
    }

    /* Handle Incomplete ISO OUT Interrupt */
    if (__HAL_PCD_GET_FLAG(hpcd, USB_OTG_GINTSTS_PXFR_INCOMPISOOUT))
 8003480:	687b      	ldr	r3, [r7, #4]
 8003482:	681b      	ldr	r3, [r3, #0]
 8003484:	4618      	mov	r0, r3
 8003486:	f003 f9f1 	bl	800686c <USB_ReadInterrupts>
 800348a:	4603      	mov	r3, r0
 800348c:	f403 1300 	and.w	r3, r3, #2097152	@ 0x200000
 8003490:	f5b3 1f00 	cmp.w	r3, #2097152	@ 0x200000
 8003494:	d156      	bne.n	8003544 <HAL_PCD_IRQHandler+0x8d0>
    {
      for (epnum = 1U; epnum < hpcd->Init.dev_endpoints; epnum++)
 8003496:	2301      	movs	r3, #1
 8003498:	627b      	str	r3, [r7, #36]	@ 0x24
 800349a:	e045      	b.n	8003528 <HAL_PCD_IRQHandler+0x8b4>
      {
        RegVal = USBx_OUTEP(epnum)->DOEPCTL;
 800349c:	6a7b      	ldr	r3, [r7, #36]	@ 0x24
 800349e:	015a      	lsls	r2, r3, #5
 80034a0:	69fb      	ldr	r3, [r7, #28]
 80034a2:	4413      	add	r3, r2
 80034a4:	f503 6330 	add.w	r3, r3, #2816	@ 0xb00
 80034a8:	681b      	ldr	r3, [r3, #0]
 80034aa:	61bb      	str	r3, [r7, #24]

        if ((hpcd->OUT_ep[epnum].type == EP_TYPE_ISOC) &&
 80034ac:	6879      	ldr	r1, [r7, #4]
 80034ae:	6a7a      	ldr	r2, [r7, #36]	@ 0x24
 80034b0:	4613      	mov	r3, r2
 80034b2:	00db      	lsls	r3, r3, #3
 80034b4:	4413      	add	r3, r2
 80034b6:	009b      	lsls	r3, r3, #2
 80034b8:	440b      	add	r3, r1
 80034ba:	f503 7316 	add.w	r3, r3, #600	@ 0x258
 80034be:	781b      	ldrb	r3, [r3, #0]
 80034c0:	2b01      	cmp	r3, #1
 80034c2:	d12e      	bne.n	8003522 <HAL_PCD_IRQHandler+0x8ae>
            ((RegVal & USB_OTG_DOEPCTL_EPENA) == USB_OTG_DOEPCTL_EPENA) &&
 80034c4:	69bb      	ldr	r3, [r7, #24]
        if ((hpcd->OUT_ep[epnum].type == EP_TYPE_ISOC) &&
 80034c6:	2b00      	cmp	r3, #0
 80034c8:	da2b      	bge.n	8003522 <HAL_PCD_IRQHandler+0x8ae>
            (((RegVal & (0x1U << 16)) >> 16U) == (hpcd->FrameNumber & 0x1U)))
 80034ca:	69bb      	ldr	r3, [r7, #24]
 80034cc:	0c1a      	lsrs	r2, r3, #16
 80034ce:	687b      	ldr	r3, [r7, #4]
 80034d0:	f8d3 34d4 	ldr.w	r3, [r3, #1236]	@ 0x4d4
 80034d4:	4053      	eors	r3, r2
 80034d6:	f003 0301 	and.w	r3, r3, #1
            ((RegVal & USB_OTG_DOEPCTL_EPENA) == USB_OTG_DOEPCTL_EPENA) &&
 80034da:	2b00      	cmp	r3, #0
 80034dc:	d121      	bne.n	8003522 <HAL_PCD_IRQHandler+0x8ae>
        {
          hpcd->OUT_ep[epnum].is_iso_incomplete = 1U;
 80034de:	6879      	ldr	r1, [r7, #4]
 80034e0:	6a7a      	ldr	r2, [r7, #36]	@ 0x24
 80034e2:	4613      	mov	r3, r2
 80034e4:	00db      	lsls	r3, r3, #3
 80034e6:	4413      	add	r3, r2
 80034e8:	009b      	lsls	r3, r3, #2
 80034ea:	440b      	add	r3, r1
 80034ec:	f203 2357 	addw	r3, r3, #599	@ 0x257
 80034f0:	2201      	movs	r2, #1
 80034f2:	701a      	strb	r2, [r3, #0]

          USBx->GINTMSK |= USB_OTG_GINTMSK_GONAKEFFM;
 80034f4:	6a3b      	ldr	r3, [r7, #32]
 80034f6:	699b      	ldr	r3, [r3, #24]
 80034f8:	f043 0280 	orr.w	r2, r3, #128	@ 0x80
 80034fc:	6a3b      	ldr	r3, [r7, #32]
 80034fe:	619a      	str	r2, [r3, #24]

          if ((USBx->GINTSTS & USB_OTG_GINTSTS_BOUTNAKEFF) == 0U)
 8003500:	6a3b      	ldr	r3, [r7, #32]
 8003502:	695b      	ldr	r3, [r3, #20]
 8003504:	f003 0380 	and.w	r3, r3, #128	@ 0x80
 8003508:	2b00      	cmp	r3, #0
 800350a:	d10a      	bne.n	8003522 <HAL_PCD_IRQHandler+0x8ae>
          {
            USBx_DEVICE->DCTL |= USB_OTG_DCTL_SGONAK;
 800350c:	69fb      	ldr	r3, [r7, #28]
 800350e:	f503 6300 	add.w	r3, r3, #2048	@ 0x800
 8003512:	685b      	ldr	r3, [r3, #4]
 8003514:	69fa      	ldr	r2, [r7, #28]
 8003516:	f502 6200 	add.w	r2, r2, #2048	@ 0x800
 800351a:	f443 7300 	orr.w	r3, r3, #512	@ 0x200
 800351e:	6053      	str	r3, [r2, #4]
            break;
 8003520:	e008      	b.n	8003534 <HAL_PCD_IRQHandler+0x8c0>
      for (epnum = 1U; epnum < hpcd->Init.dev_endpoints; epnum++)
 8003522:	6a7b      	ldr	r3, [r7, #36]	@ 0x24
 8003524:	3301      	adds	r3, #1
 8003526:	627b      	str	r3, [r7, #36]	@ 0x24
 8003528:	687b      	ldr	r3, [r7, #4]
 800352a:	791b      	ldrb	r3, [r3, #4]
 800352c:	461a      	mov	r2, r3
 800352e:	6a7b      	ldr	r3, [r7, #36]	@ 0x24
 8003530:	4293      	cmp	r3, r2
 8003532:	d3b3      	bcc.n	800349c <HAL_PCD_IRQHandler+0x828>
          }
        }
      }

      __HAL_PCD_CLEAR_FLAG(hpcd, USB_OTG_GINTSTS_PXFR_INCOMPISOOUT);
 8003534:	687b      	ldr	r3, [r7, #4]
 8003536:	681b      	ldr	r3, [r3, #0]
 8003538:	695a      	ldr	r2, [r3, #20]
 800353a:	687b      	ldr	r3, [r7, #4]
 800353c:	681b      	ldr	r3, [r3, #0]
 800353e:	f402 1200 	and.w	r2, r2, #2097152	@ 0x200000
 8003542:	615a      	str	r2, [r3, #20]
    }

    /* Handle Connection event Interrupt */
    if (__HAL_PCD_GET_FLAG(hpcd, USB_OTG_GINTSTS_SRQINT))
 8003544:	687b      	ldr	r3, [r7, #4]
 8003546:	681b      	ldr	r3, [r3, #0]
 8003548:	4618      	mov	r0, r3
 800354a:	f003 f98f 	bl	800686c <USB_ReadInterrupts>
 800354e:	4603      	mov	r3, r0
 8003550:	f003 4380 	and.w	r3, r3, #1073741824	@ 0x40000000
 8003554:	f1b3 4f80 	cmp.w	r3, #1073741824	@ 0x40000000
 8003558:	d10a      	bne.n	8003570 <HAL_PCD_IRQHandler+0x8fc>
    {
#if (USE_HAL_PCD_REGISTER_CALLBACKS == 1U)
      hpcd->ConnectCallback(hpcd);
#else
      HAL_PCD_ConnectCallback(hpcd);
 800355a:	6878      	ldr	r0, [r7, #4]
 800355c:	f005 feca 	bl	80092f4 <HAL_PCD_ConnectCallback>
#endif /* USE_HAL_PCD_REGISTER_CALLBACKS */

      __HAL_PCD_CLEAR_FLAG(hpcd, USB_OTG_GINTSTS_SRQINT);
 8003560:	687b      	ldr	r3, [r7, #4]
 8003562:	681b      	ldr	r3, [r3, #0]
 8003564:	695a      	ldr	r2, [r3, #20]
 8003566:	687b      	ldr	r3, [r7, #4]
 8003568:	681b      	ldr	r3, [r3, #0]
 800356a:	f002 4280 	and.w	r2, r2, #1073741824	@ 0x40000000
 800356e:	615a      	str	r2, [r3, #20]
    }

    /* Handle Disconnection event Interrupt */
    if (__HAL_PCD_GET_FLAG(hpcd, USB_OTG_GINTSTS_OTGINT))
 8003570:	687b      	ldr	r3, [r7, #4]
 8003572:	681b      	ldr	r3, [r3, #0]
 8003574:	4618      	mov	r0, r3
 8003576:	f003 f979 	bl	800686c <USB_ReadInterrupts>
 800357a:	4603      	mov	r3, r0
 800357c:	f003 0304 	and.w	r3, r3, #4
 8003580:	2b04      	cmp	r3, #4
 8003582:	d115      	bne.n	80035b0 <HAL_PCD_IRQHandler+0x93c>
    {
      RegVal = hpcd->Instance->GOTGINT;
 8003584:	687b      	ldr	r3, [r7, #4]
 8003586:	681b      	ldr	r3, [r3, #0]
 8003588:	685b      	ldr	r3, [r3, #4]
 800358a:	61bb      	str	r3, [r7, #24]

      if ((RegVal & USB_OTG_GOTGINT_SEDET) == USB_OTG_GOTGINT_SEDET)
 800358c:	69bb      	ldr	r3, [r7, #24]
 800358e:	f003 0304 	and.w	r3, r3, #4
 8003592:	2b00      	cmp	r3, #0
 8003594:	d002      	beq.n	800359c <HAL_PCD_IRQHandler+0x928>
      {
#if (USE_HAL_PCD_REGISTER_CALLBACKS == 1U)
        hpcd->DisconnectCallback(hpcd);
#else
        HAL_PCD_DisconnectCallback(hpcd);
 8003596:	6878      	ldr	r0, [r7, #4]
 8003598:	f005 feba 	bl	8009310 <HAL_PCD_DisconnectCallback>
#endif /* USE_HAL_PCD_REGISTER_CALLBACKS */
      }
      hpcd->Instance->GOTGINT |= RegVal;
 800359c:	687b      	ldr	r3, [r7, #4]
 800359e:	681b      	ldr	r3, [r3, #0]
 80035a0:	6859      	ldr	r1, [r3, #4]
 80035a2:	687b      	ldr	r3, [r7, #4]
 80035a4:	681b      	ldr	r3, [r3, #0]
 80035a6:	69ba      	ldr	r2, [r7, #24]
 80035a8:	430a      	orrs	r2, r1
 80035aa:	605a      	str	r2, [r3, #4]
 80035ac:	e000      	b.n	80035b0 <HAL_PCD_IRQHandler+0x93c>
      return;
 80035ae:	bf00      	nop
    }
  }
}
 80035b0:	3734      	adds	r7, #52	@ 0x34
 80035b2:	46bd      	mov	sp, r7
 80035b4:	bd90      	pop	{r4, r7, pc}

080035b6 <HAL_PCD_SetAddress>:
  * @param  hpcd PCD handle
  * @param  address new device address
  * @retval HAL status
  */
HAL_StatusTypeDef HAL_PCD_SetAddress(PCD_HandleTypeDef *hpcd, uint8_t address)
{
 80035b6:	b580      	push	{r7, lr}
 80035b8:	b082      	sub	sp, #8
 80035ba:	af00      	add	r7, sp, #0
 80035bc:	6078      	str	r0, [r7, #4]
 80035be:	460b      	mov	r3, r1
 80035c0:	70fb      	strb	r3, [r7, #3]
  __HAL_LOCK(hpcd);
 80035c2:	687b      	ldr	r3, [r7, #4]
 80035c4:	f893 3494 	ldrb.w	r3, [r3, #1172]	@ 0x494
 80035c8:	2b01      	cmp	r3, #1
 80035ca:	d101      	bne.n	80035d0 <HAL_PCD_SetAddress+0x1a>
 80035cc:	2302      	movs	r3, #2
 80035ce:	e012      	b.n	80035f6 <HAL_PCD_SetAddress+0x40>
 80035d0:	687b      	ldr	r3, [r7, #4]
 80035d2:	2201      	movs	r2, #1
 80035d4:	f883 2494 	strb.w	r2, [r3, #1172]	@ 0x494
  hpcd->USB_Address = address;
 80035d8:	687b      	ldr	r3, [r7, #4]
 80035da:	78fa      	ldrb	r2, [r7, #3]
 80035dc:	745a      	strb	r2, [r3, #17]
  (void)USB_SetDevAddress(hpcd->Instance, address);
 80035de:	687b      	ldr	r3, [r7, #4]
 80035e0:	681b      	ldr	r3, [r3, #0]
 80035e2:	78fa      	ldrb	r2, [r7, #3]
 80035e4:	4611      	mov	r1, r2
 80035e6:	4618      	mov	r0, r3
 80035e8:	f003 f8d8 	bl	800679c <USB_SetDevAddress>
  __HAL_UNLOCK(hpcd);
 80035ec:	687b      	ldr	r3, [r7, #4]
 80035ee:	2200      	movs	r2, #0
 80035f0:	f883 2494 	strb.w	r2, [r3, #1172]	@ 0x494

  return HAL_OK;
 80035f4:	2300      	movs	r3, #0
}
 80035f6:	4618      	mov	r0, r3
 80035f8:	3708      	adds	r7, #8
 80035fa:	46bd      	mov	sp, r7
 80035fc:	bd80      	pop	{r7, pc}

080035fe <HAL_PCD_EP_Open>:
  * @param  ep_type endpoint type
  * @retval HAL status
  */
HAL_StatusTypeDef HAL_PCD_EP_Open(PCD_HandleTypeDef *hpcd, uint8_t ep_addr,
                                  uint16_t ep_mps, uint8_t ep_type)
{
 80035fe:	b580      	push	{r7, lr}
 8003600:	b084      	sub	sp, #16
 8003602:	af00      	add	r7, sp, #0
 8003604:	6078      	str	r0, [r7, #4]
 8003606:	4608      	mov	r0, r1
 8003608:	4611      	mov	r1, r2
 800360a:	461a      	mov	r2, r3
 800360c:	4603      	mov	r3, r0
 800360e:	70fb      	strb	r3, [r7, #3]
 8003610:	460b      	mov	r3, r1
 8003612:	803b      	strh	r3, [r7, #0]
 8003614:	4613      	mov	r3, r2
 8003616:	70bb      	strb	r3, [r7, #2]
  HAL_StatusTypeDef ret = HAL_OK;
 8003618:	2300      	movs	r3, #0
 800361a:	72fb      	strb	r3, [r7, #11]
  PCD_EPTypeDef *ep;

  if ((ep_addr & 0x80U) == 0x80U)
 800361c:	f997 3003 	ldrsb.w	r3, [r7, #3]
 8003620:	2b00      	cmp	r3, #0
 8003622:	da0f      	bge.n	8003644 <HAL_PCD_EP_Open+0x46>
  {
    ep = &hpcd->IN_ep[ep_addr & EP_ADDR_MSK];
 8003624:	78fb      	ldrb	r3, [r7, #3]
 8003626:	f003 020f 	and.w	r2, r3, #15
 800362a:	4613      	mov	r3, r2
 800362c:	00db      	lsls	r3, r3, #3
 800362e:	4413      	add	r3, r2
 8003630:	009b      	lsls	r3, r3, #2
 8003632:	3310      	adds	r3, #16
 8003634:	687a      	ldr	r2, [r7, #4]
 8003636:	4413      	add	r3, r2
 8003638:	3304      	adds	r3, #4
 800363a:	60fb      	str	r3, [r7, #12]
    ep->is_in = 1U;
 800363c:	68fb      	ldr	r3, [r7, #12]
 800363e:	2201      	movs	r2, #1
 8003640:	705a      	strb	r2, [r3, #1]
 8003642:	e00f      	b.n	8003664 <HAL_PCD_EP_Open+0x66>
  }
  else
  {
    ep = &hpcd->OUT_ep[ep_addr & EP_ADDR_MSK];
 8003644:	78fb      	ldrb	r3, [r7, #3]
 8003646:	f003 020f 	and.w	r2, r3, #15
 800364a:	4613      	mov	r3, r2
 800364c:	00db      	lsls	r3, r3, #3
 800364e:	4413      	add	r3, r2
 8003650:	009b      	lsls	r3, r3, #2
 8003652:	f503 7314 	add.w	r3, r3, #592	@ 0x250
 8003656:	687a      	ldr	r2, [r7, #4]
 8003658:	4413      	add	r3, r2
 800365a:	3304      	adds	r3, #4
 800365c:	60fb      	str	r3, [r7, #12]
    ep->is_in = 0U;
 800365e:	68fb      	ldr	r3, [r7, #12]
 8003660:	2200      	movs	r2, #0
 8003662:	705a      	strb	r2, [r3, #1]
  }

  ep->num = ep_addr & EP_ADDR_MSK;
 8003664:	78fb      	ldrb	r3, [r7, #3]
 8003666:	f003 030f 	and.w	r3, r3, #15
 800366a:	b2da      	uxtb	r2, r3
 800366c:	68fb      	ldr	r3, [r7, #12]
 800366e:	701a      	strb	r2, [r3, #0]
  ep->maxpacket = (uint32_t)ep_mps & 0x7FFU;
 8003670:	883b      	ldrh	r3, [r7, #0]
 8003672:	f3c3 020a 	ubfx	r2, r3, #0, #11
 8003676:	68fb      	ldr	r3, [r7, #12]
 8003678:	609a      	str	r2, [r3, #8]
  ep->type = ep_type;
 800367a:	68fb      	ldr	r3, [r7, #12]
 800367c:	78ba      	ldrb	r2, [r7, #2]
 800367e:	711a      	strb	r2, [r3, #4]

  if (ep->is_in != 0U)
 8003680:	68fb      	ldr	r3, [r7, #12]
 8003682:	785b      	ldrb	r3, [r3, #1]
 8003684:	2b00      	cmp	r3, #0
 8003686:	d004      	beq.n	8003692 <HAL_PCD_EP_Open+0x94>
  {
    /* Assign a Tx FIFO */
    ep->tx_fifo_num = ep->num;
 8003688:	68fb      	ldr	r3, [r7, #12]
 800368a:	781b      	ldrb	r3, [r3, #0]
 800368c:	461a      	mov	r2, r3
 800368e:	68fb      	ldr	r3, [r7, #12]
 8003690:	835a      	strh	r2, [r3, #26]
  }

  /* Set initial data PID. */
  if (ep_type == EP_TYPE_BULK)
 8003692:	78bb      	ldrb	r3, [r7, #2]
 8003694:	2b02      	cmp	r3, #2
 8003696:	d102      	bne.n	800369e <HAL_PCD_EP_Open+0xa0>
  {
    ep->data_pid_start = 0U;
 8003698:	68fb      	ldr	r3, [r7, #12]
 800369a:	2200      	movs	r2, #0
 800369c:	715a      	strb	r2, [r3, #5]
  }

  __HAL_LOCK(hpcd);
 800369e:	687b      	ldr	r3, [r7, #4]
 80036a0:	f893 3494 	ldrb.w	r3, [r3, #1172]	@ 0x494
 80036a4:	2b01      	cmp	r3, #1
 80036a6:	d101      	bne.n	80036ac <HAL_PCD_EP_Open+0xae>
 80036a8:	2302      	movs	r3, #2
 80036aa:	e00e      	b.n	80036ca <HAL_PCD_EP_Open+0xcc>
 80036ac:	687b      	ldr	r3, [r7, #4]
 80036ae:	2201      	movs	r2, #1
 80036b0:	f883 2494 	strb.w	r2, [r3, #1172]	@ 0x494
  (void)USB_ActivateEndpoint(hpcd->Instance, ep);
 80036b4:	687b      	ldr	r3, [r7, #4]
 80036b6:	681b      	ldr	r3, [r3, #0]
 80036b8:	68f9      	ldr	r1, [r7, #12]
 80036ba:	4618      	mov	r0, r3
 80036bc:	f002 fa58 	bl	8005b70 <USB_ActivateEndpoint>
  __HAL_UNLOCK(hpcd);
 80036c0:	687b      	ldr	r3, [r7, #4]
 80036c2:	2200      	movs	r2, #0
 80036c4:	f883 2494 	strb.w	r2, [r3, #1172]	@ 0x494

  return ret;
 80036c8:	7afb      	ldrb	r3, [r7, #11]
}
 80036ca:	4618      	mov	r0, r3
 80036cc:	3710      	adds	r7, #16
 80036ce:	46bd      	mov	sp, r7
 80036d0:	bd80      	pop	{r7, pc}

080036d2 <HAL_PCD_EP_Close>:
  * @param  hpcd PCD handle
  * @param  ep_addr endpoint address
  * @retval HAL status
  */
HAL_StatusTypeDef HAL_PCD_EP_Close(PCD_HandleTypeDef *hpcd, uint8_t ep_addr)
{
 80036d2:	b580      	push	{r7, lr}
 80036d4:	b084      	sub	sp, #16
 80036d6:	af00      	add	r7, sp, #0
 80036d8:	6078      	str	r0, [r7, #4]
 80036da:	460b      	mov	r3, r1
 80036dc:	70fb      	strb	r3, [r7, #3]
  PCD_EPTypeDef *ep;

  if ((ep_addr & 0x80U) == 0x80U)
 80036de:	f997 3003 	ldrsb.w	r3, [r7, #3]
 80036e2:	2b00      	cmp	r3, #0
 80036e4:	da0f      	bge.n	8003706 <HAL_PCD_EP_Close+0x34>
  {
    ep = &hpcd->IN_ep[ep_addr & EP_ADDR_MSK];
 80036e6:	78fb      	ldrb	r3, [r7, #3]
 80036e8:	f003 020f 	and.w	r2, r3, #15
 80036ec:	4613      	mov	r3, r2
 80036ee:	00db      	lsls	r3, r3, #3
 80036f0:	4413      	add	r3, r2
 80036f2:	009b      	lsls	r3, r3, #2
 80036f4:	3310      	adds	r3, #16
 80036f6:	687a      	ldr	r2, [r7, #4]
 80036f8:	4413      	add	r3, r2
 80036fa:	3304      	adds	r3, #4
 80036fc:	60fb      	str	r3, [r7, #12]
    ep->is_in = 1U;
 80036fe:	68fb      	ldr	r3, [r7, #12]
 8003700:	2201      	movs	r2, #1
 8003702:	705a      	strb	r2, [r3, #1]
 8003704:	e00f      	b.n	8003726 <HAL_PCD_EP_Close+0x54>
  }
  else
  {
    ep = &hpcd->OUT_ep[ep_addr & EP_ADDR_MSK];
 8003706:	78fb      	ldrb	r3, [r7, #3]
 8003708:	f003 020f 	and.w	r2, r3, #15
 800370c:	4613      	mov	r3, r2
 800370e:	00db      	lsls	r3, r3, #3
 8003710:	4413      	add	r3, r2
 8003712:	009b      	lsls	r3, r3, #2
 8003714:	f503 7314 	add.w	r3, r3, #592	@ 0x250
 8003718:	687a      	ldr	r2, [r7, #4]
 800371a:	4413      	add	r3, r2
 800371c:	3304      	adds	r3, #4
 800371e:	60fb      	str	r3, [r7, #12]
    ep->is_in = 0U;
 8003720:	68fb      	ldr	r3, [r7, #12]
 8003722:	2200      	movs	r2, #0
 8003724:	705a      	strb	r2, [r3, #1]
  }
  ep->num = ep_addr & EP_ADDR_MSK;
 8003726:	78fb      	ldrb	r3, [r7, #3]
 8003728:	f003 030f 	and.w	r3, r3, #15
 800372c:	b2da      	uxtb	r2, r3
 800372e:	68fb      	ldr	r3, [r7, #12]
 8003730:	701a      	strb	r2, [r3, #0]

  __HAL_LOCK(hpcd);
 8003732:	687b      	ldr	r3, [r7, #4]
 8003734:	f893 3494 	ldrb.w	r3, [r3, #1172]	@ 0x494
 8003738:	2b01      	cmp	r3, #1
 800373a:	d101      	bne.n	8003740 <HAL_PCD_EP_Close+0x6e>
 800373c:	2302      	movs	r3, #2
 800373e:	e00e      	b.n	800375e <HAL_PCD_EP_Close+0x8c>
 8003740:	687b      	ldr	r3, [r7, #4]
 8003742:	2201      	movs	r2, #1
 8003744:	f883 2494 	strb.w	r2, [r3, #1172]	@ 0x494
  (void)USB_DeactivateEndpoint(hpcd->Instance, ep);
 8003748:	687b      	ldr	r3, [r7, #4]
 800374a:	681b      	ldr	r3, [r3, #0]
 800374c:	68f9      	ldr	r1, [r7, #12]
 800374e:	4618      	mov	r0, r3
 8003750:	f002 fa96 	bl	8005c80 <USB_DeactivateEndpoint>
  __HAL_UNLOCK(hpcd);
 8003754:	687b      	ldr	r3, [r7, #4]
 8003756:	2200      	movs	r2, #0
 8003758:	f883 2494 	strb.w	r2, [r3, #1172]	@ 0x494
  return HAL_OK;
 800375c:	2300      	movs	r3, #0
}
 800375e:	4618      	mov	r0, r3
 8003760:	3710      	adds	r7, #16
 8003762:	46bd      	mov	sp, r7
 8003764:	bd80      	pop	{r7, pc}

08003766 <HAL_PCD_EP_Receive>:
  * @param  pBuf pointer to the reception buffer
  * @param  len amount of data to be received
  * @retval HAL status
  */
HAL_StatusTypeDef HAL_PCD_EP_Receive(PCD_HandleTypeDef *hpcd, uint8_t ep_addr, uint8_t *pBuf, uint32_t len)
{
 8003766:	b580      	push	{r7, lr}
 8003768:	b086      	sub	sp, #24
 800376a:	af00      	add	r7, sp, #0
 800376c:	60f8      	str	r0, [r7, #12]
 800376e:	607a      	str	r2, [r7, #4]
 8003770:	603b      	str	r3, [r7, #0]
 8003772:	460b      	mov	r3, r1
 8003774:	72fb      	strb	r3, [r7, #11]
  PCD_EPTypeDef *ep;

  ep = &hpcd->OUT_ep[ep_addr & EP_ADDR_MSK];
 8003776:	7afb      	ldrb	r3, [r7, #11]
 8003778:	f003 020f 	and.w	r2, r3, #15
 800377c:	4613      	mov	r3, r2
 800377e:	00db      	lsls	r3, r3, #3
 8003780:	4413      	add	r3, r2
 8003782:	009b      	lsls	r3, r3, #2
 8003784:	f503 7314 	add.w	r3, r3, #592	@ 0x250
 8003788:	68fa      	ldr	r2, [r7, #12]
 800378a:	4413      	add	r3, r2
 800378c:	3304      	adds	r3, #4
 800378e:	617b      	str	r3, [r7, #20]

  /*setup and start the Xfer */
  ep->xfer_buff = pBuf;
 8003790:	697b      	ldr	r3, [r7, #20]
 8003792:	687a      	ldr	r2, [r7, #4]
 8003794:	60da      	str	r2, [r3, #12]
  ep->xfer_len = len;
 8003796:	697b      	ldr	r3, [r7, #20]
 8003798:	683a      	ldr	r2, [r7, #0]
 800379a:	611a      	str	r2, [r3, #16]
  ep->xfer_count = 0U;
 800379c:	697b      	ldr	r3, [r7, #20]
 800379e:	2200      	movs	r2, #0
 80037a0:	615a      	str	r2, [r3, #20]
  ep->is_in = 0U;
 80037a2:	697b      	ldr	r3, [r7, #20]
 80037a4:	2200      	movs	r2, #0
 80037a6:	705a      	strb	r2, [r3, #1]
  ep->num = ep_addr & EP_ADDR_MSK;
 80037a8:	7afb      	ldrb	r3, [r7, #11]
 80037aa:	f003 030f 	and.w	r3, r3, #15
 80037ae:	b2da      	uxtb	r2, r3
 80037b0:	697b      	ldr	r3, [r7, #20]
 80037b2:	701a      	strb	r2, [r3, #0]

  if (hpcd->Init.dma_enable == 1U)
 80037b4:	68fb      	ldr	r3, [r7, #12]
 80037b6:	799b      	ldrb	r3, [r3, #6]
 80037b8:	2b01      	cmp	r3, #1
 80037ba:	d102      	bne.n	80037c2 <HAL_PCD_EP_Receive+0x5c>
  {
    ep->dma_addr = (uint32_t)pBuf;
 80037bc:	687a      	ldr	r2, [r7, #4]
 80037be:	697b      	ldr	r3, [r7, #20]
 80037c0:	61da      	str	r2, [r3, #28]
  }

  (void)USB_EPStartXfer(hpcd->Instance, ep, (uint8_t)hpcd->Init.dma_enable);
 80037c2:	68fb      	ldr	r3, [r7, #12]
 80037c4:	6818      	ldr	r0, [r3, #0]
 80037c6:	68fb      	ldr	r3, [r7, #12]
 80037c8:	799b      	ldrb	r3, [r3, #6]
 80037ca:	461a      	mov	r2, r3
 80037cc:	6979      	ldr	r1, [r7, #20]
 80037ce:	f002 fb33 	bl	8005e38 <USB_EPStartXfer>

  return HAL_OK;
 80037d2:	2300      	movs	r3, #0
}
 80037d4:	4618      	mov	r0, r3
 80037d6:	3718      	adds	r7, #24
 80037d8:	46bd      	mov	sp, r7
 80037da:	bd80      	pop	{r7, pc}

080037dc <HAL_PCD_EP_GetRxCount>:
  * @param  hpcd PCD handle
  * @param  ep_addr endpoint address
  * @retval Data Size
  */
uint32_t HAL_PCD_EP_GetRxCount(PCD_HandleTypeDef const *hpcd, uint8_t ep_addr)
{
 80037dc:	b480      	push	{r7}
 80037de:	b083      	sub	sp, #12
 80037e0:	af00      	add	r7, sp, #0
 80037e2:	6078      	str	r0, [r7, #4]
 80037e4:	460b      	mov	r3, r1
 80037e6:	70fb      	strb	r3, [r7, #3]
  return hpcd->OUT_ep[ep_addr & EP_ADDR_MSK].xfer_count;
 80037e8:	78fb      	ldrb	r3, [r7, #3]
 80037ea:	f003 020f 	and.w	r2, r3, #15
 80037ee:	6879      	ldr	r1, [r7, #4]
 80037f0:	4613      	mov	r3, r2
 80037f2:	00db      	lsls	r3, r3, #3
 80037f4:	4413      	add	r3, r2
 80037f6:	009b      	lsls	r3, r3, #2
 80037f8:	440b      	add	r3, r1
 80037fa:	f503 731a 	add.w	r3, r3, #616	@ 0x268
 80037fe:	681b      	ldr	r3, [r3, #0]
}
 8003800:	4618      	mov	r0, r3
 8003802:	370c      	adds	r7, #12
 8003804:	46bd      	mov	sp, r7
 8003806:	f85d 7b04 	ldr.w	r7, [sp], #4
 800380a:	4770      	bx	lr

0800380c <HAL_PCD_EP_Transmit>:
  * @param  pBuf pointer to the transmission buffer
  * @param  len amount of data to be sent
  * @retval HAL status
  */
HAL_StatusTypeDef HAL_PCD_EP_Transmit(PCD_HandleTypeDef *hpcd, uint8_t ep_addr, uint8_t *pBuf, uint32_t len)
{
 800380c:	b580      	push	{r7, lr}
 800380e:	b086      	sub	sp, #24
 8003810:	af00      	add	r7, sp, #0
 8003812:	60f8      	str	r0, [r7, #12]
 8003814:	607a      	str	r2, [r7, #4]
 8003816:	603b      	str	r3, [r7, #0]
 8003818:	460b      	mov	r3, r1
 800381a:	72fb      	strb	r3, [r7, #11]
  PCD_EPTypeDef *ep;

  ep = &hpcd->IN_ep[ep_addr & EP_ADDR_MSK];
 800381c:	7afb      	ldrb	r3, [r7, #11]
 800381e:	f003 020f 	and.w	r2, r3, #15
 8003822:	4613      	mov	r3, r2
 8003824:	00db      	lsls	r3, r3, #3
 8003826:	4413      	add	r3, r2
 8003828:	009b      	lsls	r3, r3, #2
 800382a:	3310      	adds	r3, #16
 800382c:	68fa      	ldr	r2, [r7, #12]
 800382e:	4413      	add	r3, r2
 8003830:	3304      	adds	r3, #4
 8003832:	617b      	str	r3, [r7, #20]

  /*setup and start the Xfer */
  ep->xfer_buff = pBuf;
 8003834:	697b      	ldr	r3, [r7, #20]
 8003836:	687a      	ldr	r2, [r7, #4]
 8003838:	60da      	str	r2, [r3, #12]
  ep->xfer_len = len;
 800383a:	697b      	ldr	r3, [r7, #20]
 800383c:	683a      	ldr	r2, [r7, #0]
 800383e:	611a      	str	r2, [r3, #16]
  ep->xfer_count = 0U;
 8003840:	697b      	ldr	r3, [r7, #20]
 8003842:	2200      	movs	r2, #0
 8003844:	615a      	str	r2, [r3, #20]
  ep->is_in = 1U;
 8003846:	697b      	ldr	r3, [r7, #20]
 8003848:	2201      	movs	r2, #1
 800384a:	705a      	strb	r2, [r3, #1]
  ep->num = ep_addr & EP_ADDR_MSK;
 800384c:	7afb      	ldrb	r3, [r7, #11]
 800384e:	f003 030f 	and.w	r3, r3, #15
 8003852:	b2da      	uxtb	r2, r3
 8003854:	697b      	ldr	r3, [r7, #20]
 8003856:	701a      	strb	r2, [r3, #0]

  if (hpcd->Init.dma_enable == 1U)
 8003858:	68fb      	ldr	r3, [r7, #12]
 800385a:	799b      	ldrb	r3, [r3, #6]
 800385c:	2b01      	cmp	r3, #1
 800385e:	d102      	bne.n	8003866 <HAL_PCD_EP_Transmit+0x5a>
  {
    ep->dma_addr = (uint32_t)pBuf;
 8003860:	687a      	ldr	r2, [r7, #4]
 8003862:	697b      	ldr	r3, [r7, #20]
 8003864:	61da      	str	r2, [r3, #28]
  }

  (void)USB_EPStartXfer(hpcd->Instance, ep, (uint8_t)hpcd->Init.dma_enable);
 8003866:	68fb      	ldr	r3, [r7, #12]
 8003868:	6818      	ldr	r0, [r3, #0]
 800386a:	68fb      	ldr	r3, [r7, #12]
 800386c:	799b      	ldrb	r3, [r3, #6]
 800386e:	461a      	mov	r2, r3
 8003870:	6979      	ldr	r1, [r7, #20]
 8003872:	f002 fae1 	bl	8005e38 <USB_EPStartXfer>

  return HAL_OK;
 8003876:	2300      	movs	r3, #0
}
 8003878:	4618      	mov	r0, r3
 800387a:	3718      	adds	r7, #24
 800387c:	46bd      	mov	sp, r7
 800387e:	bd80      	pop	{r7, pc}

08003880 <HAL_PCD_EP_SetStall>:
  * @param  hpcd PCD handle
  * @param  ep_addr endpoint address
  * @retval HAL status
  */
HAL_StatusTypeDef HAL_PCD_EP_SetStall(PCD_HandleTypeDef *hpcd, uint8_t ep_addr)
{
 8003880:	b580      	push	{r7, lr}
 8003882:	b084      	sub	sp, #16
 8003884:	af00      	add	r7, sp, #0
 8003886:	6078      	str	r0, [r7, #4]
 8003888:	460b      	mov	r3, r1
 800388a:	70fb      	strb	r3, [r7, #3]
  PCD_EPTypeDef *ep;

  if (((uint32_t)ep_addr & EP_ADDR_MSK) > hpcd->Init.dev_endpoints)
 800388c:	78fb      	ldrb	r3, [r7, #3]
 800388e:	f003 030f 	and.w	r3, r3, #15
 8003892:	687a      	ldr	r2, [r7, #4]
 8003894:	7912      	ldrb	r2, [r2, #4]
 8003896:	4293      	cmp	r3, r2
 8003898:	d901      	bls.n	800389e <HAL_PCD_EP_SetStall+0x1e>
  {
    return HAL_ERROR;
 800389a:	2301      	movs	r3, #1
 800389c:	e04f      	b.n	800393e <HAL_PCD_EP_SetStall+0xbe>
  }

  if ((0x80U & ep_addr) == 0x80U)
 800389e:	f997 3003 	ldrsb.w	r3, [r7, #3]
 80038a2:	2b00      	cmp	r3, #0
 80038a4:	da0f      	bge.n	80038c6 <HAL_PCD_EP_SetStall+0x46>
  {
    ep = &hpcd->IN_ep[ep_addr & EP_ADDR_MSK];
 80038a6:	78fb      	ldrb	r3, [r7, #3]
 80038a8:	f003 020f 	and.w	r2, r3, #15
 80038ac:	4613      	mov	r3, r2
 80038ae:	00db      	lsls	r3, r3, #3
 80038b0:	4413      	add	r3, r2
 80038b2:	009b      	lsls	r3, r3, #2
 80038b4:	3310      	adds	r3, #16
 80038b6:	687a      	ldr	r2, [r7, #4]
 80038b8:	4413      	add	r3, r2
 80038ba:	3304      	adds	r3, #4
 80038bc:	60fb      	str	r3, [r7, #12]
    ep->is_in = 1U;
 80038be:	68fb      	ldr	r3, [r7, #12]
 80038c0:	2201      	movs	r2, #1
 80038c2:	705a      	strb	r2, [r3, #1]
 80038c4:	e00d      	b.n	80038e2 <HAL_PCD_EP_SetStall+0x62>
  }
  else
  {
    ep = &hpcd->OUT_ep[ep_addr];
 80038c6:	78fa      	ldrb	r2, [r7, #3]
 80038c8:	4613      	mov	r3, r2
 80038ca:	00db      	lsls	r3, r3, #3
 80038cc:	4413      	add	r3, r2
 80038ce:	009b      	lsls	r3, r3, #2
 80038d0:	f503 7314 	add.w	r3, r3, #592	@ 0x250
 80038d4:	687a      	ldr	r2, [r7, #4]
 80038d6:	4413      	add	r3, r2
 80038d8:	3304      	adds	r3, #4
 80038da:	60fb      	str	r3, [r7, #12]
    ep->is_in = 0U;
 80038dc:	68fb      	ldr	r3, [r7, #12]
 80038de:	2200      	movs	r2, #0
 80038e0:	705a      	strb	r2, [r3, #1]
  }

  ep->is_stall = 1U;
 80038e2:	68fb      	ldr	r3, [r7, #12]
 80038e4:	2201      	movs	r2, #1
 80038e6:	709a      	strb	r2, [r3, #2]
  ep->num = ep_addr & EP_ADDR_MSK;
 80038e8:	78fb      	ldrb	r3, [r7, #3]
 80038ea:	f003 030f 	and.w	r3, r3, #15
 80038ee:	b2da      	uxtb	r2, r3
 80038f0:	68fb      	ldr	r3, [r7, #12]
 80038f2:	701a      	strb	r2, [r3, #0]

  __HAL_LOCK(hpcd);
 80038f4:	687b      	ldr	r3, [r7, #4]
 80038f6:	f893 3494 	ldrb.w	r3, [r3, #1172]	@ 0x494
 80038fa:	2b01      	cmp	r3, #1
 80038fc:	d101      	bne.n	8003902 <HAL_PCD_EP_SetStall+0x82>
 80038fe:	2302      	movs	r3, #2
 8003900:	e01d      	b.n	800393e <HAL_PCD_EP_SetStall+0xbe>
 8003902:	687b      	ldr	r3, [r7, #4]
 8003904:	2201      	movs	r2, #1
 8003906:	f883 2494 	strb.w	r2, [r3, #1172]	@ 0x494

  (void)USB_EPSetStall(hpcd->Instance, ep);
 800390a:	687b      	ldr	r3, [r7, #4]
 800390c:	681b      	ldr	r3, [r3, #0]
 800390e:	68f9      	ldr	r1, [r7, #12]
 8003910:	4618      	mov	r0, r3
 8003912:	f002 fe6f 	bl	80065f4 <USB_EPSetStall>

  if ((ep_addr & EP_ADDR_MSK) == 0U)
 8003916:	78fb      	ldrb	r3, [r7, #3]
 8003918:	f003 030f 	and.w	r3, r3, #15
 800391c:	2b00      	cmp	r3, #0
 800391e:	d109      	bne.n	8003934 <HAL_PCD_EP_SetStall+0xb4>
  {
    (void)USB_EP0_OutStart(hpcd->Instance, (uint8_t)hpcd->Init.dma_enable, (uint8_t *)hpcd->Setup);
 8003920:	687b      	ldr	r3, [r7, #4]
 8003922:	6818      	ldr	r0, [r3, #0]
 8003924:	687b      	ldr	r3, [r7, #4]
 8003926:	7999      	ldrb	r1, [r3, #6]
 8003928:	687b      	ldr	r3, [r7, #4]
 800392a:	f203 439c 	addw	r3, r3, #1180	@ 0x49c
 800392e:	461a      	mov	r2, r3
 8003930:	f003 f860 	bl	80069f4 <USB_EP0_OutStart>
  }

  __HAL_UNLOCK(hpcd);
 8003934:	687b      	ldr	r3, [r7, #4]
 8003936:	2200      	movs	r2, #0
 8003938:	f883 2494 	strb.w	r2, [r3, #1172]	@ 0x494

  return HAL_OK;
 800393c:	2300      	movs	r3, #0
}
 800393e:	4618      	mov	r0, r3
 8003940:	3710      	adds	r7, #16
 8003942:	46bd      	mov	sp, r7
 8003944:	bd80      	pop	{r7, pc}

08003946 <HAL_PCD_EP_ClrStall>:
  * @param  hpcd PCD handle
  * @param  ep_addr endpoint address
  * @retval HAL status
  */
HAL_StatusTypeDef HAL_PCD_EP_ClrStall(PCD_HandleTypeDef *hpcd, uint8_t ep_addr)
{
 8003946:	b580      	push	{r7, lr}
 8003948:	b084      	sub	sp, #16
 800394a:	af00      	add	r7, sp, #0
 800394c:	6078      	str	r0, [r7, #4]
 800394e:	460b      	mov	r3, r1
 8003950:	70fb      	strb	r3, [r7, #3]
  PCD_EPTypeDef *ep;

  if (((uint32_t)ep_addr & 0x0FU) > hpcd->Init.dev_endpoints)
 8003952:	78fb      	ldrb	r3, [r7, #3]
 8003954:	f003 030f 	and.w	r3, r3, #15
 8003958:	687a      	ldr	r2, [r7, #4]
 800395a:	7912      	ldrb	r2, [r2, #4]
 800395c:	4293      	cmp	r3, r2
 800395e:	d901      	bls.n	8003964 <HAL_PCD_EP_ClrStall+0x1e>
  {
    return HAL_ERROR;
 8003960:	2301      	movs	r3, #1
 8003962:	e042      	b.n	80039ea <HAL_PCD_EP_ClrStall+0xa4>
  }

  if ((0x80U & ep_addr) == 0x80U)
 8003964:	f997 3003 	ldrsb.w	r3, [r7, #3]
 8003968:	2b00      	cmp	r3, #0
 800396a:	da0f      	bge.n	800398c <HAL_PCD_EP_ClrStall+0x46>
  {
    ep = &hpcd->IN_ep[ep_addr & EP_ADDR_MSK];
 800396c:	78fb      	ldrb	r3, [r7, #3]
 800396e:	f003 020f 	and.w	r2, r3, #15
 8003972:	4613      	mov	r3, r2
 8003974:	00db      	lsls	r3, r3, #3
 8003976:	4413      	add	r3, r2
 8003978:	009b      	lsls	r3, r3, #2
 800397a:	3310      	adds	r3, #16
 800397c:	687a      	ldr	r2, [r7, #4]
 800397e:	4413      	add	r3, r2
 8003980:	3304      	adds	r3, #4
 8003982:	60fb      	str	r3, [r7, #12]
    ep->is_in = 1U;
 8003984:	68fb      	ldr	r3, [r7, #12]
 8003986:	2201      	movs	r2, #1
 8003988:	705a      	strb	r2, [r3, #1]
 800398a:	e00f      	b.n	80039ac <HAL_PCD_EP_ClrStall+0x66>
  }
  else
  {
    ep = &hpcd->OUT_ep[ep_addr & EP_ADDR_MSK];
 800398c:	78fb      	ldrb	r3, [r7, #3]
 800398e:	f003 020f 	and.w	r2, r3, #15
 8003992:	4613      	mov	r3, r2
 8003994:	00db      	lsls	r3, r3, #3
 8003996:	4413      	add	r3, r2
 8003998:	009b      	lsls	r3, r3, #2
 800399a:	f503 7314 	add.w	r3, r3, #592	@ 0x250
 800399e:	687a      	ldr	r2, [r7, #4]
 80039a0:	4413      	add	r3, r2
 80039a2:	3304      	adds	r3, #4
 80039a4:	60fb      	str	r3, [r7, #12]
    ep->is_in = 0U;
 80039a6:	68fb      	ldr	r3, [r7, #12]
 80039a8:	2200      	movs	r2, #0
 80039aa:	705a      	strb	r2, [r3, #1]
  }

  ep->is_stall = 0U;
 80039ac:	68fb      	ldr	r3, [r7, #12]
 80039ae:	2200      	movs	r2, #0
 80039b0:	709a      	strb	r2, [r3, #2]
  ep->num = ep_addr & EP_ADDR_MSK;
 80039b2:	78fb      	ldrb	r3, [r7, #3]
 80039b4:	f003 030f 	and.w	r3, r3, #15
 80039b8:	b2da      	uxtb	r2, r3
 80039ba:	68fb      	ldr	r3, [r7, #12]
 80039bc:	701a      	strb	r2, [r3, #0]

  __HAL_LOCK(hpcd);
 80039be:	687b      	ldr	r3, [r7, #4]
 80039c0:	f893 3494 	ldrb.w	r3, [r3, #1172]	@ 0x494
 80039c4:	2b01      	cmp	r3, #1
 80039c6:	d101      	bne.n	80039cc <HAL_PCD_EP_ClrStall+0x86>
 80039c8:	2302      	movs	r3, #2
 80039ca:	e00e      	b.n	80039ea <HAL_PCD_EP_ClrStall+0xa4>
 80039cc:	687b      	ldr	r3, [r7, #4]
 80039ce:	2201      	movs	r2, #1
 80039d0:	f883 2494 	strb.w	r2, [r3, #1172]	@ 0x494
  (void)USB_EPClearStall(hpcd->Instance, ep);
 80039d4:	687b      	ldr	r3, [r7, #4]
 80039d6:	681b      	ldr	r3, [r3, #0]
 80039d8:	68f9      	ldr	r1, [r7, #12]
 80039da:	4618      	mov	r0, r3
 80039dc:	f002 fe78 	bl	80066d0 <USB_EPClearStall>
  __HAL_UNLOCK(hpcd);
 80039e0:	687b      	ldr	r3, [r7, #4]
 80039e2:	2200      	movs	r2, #0
 80039e4:	f883 2494 	strb.w	r2, [r3, #1172]	@ 0x494

  return HAL_OK;
 80039e8:	2300      	movs	r3, #0
}
 80039ea:	4618      	mov	r0, r3
 80039ec:	3710      	adds	r7, #16
 80039ee:	46bd      	mov	sp, r7
 80039f0:	bd80      	pop	{r7, pc}

080039f2 <HAL_PCD_EP_Abort>:
   * @param  hpcd PCD handle
   * @param  ep_addr endpoint address
   * @retval HAL status
   */
HAL_StatusTypeDef HAL_PCD_EP_Abort(PCD_HandleTypeDef *hpcd, uint8_t ep_addr)
{
 80039f2:	b580      	push	{r7, lr}
 80039f4:	b084      	sub	sp, #16
 80039f6:	af00      	add	r7, sp, #0
 80039f8:	6078      	str	r0, [r7, #4]
 80039fa:	460b      	mov	r3, r1
 80039fc:	70fb      	strb	r3, [r7, #3]
  HAL_StatusTypeDef ret;
  PCD_EPTypeDef *ep;

  if ((0x80U & ep_addr) == 0x80U)
 80039fe:	f997 3003 	ldrsb.w	r3, [r7, #3]
 8003a02:	2b00      	cmp	r3, #0
 8003a04:	da0c      	bge.n	8003a20 <HAL_PCD_EP_Abort+0x2e>
  {
    ep = &hpcd->IN_ep[ep_addr & EP_ADDR_MSK];
 8003a06:	78fb      	ldrb	r3, [r7, #3]
 8003a08:	f003 020f 	and.w	r2, r3, #15
 8003a0c:	4613      	mov	r3, r2
 8003a0e:	00db      	lsls	r3, r3, #3
 8003a10:	4413      	add	r3, r2
 8003a12:	009b      	lsls	r3, r3, #2
 8003a14:	3310      	adds	r3, #16
 8003a16:	687a      	ldr	r2, [r7, #4]
 8003a18:	4413      	add	r3, r2
 8003a1a:	3304      	adds	r3, #4
 8003a1c:	60fb      	str	r3, [r7, #12]
 8003a1e:	e00c      	b.n	8003a3a <HAL_PCD_EP_Abort+0x48>
  }
  else
  {
    ep = &hpcd->OUT_ep[ep_addr & EP_ADDR_MSK];
 8003a20:	78fb      	ldrb	r3, [r7, #3]
 8003a22:	f003 020f 	and.w	r2, r3, #15
 8003a26:	4613      	mov	r3, r2
 8003a28:	00db      	lsls	r3, r3, #3
 8003a2a:	4413      	add	r3, r2
 8003a2c:	009b      	lsls	r3, r3, #2
 8003a2e:	f503 7314 	add.w	r3, r3, #592	@ 0x250
 8003a32:	687a      	ldr	r2, [r7, #4]
 8003a34:	4413      	add	r3, r2
 8003a36:	3304      	adds	r3, #4
 8003a38:	60fb      	str	r3, [r7, #12]
  }

  /* Stop Xfer */
  ret = USB_EPStopXfer(hpcd->Instance, ep);
 8003a3a:	687b      	ldr	r3, [r7, #4]
 8003a3c:	681b      	ldr	r3, [r3, #0]
 8003a3e:	68f9      	ldr	r1, [r7, #12]
 8003a40:	4618      	mov	r0, r3
 8003a42:	f002 fc97 	bl	8006374 <USB_EPStopXfer>
 8003a46:	4603      	mov	r3, r0
 8003a48:	72fb      	strb	r3, [r7, #11]

  return ret;
 8003a4a:	7afb      	ldrb	r3, [r7, #11]
}
 8003a4c:	4618      	mov	r0, r3
 8003a4e:	3710      	adds	r7, #16
 8003a50:	46bd      	mov	sp, r7
 8003a52:	bd80      	pop	{r7, pc}

08003a54 <PCD_WriteEmptyTxFifo>:
  * @param  hpcd PCD handle
  * @param  epnum endpoint number
  * @retval HAL status
  */
static HAL_StatusTypeDef PCD_WriteEmptyTxFifo(PCD_HandleTypeDef *hpcd, uint32_t epnum)
{
 8003a54:	b580      	push	{r7, lr}
 8003a56:	b08a      	sub	sp, #40	@ 0x28
 8003a58:	af02      	add	r7, sp, #8
 8003a5a:	6078      	str	r0, [r7, #4]
 8003a5c:	6039      	str	r1, [r7, #0]
  USB_OTG_GlobalTypeDef *USBx = hpcd->Instance;
 8003a5e:	687b      	ldr	r3, [r7, #4]
 8003a60:	681b      	ldr	r3, [r3, #0]
 8003a62:	617b      	str	r3, [r7, #20]
  uint32_t USBx_BASE = (uint32_t)USBx;
 8003a64:	697b      	ldr	r3, [r7, #20]
 8003a66:	613b      	str	r3, [r7, #16]
  USB_OTG_EPTypeDef *ep;
  uint32_t len;
  uint32_t len32b;
  uint32_t fifoemptymsk;

  ep = &hpcd->IN_ep[epnum];
 8003a68:	683a      	ldr	r2, [r7, #0]
 8003a6a:	4613      	mov	r3, r2
 8003a6c:	00db      	lsls	r3, r3, #3
 8003a6e:	4413      	add	r3, r2
 8003a70:	009b      	lsls	r3, r3, #2
 8003a72:	3310      	adds	r3, #16
 8003a74:	687a      	ldr	r2, [r7, #4]
 8003a76:	4413      	add	r3, r2
 8003a78:	3304      	adds	r3, #4
 8003a7a:	60fb      	str	r3, [r7, #12]

  if (ep->xfer_count > ep->xfer_len)
 8003a7c:	68fb      	ldr	r3, [r7, #12]
 8003a7e:	695a      	ldr	r2, [r3, #20]
 8003a80:	68fb      	ldr	r3, [r7, #12]
 8003a82:	691b      	ldr	r3, [r3, #16]
 8003a84:	429a      	cmp	r2, r3
 8003a86:	d901      	bls.n	8003a8c <PCD_WriteEmptyTxFifo+0x38>
  {
    return HAL_ERROR;
 8003a88:	2301      	movs	r3, #1
 8003a8a:	e06b      	b.n	8003b64 <PCD_WriteEmptyTxFifo+0x110>
  }

  len = ep->xfer_len - ep->xfer_count;
 8003a8c:	68fb      	ldr	r3, [r7, #12]
 8003a8e:	691a      	ldr	r2, [r3, #16]
 8003a90:	68fb      	ldr	r3, [r7, #12]
 8003a92:	695b      	ldr	r3, [r3, #20]
 8003a94:	1ad3      	subs	r3, r2, r3
 8003a96:	61fb      	str	r3, [r7, #28]

  if (len > ep->maxpacket)
 8003a98:	68fb      	ldr	r3, [r7, #12]
 8003a9a:	689b      	ldr	r3, [r3, #8]
 8003a9c:	69fa      	ldr	r2, [r7, #28]
 8003a9e:	429a      	cmp	r2, r3
 8003aa0:	d902      	bls.n	8003aa8 <PCD_WriteEmptyTxFifo+0x54>
  {
    len = ep->maxpacket;
 8003aa2:	68fb      	ldr	r3, [r7, #12]
 8003aa4:	689b      	ldr	r3, [r3, #8]
 8003aa6:	61fb      	str	r3, [r7, #28]
  }

  len32b = (len + 3U) / 4U;
 8003aa8:	69fb      	ldr	r3, [r7, #28]
 8003aaa:	3303      	adds	r3, #3
 8003aac:	089b      	lsrs	r3, r3, #2
 8003aae:	61bb      	str	r3, [r7, #24]

  while (((USBx_INEP(epnum)->DTXFSTS & USB_OTG_DTXFSTS_INEPTFSAV) >= len32b) &&
 8003ab0:	e02a      	b.n	8003b08 <PCD_WriteEmptyTxFifo+0xb4>
         (ep->xfer_count < ep->xfer_len) && (ep->xfer_len != 0U))
  {
    /* Write the FIFO */
    len = ep->xfer_len - ep->xfer_count;
 8003ab2:	68fb      	ldr	r3, [r7, #12]
 8003ab4:	691a      	ldr	r2, [r3, #16]
 8003ab6:	68fb      	ldr	r3, [r7, #12]
 8003ab8:	695b      	ldr	r3, [r3, #20]
 8003aba:	1ad3      	subs	r3, r2, r3
 8003abc:	61fb      	str	r3, [r7, #28]

    if (len > ep->maxpacket)
 8003abe:	68fb      	ldr	r3, [r7, #12]
 8003ac0:	689b      	ldr	r3, [r3, #8]
 8003ac2:	69fa      	ldr	r2, [r7, #28]
 8003ac4:	429a      	cmp	r2, r3
 8003ac6:	d902      	bls.n	8003ace <PCD_WriteEmptyTxFifo+0x7a>
    {
      len = ep->maxpacket;
 8003ac8:	68fb      	ldr	r3, [r7, #12]
 8003aca:	689b      	ldr	r3, [r3, #8]
 8003acc:	61fb      	str	r3, [r7, #28]
    }
    len32b = (len + 3U) / 4U;
 8003ace:	69fb      	ldr	r3, [r7, #28]
 8003ad0:	3303      	adds	r3, #3
 8003ad2:	089b      	lsrs	r3, r3, #2
 8003ad4:	61bb      	str	r3, [r7, #24]

    (void)USB_WritePacket(USBx, ep->xfer_buff, (uint8_t)epnum, (uint16_t)len,
 8003ad6:	68fb      	ldr	r3, [r7, #12]
 8003ad8:	68d9      	ldr	r1, [r3, #12]
 8003ada:	683b      	ldr	r3, [r7, #0]
 8003adc:	b2da      	uxtb	r2, r3
 8003ade:	69fb      	ldr	r3, [r7, #28]
 8003ae0:	b298      	uxth	r0, r3
 8003ae2:	687b      	ldr	r3, [r7, #4]
 8003ae4:	799b      	ldrb	r3, [r3, #6]
 8003ae6:	9300      	str	r3, [sp, #0]
 8003ae8:	4603      	mov	r3, r0
 8003aea:	6978      	ldr	r0, [r7, #20]
 8003aec:	f002 fcec 	bl	80064c8 <USB_WritePacket>
                          (uint8_t)hpcd->Init.dma_enable);

    ep->xfer_buff  += len;
 8003af0:	68fb      	ldr	r3, [r7, #12]
 8003af2:	68da      	ldr	r2, [r3, #12]
 8003af4:	69fb      	ldr	r3, [r7, #28]
 8003af6:	441a      	add	r2, r3
 8003af8:	68fb      	ldr	r3, [r7, #12]
 8003afa:	60da      	str	r2, [r3, #12]
    ep->xfer_count += len;
 8003afc:	68fb      	ldr	r3, [r7, #12]
 8003afe:	695a      	ldr	r2, [r3, #20]
 8003b00:	69fb      	ldr	r3, [r7, #28]
 8003b02:	441a      	add	r2, r3
 8003b04:	68fb      	ldr	r3, [r7, #12]
 8003b06:	615a      	str	r2, [r3, #20]
  while (((USBx_INEP(epnum)->DTXFSTS & USB_OTG_DTXFSTS_INEPTFSAV) >= len32b) &&
 8003b08:	683b      	ldr	r3, [r7, #0]
 8003b0a:	015a      	lsls	r2, r3, #5
 8003b0c:	693b      	ldr	r3, [r7, #16]
 8003b0e:	4413      	add	r3, r2
 8003b10:	f503 6310 	add.w	r3, r3, #2304	@ 0x900
 8003b14:	699b      	ldr	r3, [r3, #24]
 8003b16:	b29b      	uxth	r3, r3
         (ep->xfer_count < ep->xfer_len) && (ep->xfer_len != 0U))
 8003b18:	69ba      	ldr	r2, [r7, #24]
 8003b1a:	429a      	cmp	r2, r3
 8003b1c:	d809      	bhi.n	8003b32 <PCD_WriteEmptyTxFifo+0xde>
 8003b1e:	68fb      	ldr	r3, [r7, #12]
 8003b20:	695a      	ldr	r2, [r3, #20]
 8003b22:	68fb      	ldr	r3, [r7, #12]
 8003b24:	691b      	ldr	r3, [r3, #16]
  while (((USBx_INEP(epnum)->DTXFSTS & USB_OTG_DTXFSTS_INEPTFSAV) >= len32b) &&
 8003b26:	429a      	cmp	r2, r3
 8003b28:	d203      	bcs.n	8003b32 <PCD_WriteEmptyTxFifo+0xde>
         (ep->xfer_count < ep->xfer_len) && (ep->xfer_len != 0U))
 8003b2a:	68fb      	ldr	r3, [r7, #12]
 8003b2c:	691b      	ldr	r3, [r3, #16]
 8003b2e:	2b00      	cmp	r3, #0
 8003b30:	d1bf      	bne.n	8003ab2 <PCD_WriteEmptyTxFifo+0x5e>
  }

  if (ep->xfer_len <= ep->xfer_count)
 8003b32:	68fb      	ldr	r3, [r7, #12]
 8003b34:	691a      	ldr	r2, [r3, #16]
 8003b36:	68fb      	ldr	r3, [r7, #12]
 8003b38:	695b      	ldr	r3, [r3, #20]
 8003b3a:	429a      	cmp	r2, r3
 8003b3c:	d811      	bhi.n	8003b62 <PCD_WriteEmptyTxFifo+0x10e>
  {
    fifoemptymsk = (uint32_t)(0x1UL << (epnum & EP_ADDR_MSK));
 8003b3e:	683b      	ldr	r3, [r7, #0]
 8003b40:	f003 030f 	and.w	r3, r3, #15
 8003b44:	2201      	movs	r2, #1
 8003b46:	fa02 f303 	lsl.w	r3, r2, r3
 8003b4a:	60bb      	str	r3, [r7, #8]
    USBx_DEVICE->DIEPEMPMSK &= ~fifoemptymsk;
 8003b4c:	693b      	ldr	r3, [r7, #16]
 8003b4e:	f503 6300 	add.w	r3, r3, #2048	@ 0x800
 8003b52:	6b5a      	ldr	r2, [r3, #52]	@ 0x34
 8003b54:	68bb      	ldr	r3, [r7, #8]
 8003b56:	43db      	mvns	r3, r3
 8003b58:	6939      	ldr	r1, [r7, #16]
 8003b5a:	f501 6100 	add.w	r1, r1, #2048	@ 0x800
 8003b5e:	4013      	ands	r3, r2
 8003b60:	634b      	str	r3, [r1, #52]	@ 0x34
  }

  return HAL_OK;
 8003b62:	2300      	movs	r3, #0
}
 8003b64:	4618      	mov	r0, r3
 8003b66:	3720      	adds	r7, #32
 8003b68:	46bd      	mov	sp, r7
 8003b6a:	bd80      	pop	{r7, pc}

08003b6c <PCD_EP_OutXfrComplete_int>:
  * @param  hpcd PCD handle
  * @param  epnum endpoint number
  * @retval HAL status
  */
static HAL_StatusTypeDef PCD_EP_OutXfrComplete_int(PCD_HandleTypeDef *hpcd, uint32_t epnum)
{
 8003b6c:	b580      	push	{r7, lr}
 8003b6e:	b088      	sub	sp, #32
 8003b70:	af00      	add	r7, sp, #0
 8003b72:	6078      	str	r0, [r7, #4]
 8003b74:	6039      	str	r1, [r7, #0]
  USB_OTG_EPTypeDef *ep;
  const USB_OTG_GlobalTypeDef *USBx = hpcd->Instance;
 8003b76:	687b      	ldr	r3, [r7, #4]
 8003b78:	681b      	ldr	r3, [r3, #0]
 8003b7a:	61fb      	str	r3, [r7, #28]
  uint32_t USBx_BASE = (uint32_t)USBx;
 8003b7c:	69fb      	ldr	r3, [r7, #28]
 8003b7e:	61bb      	str	r3, [r7, #24]
  uint32_t gSNPSiD = *(__IO const uint32_t *)(&USBx->CID + 0x1U);
 8003b80:	69fb      	ldr	r3, [r7, #28]
 8003b82:	333c      	adds	r3, #60	@ 0x3c
 8003b84:	3304      	adds	r3, #4
 8003b86:	681b      	ldr	r3, [r3, #0]
 8003b88:	617b      	str	r3, [r7, #20]
  uint32_t DoepintReg = USBx_OUTEP(epnum)->DOEPINT;
 8003b8a:	683b      	ldr	r3, [r7, #0]
 8003b8c:	015a      	lsls	r2, r3, #5
 8003b8e:	69bb      	ldr	r3, [r7, #24]
 8003b90:	4413      	add	r3, r2
 8003b92:	f503 6330 	add.w	r3, r3, #2816	@ 0xb00
 8003b96:	689b      	ldr	r3, [r3, #8]
 8003b98:	613b      	str	r3, [r7, #16]

  if (hpcd->Init.dma_enable == 1U)
 8003b9a:	687b      	ldr	r3, [r7, #4]
 8003b9c:	799b      	ldrb	r3, [r3, #6]
 8003b9e:	2b01      	cmp	r3, #1
 8003ba0:	d17b      	bne.n	8003c9a <PCD_EP_OutXfrComplete_int+0x12e>
  {
    if ((DoepintReg & USB_OTG_DOEPINT_STUP) == USB_OTG_DOEPINT_STUP) /* Class C */
 8003ba2:	693b      	ldr	r3, [r7, #16]
 8003ba4:	f003 0308 	and.w	r3, r3, #8
 8003ba8:	2b00      	cmp	r3, #0
 8003baa:	d015      	beq.n	8003bd8 <PCD_EP_OutXfrComplete_int+0x6c>
    {
      /* StupPktRcvd = 1 this is a setup packet */
      if ((gSNPSiD > USB_OTG_CORE_ID_300A) &&
 8003bac:	697b      	ldr	r3, [r7, #20]
 8003bae:	4a61      	ldr	r2, [pc, #388]	@ (8003d34 <PCD_EP_OutXfrComplete_int+0x1c8>)
 8003bb0:	4293      	cmp	r3, r2
 8003bb2:	f240 80b9 	bls.w	8003d28 <PCD_EP_OutXfrComplete_int+0x1bc>
          ((DoepintReg & USB_OTG_DOEPINT_STPKTRX) == USB_OTG_DOEPINT_STPKTRX))
 8003bb6:	693b      	ldr	r3, [r7, #16]
 8003bb8:	f403 4300 	and.w	r3, r3, #32768	@ 0x8000
      if ((gSNPSiD > USB_OTG_CORE_ID_300A) &&
 8003bbc:	2b00      	cmp	r3, #0
 8003bbe:	f000 80b3 	beq.w	8003d28 <PCD_EP_OutXfrComplete_int+0x1bc>
      {
        CLEAR_OUT_EP_INTR(epnum, USB_OTG_DOEPINT_STPKTRX);
 8003bc2:	683b      	ldr	r3, [r7, #0]
 8003bc4:	015a      	lsls	r2, r3, #5
 8003bc6:	69bb      	ldr	r3, [r7, #24]
 8003bc8:	4413      	add	r3, r2
 8003bca:	f503 6330 	add.w	r3, r3, #2816	@ 0xb00
 8003bce:	461a      	mov	r2, r3
 8003bd0:	f44f 4300 	mov.w	r3, #32768	@ 0x8000
 8003bd4:	6093      	str	r3, [r2, #8]
 8003bd6:	e0a7      	b.n	8003d28 <PCD_EP_OutXfrComplete_int+0x1bc>
      }
    }
    else if ((DoepintReg & USB_OTG_DOEPINT_OTEPSPR) == USB_OTG_DOEPINT_OTEPSPR) /* Class E */
 8003bd8:	693b      	ldr	r3, [r7, #16]
 8003bda:	f003 0320 	and.w	r3, r3, #32
 8003bde:	2b00      	cmp	r3, #0
 8003be0:	d009      	beq.n	8003bf6 <PCD_EP_OutXfrComplete_int+0x8a>
    {
      CLEAR_OUT_EP_INTR(epnum, USB_OTG_DOEPINT_OTEPSPR);
 8003be2:	683b      	ldr	r3, [r7, #0]
 8003be4:	015a      	lsls	r2, r3, #5
 8003be6:	69bb      	ldr	r3, [r7, #24]
 8003be8:	4413      	add	r3, r2
 8003bea:	f503 6330 	add.w	r3, r3, #2816	@ 0xb00
 8003bee:	461a      	mov	r2, r3
 8003bf0:	2320      	movs	r3, #32
 8003bf2:	6093      	str	r3, [r2, #8]
 8003bf4:	e098      	b.n	8003d28 <PCD_EP_OutXfrComplete_int+0x1bc>
    }
    else if ((DoepintReg & (USB_OTG_DOEPINT_STUP | USB_OTG_DOEPINT_OTEPSPR)) == 0U)
 8003bf6:	693b      	ldr	r3, [r7, #16]
 8003bf8:	f003 0328 	and.w	r3, r3, #40	@ 0x28
 8003bfc:	2b00      	cmp	r3, #0
 8003bfe:	f040 8093 	bne.w	8003d28 <PCD_EP_OutXfrComplete_int+0x1bc>
    {
      /* StupPktRcvd = 1 this is a setup packet */
      if ((gSNPSiD > USB_OTG_CORE_ID_300A) &&
 8003c02:	697b      	ldr	r3, [r7, #20]
 8003c04:	4a4b      	ldr	r2, [pc, #300]	@ (8003d34 <PCD_EP_OutXfrComplete_int+0x1c8>)
 8003c06:	4293      	cmp	r3, r2
 8003c08:	d90f      	bls.n	8003c2a <PCD_EP_OutXfrComplete_int+0xbe>
          ((DoepintReg & USB_OTG_DOEPINT_STPKTRX) == USB_OTG_DOEPINT_STPKTRX))
 8003c0a:	693b      	ldr	r3, [r7, #16]
 8003c0c:	f403 4300 	and.w	r3, r3, #32768	@ 0x8000
      if ((gSNPSiD > USB_OTG_CORE_ID_300A) &&
 8003c10:	2b00      	cmp	r3, #0
 8003c12:	d00a      	beq.n	8003c2a <PCD_EP_OutXfrComplete_int+0xbe>
      {
        CLEAR_OUT_EP_INTR(epnum, USB_OTG_DOEPINT_STPKTRX);
 8003c14:	683b      	ldr	r3, [r7, #0]
 8003c16:	015a      	lsls	r2, r3, #5
 8003c18:	69bb      	ldr	r3, [r7, #24]
 8003c1a:	4413      	add	r3, r2
 8003c1c:	f503 6330 	add.w	r3, r3, #2816	@ 0xb00
 8003c20:	461a      	mov	r2, r3
 8003c22:	f44f 4300 	mov.w	r3, #32768	@ 0x8000
 8003c26:	6093      	str	r3, [r2, #8]
 8003c28:	e07e      	b.n	8003d28 <PCD_EP_OutXfrComplete_int+0x1bc>
      }
      else
      {
        ep = &hpcd->OUT_ep[epnum];
 8003c2a:	683a      	ldr	r2, [r7, #0]
 8003c2c:	4613      	mov	r3, r2
 8003c2e:	00db      	lsls	r3, r3, #3
 8003c30:	4413      	add	r3, r2
 8003c32:	009b      	lsls	r3, r3, #2
 8003c34:	f503 7314 	add.w	r3, r3, #592	@ 0x250
 8003c38:	687a      	ldr	r2, [r7, #4]
 8003c3a:	4413      	add	r3, r2
 8003c3c:	3304      	adds	r3, #4
 8003c3e:	60fb      	str	r3, [r7, #12]

        /* out data packet received over EP */
        ep->xfer_count = ep->xfer_size - (USBx_OUTEP(epnum)->DOEPTSIZ & USB_OTG_DOEPTSIZ_XFRSIZ);
 8003c40:	68fb      	ldr	r3, [r7, #12]
 8003c42:	6a1a      	ldr	r2, [r3, #32]
 8003c44:	683b      	ldr	r3, [r7, #0]
 8003c46:	0159      	lsls	r1, r3, #5
 8003c48:	69bb      	ldr	r3, [r7, #24]
 8003c4a:	440b      	add	r3, r1
 8003c4c:	f503 6330 	add.w	r3, r3, #2816	@ 0xb00
 8003c50:	691b      	ldr	r3, [r3, #16]
 8003c52:	f3c3 0312 	ubfx	r3, r3, #0, #19
 8003c56:	1ad2      	subs	r2, r2, r3
 8003c58:	68fb      	ldr	r3, [r7, #12]
 8003c5a:	615a      	str	r2, [r3, #20]

        if (epnum == 0U)
 8003c5c:	683b      	ldr	r3, [r7, #0]
 8003c5e:	2b00      	cmp	r3, #0
 8003c60:	d114      	bne.n	8003c8c <PCD_EP_OutXfrComplete_int+0x120>
        {
          if (ep->xfer_len == 0U)
 8003c62:	68fb      	ldr	r3, [r7, #12]
 8003c64:	691b      	ldr	r3, [r3, #16]
 8003c66:	2b00      	cmp	r3, #0
 8003c68:	d109      	bne.n	8003c7e <PCD_EP_OutXfrComplete_int+0x112>
          {
            /* this is ZLP, so prepare EP0 for next setup */
            (void)USB_EP0_OutStart(hpcd->Instance, 1U, (uint8_t *)hpcd->Setup);
 8003c6a:	687b      	ldr	r3, [r7, #4]
 8003c6c:	6818      	ldr	r0, [r3, #0]
 8003c6e:	687b      	ldr	r3, [r7, #4]
 8003c70:	f203 439c 	addw	r3, r3, #1180	@ 0x49c
 8003c74:	461a      	mov	r2, r3
 8003c76:	2101      	movs	r1, #1
 8003c78:	f002 febc 	bl	80069f4 <USB_EP0_OutStart>
 8003c7c:	e006      	b.n	8003c8c <PCD_EP_OutXfrComplete_int+0x120>
          }
          else
          {
            ep->xfer_buff += ep->xfer_count;
 8003c7e:	68fb      	ldr	r3, [r7, #12]
 8003c80:	68da      	ldr	r2, [r3, #12]
 8003c82:	68fb      	ldr	r3, [r7, #12]
 8003c84:	695b      	ldr	r3, [r3, #20]
 8003c86:	441a      	add	r2, r3
 8003c88:	68fb      	ldr	r3, [r7, #12]
 8003c8a:	60da      	str	r2, [r3, #12]
        }

#if (USE_HAL_PCD_REGISTER_CALLBACKS == 1U)
        hpcd->DataOutStageCallback(hpcd, (uint8_t)epnum);
#else
        HAL_PCD_DataOutStageCallback(hpcd, (uint8_t)epnum);
 8003c8c:	683b      	ldr	r3, [r7, #0]
 8003c8e:	b2db      	uxtb	r3, r3
 8003c90:	4619      	mov	r1, r3
 8003c92:	6878      	ldr	r0, [r7, #4]
 8003c94:	f005 fa74 	bl	8009180 <HAL_PCD_DataOutStageCallback>
 8003c98:	e046      	b.n	8003d28 <PCD_EP_OutXfrComplete_int+0x1bc>
      /* ... */
    }
  }
  else
  {
    if (gSNPSiD == USB_OTG_CORE_ID_310A)
 8003c9a:	697b      	ldr	r3, [r7, #20]
 8003c9c:	4a26      	ldr	r2, [pc, #152]	@ (8003d38 <PCD_EP_OutXfrComplete_int+0x1cc>)
 8003c9e:	4293      	cmp	r3, r2
 8003ca0:	d124      	bne.n	8003cec <PCD_EP_OutXfrComplete_int+0x180>
    {
      /* StupPktRcvd = 1 this is a setup packet */
      if ((DoepintReg & USB_OTG_DOEPINT_STPKTRX) == USB_OTG_DOEPINT_STPKTRX)
 8003ca2:	693b      	ldr	r3, [r7, #16]
 8003ca4:	f403 4300 	and.w	r3, r3, #32768	@ 0x8000
 8003ca8:	2b00      	cmp	r3, #0
 8003caa:	d00a      	beq.n	8003cc2 <PCD_EP_OutXfrComplete_int+0x156>
      {
        CLEAR_OUT_EP_INTR(epnum, USB_OTG_DOEPINT_STPKTRX);
 8003cac:	683b      	ldr	r3, [r7, #0]
 8003cae:	015a      	lsls	r2, r3, #5
 8003cb0:	69bb      	ldr	r3, [r7, #24]
 8003cb2:	4413      	add	r3, r2
 8003cb4:	f503 6330 	add.w	r3, r3, #2816	@ 0xb00
 8003cb8:	461a      	mov	r2, r3
 8003cba:	f44f 4300 	mov.w	r3, #32768	@ 0x8000
 8003cbe:	6093      	str	r3, [r2, #8]
 8003cc0:	e032      	b.n	8003d28 <PCD_EP_OutXfrComplete_int+0x1bc>
      }
      else
      {
        if ((DoepintReg & USB_OTG_DOEPINT_OTEPSPR) == USB_OTG_DOEPINT_OTEPSPR)
 8003cc2:	693b      	ldr	r3, [r7, #16]
 8003cc4:	f003 0320 	and.w	r3, r3, #32
 8003cc8:	2b00      	cmp	r3, #0
 8003cca:	d008      	beq.n	8003cde <PCD_EP_OutXfrComplete_int+0x172>
        {
          CLEAR_OUT_EP_INTR(epnum, USB_OTG_DOEPINT_OTEPSPR);
 8003ccc:	683b      	ldr	r3, [r7, #0]
 8003cce:	015a      	lsls	r2, r3, #5
 8003cd0:	69bb      	ldr	r3, [r7, #24]
 8003cd2:	4413      	add	r3, r2
 8003cd4:	f503 6330 	add.w	r3, r3, #2816	@ 0xb00
 8003cd8:	461a      	mov	r2, r3
 8003cda:	2320      	movs	r3, #32
 8003cdc:	6093      	str	r3, [r2, #8]
        }

#if (USE_HAL_PCD_REGISTER_CALLBACKS == 1U)
        hpcd->DataOutStageCallback(hpcd, (uint8_t)epnum);
#else
        HAL_PCD_DataOutStageCallback(hpcd, (uint8_t)epnum);
 8003cde:	683b      	ldr	r3, [r7, #0]
 8003ce0:	b2db      	uxtb	r3, r3
 8003ce2:	4619      	mov	r1, r3
 8003ce4:	6878      	ldr	r0, [r7, #4]
 8003ce6:	f005 fa4b 	bl	8009180 <HAL_PCD_DataOutStageCallback>
 8003cea:	e01d      	b.n	8003d28 <PCD_EP_OutXfrComplete_int+0x1bc>
#endif /* USE_HAL_PCD_REGISTER_CALLBACKS */
      }
    }
    else
    {
      if ((epnum == 0U) && (hpcd->OUT_ep[epnum].xfer_len == 0U))
 8003cec:	683b      	ldr	r3, [r7, #0]
 8003cee:	2b00      	cmp	r3, #0
 8003cf0:	d114      	bne.n	8003d1c <PCD_EP_OutXfrComplete_int+0x1b0>
 8003cf2:	6879      	ldr	r1, [r7, #4]
 8003cf4:	683a      	ldr	r2, [r7, #0]
 8003cf6:	4613      	mov	r3, r2
 8003cf8:	00db      	lsls	r3, r3, #3
 8003cfa:	4413      	add	r3, r2
 8003cfc:	009b      	lsls	r3, r3, #2
 8003cfe:	440b      	add	r3, r1
 8003d00:	f503 7319 	add.w	r3, r3, #612	@ 0x264
 8003d04:	681b      	ldr	r3, [r3, #0]
 8003d06:	2b00      	cmp	r3, #0
 8003d08:	d108      	bne.n	8003d1c <PCD_EP_OutXfrComplete_int+0x1b0>
      {
        /* this is ZLP, so prepare EP0 for next setup */
        (void)USB_EP0_OutStart(hpcd->Instance, 0U, (uint8_t *)hpcd->Setup);
 8003d0a:	687b      	ldr	r3, [r7, #4]
 8003d0c:	6818      	ldr	r0, [r3, #0]
 8003d0e:	687b      	ldr	r3, [r7, #4]
 8003d10:	f203 439c 	addw	r3, r3, #1180	@ 0x49c
 8003d14:	461a      	mov	r2, r3
 8003d16:	2100      	movs	r1, #0
 8003d18:	f002 fe6c 	bl	80069f4 <USB_EP0_OutStart>
      }

#if (USE_HAL_PCD_REGISTER_CALLBACKS == 1U)
      hpcd->DataOutStageCallback(hpcd, (uint8_t)epnum);
#else
      HAL_PCD_DataOutStageCallback(hpcd, (uint8_t)epnum);
 8003d1c:	683b      	ldr	r3, [r7, #0]
 8003d1e:	b2db      	uxtb	r3, r3
 8003d20:	4619      	mov	r1, r3
 8003d22:	6878      	ldr	r0, [r7, #4]
 8003d24:	f005 fa2c 	bl	8009180 <HAL_PCD_DataOutStageCallback>
#endif /* USE_HAL_PCD_REGISTER_CALLBACKS */
    }
  }

  return HAL_OK;
 8003d28:	2300      	movs	r3, #0
}
 8003d2a:	4618      	mov	r0, r3
 8003d2c:	3720      	adds	r7, #32
 8003d2e:	46bd      	mov	sp, r7
 8003d30:	bd80      	pop	{r7, pc}
 8003d32:	bf00      	nop
 8003d34:	4f54300a 	.word	0x4f54300a
 8003d38:	4f54310a 	.word	0x4f54310a

08003d3c <PCD_EP_OutSetupPacket_int>:
  * @param  hpcd PCD handle
  * @param  epnum endpoint number
  * @retval HAL status
  */
static HAL_StatusTypeDef PCD_EP_OutSetupPacket_int(PCD_HandleTypeDef *hpcd, uint32_t epnum)
{
 8003d3c:	b580      	push	{r7, lr}
 8003d3e:	b086      	sub	sp, #24
 8003d40:	af00      	add	r7, sp, #0
 8003d42:	6078      	str	r0, [r7, #4]
 8003d44:	6039      	str	r1, [r7, #0]
  const USB_OTG_GlobalTypeDef *USBx = hpcd->Instance;
 8003d46:	687b      	ldr	r3, [r7, #4]
 8003d48:	681b      	ldr	r3, [r3, #0]
 8003d4a:	617b      	str	r3, [r7, #20]
  uint32_t USBx_BASE = (uint32_t)USBx;
 8003d4c:	697b      	ldr	r3, [r7, #20]
 8003d4e:	613b      	str	r3, [r7, #16]
  uint32_t gSNPSiD = *(__IO const uint32_t *)(&USBx->CID + 0x1U);
 8003d50:	697b      	ldr	r3, [r7, #20]
 8003d52:	333c      	adds	r3, #60	@ 0x3c
 8003d54:	3304      	adds	r3, #4
 8003d56:	681b      	ldr	r3, [r3, #0]
 8003d58:	60fb      	str	r3, [r7, #12]
  uint32_t DoepintReg = USBx_OUTEP(epnum)->DOEPINT;
 8003d5a:	683b      	ldr	r3, [r7, #0]
 8003d5c:	015a      	lsls	r2, r3, #5
 8003d5e:	693b      	ldr	r3, [r7, #16]
 8003d60:	4413      	add	r3, r2
 8003d62:	f503 6330 	add.w	r3, r3, #2816	@ 0xb00
 8003d66:	689b      	ldr	r3, [r3, #8]
 8003d68:	60bb      	str	r3, [r7, #8]

  if ((gSNPSiD > USB_OTG_CORE_ID_300A) &&
 8003d6a:	68fb      	ldr	r3, [r7, #12]
 8003d6c:	4a15      	ldr	r2, [pc, #84]	@ (8003dc4 <PCD_EP_OutSetupPacket_int+0x88>)
 8003d6e:	4293      	cmp	r3, r2
 8003d70:	d90e      	bls.n	8003d90 <PCD_EP_OutSetupPacket_int+0x54>
      ((DoepintReg & USB_OTG_DOEPINT_STPKTRX) == USB_OTG_DOEPINT_STPKTRX))
 8003d72:	68bb      	ldr	r3, [r7, #8]
 8003d74:	f403 4300 	and.w	r3, r3, #32768	@ 0x8000
  if ((gSNPSiD > USB_OTG_CORE_ID_300A) &&
 8003d78:	2b00      	cmp	r3, #0
 8003d7a:	d009      	beq.n	8003d90 <PCD_EP_OutSetupPacket_int+0x54>
  {
    CLEAR_OUT_EP_INTR(epnum, USB_OTG_DOEPINT_STPKTRX);
 8003d7c:	683b      	ldr	r3, [r7, #0]
 8003d7e:	015a      	lsls	r2, r3, #5
 8003d80:	693b      	ldr	r3, [r7, #16]
 8003d82:	4413      	add	r3, r2
 8003d84:	f503 6330 	add.w	r3, r3, #2816	@ 0xb00
 8003d88:	461a      	mov	r2, r3
 8003d8a:	f44f 4300 	mov.w	r3, #32768	@ 0x8000
 8003d8e:	6093      	str	r3, [r2, #8]

  /* Inform the upper layer that a setup packet is available */
#if (USE_HAL_PCD_REGISTER_CALLBACKS == 1U)
  hpcd->SetupStageCallback(hpcd);
#else
  HAL_PCD_SetupStageCallback(hpcd);
 8003d90:	6878      	ldr	r0, [r7, #4]
 8003d92:	f005 f9e3 	bl	800915c <HAL_PCD_SetupStageCallback>
#endif /* USE_HAL_PCD_REGISTER_CALLBACKS */

  if ((gSNPSiD > USB_OTG_CORE_ID_300A) && (hpcd->Init.dma_enable == 1U))
 8003d96:	68fb      	ldr	r3, [r7, #12]
 8003d98:	4a0a      	ldr	r2, [pc, #40]	@ (8003dc4 <PCD_EP_OutSetupPacket_int+0x88>)
 8003d9a:	4293      	cmp	r3, r2
 8003d9c:	d90c      	bls.n	8003db8 <PCD_EP_OutSetupPacket_int+0x7c>
 8003d9e:	687b      	ldr	r3, [r7, #4]
 8003da0:	799b      	ldrb	r3, [r3, #6]
 8003da2:	2b01      	cmp	r3, #1
 8003da4:	d108      	bne.n	8003db8 <PCD_EP_OutSetupPacket_int+0x7c>
  {
    (void)USB_EP0_OutStart(hpcd->Instance, 1U, (uint8_t *)hpcd->Setup);
 8003da6:	687b      	ldr	r3, [r7, #4]
 8003da8:	6818      	ldr	r0, [r3, #0]
 8003daa:	687b      	ldr	r3, [r7, #4]
 8003dac:	f203 439c 	addw	r3, r3, #1180	@ 0x49c
 8003db0:	461a      	mov	r2, r3
 8003db2:	2101      	movs	r1, #1
 8003db4:	f002 fe1e 	bl	80069f4 <USB_EP0_OutStart>
  }

  return HAL_OK;
 8003db8:	2300      	movs	r3, #0
}
 8003dba:	4618      	mov	r0, r3
 8003dbc:	3718      	adds	r7, #24
 8003dbe:	46bd      	mov	sp, r7
 8003dc0:	bd80      	pop	{r7, pc}
 8003dc2:	bf00      	nop
 8003dc4:	4f54300a 	.word	0x4f54300a

08003dc8 <HAL_PCDEx_SetTxFiFo>:
  * @param  fifo The number of Tx fifo
  * @param  size Fifo size
  * @retval HAL status
  */
HAL_StatusTypeDef HAL_PCDEx_SetTxFiFo(PCD_HandleTypeDef *hpcd, uint8_t fifo, uint16_t size)
{
 8003dc8:	b480      	push	{r7}
 8003dca:	b085      	sub	sp, #20
 8003dcc:	af00      	add	r7, sp, #0
 8003dce:	6078      	str	r0, [r7, #4]
 8003dd0:	460b      	mov	r3, r1
 8003dd2:	70fb      	strb	r3, [r7, #3]
 8003dd4:	4613      	mov	r3, r2
 8003dd6:	803b      	strh	r3, [r7, #0]
         --> Txn should be configured with the minimum space of 16 words
     The FIFO is used optimally when used TxFIFOs are allocated in the top
         of the FIFO.Ex: use EP1 and EP2 as IN instead of EP1 and EP3 as IN ones.
     When DMA is used 3n * FIFO locations should be reserved for internal DMA registers */

  Tx_Offset = hpcd->Instance->GRXFSIZ;
 8003dd8:	687b      	ldr	r3, [r7, #4]
 8003dda:	681b      	ldr	r3, [r3, #0]
 8003ddc:	6a5b      	ldr	r3, [r3, #36]	@ 0x24
 8003dde:	60bb      	str	r3, [r7, #8]

  if (fifo == 0U)
 8003de0:	78fb      	ldrb	r3, [r7, #3]
 8003de2:	2b00      	cmp	r3, #0
 8003de4:	d107      	bne.n	8003df6 <HAL_PCDEx_SetTxFiFo+0x2e>
  {
    hpcd->Instance->DIEPTXF0_HNPTXFSIZ = ((uint32_t)size << 16) | Tx_Offset;
 8003de6:	883b      	ldrh	r3, [r7, #0]
 8003de8:	0419      	lsls	r1, r3, #16
 8003dea:	687b      	ldr	r3, [r7, #4]
 8003dec:	681b      	ldr	r3, [r3, #0]
 8003dee:	68ba      	ldr	r2, [r7, #8]
 8003df0:	430a      	orrs	r2, r1
 8003df2:	629a      	str	r2, [r3, #40]	@ 0x28
 8003df4:	e028      	b.n	8003e48 <HAL_PCDEx_SetTxFiFo+0x80>
  }
  else
  {
    Tx_Offset += (hpcd->Instance->DIEPTXF0_HNPTXFSIZ) >> 16;
 8003df6:	687b      	ldr	r3, [r7, #4]
 8003df8:	681b      	ldr	r3, [r3, #0]
 8003dfa:	6a9b      	ldr	r3, [r3, #40]	@ 0x28
 8003dfc:	0c1b      	lsrs	r3, r3, #16
 8003dfe:	68ba      	ldr	r2, [r7, #8]
 8003e00:	4413      	add	r3, r2
 8003e02:	60bb      	str	r3, [r7, #8]
    for (i = 0U; i < (fifo - 1U); i++)
 8003e04:	2300      	movs	r3, #0
 8003e06:	73fb      	strb	r3, [r7, #15]
 8003e08:	e00d      	b.n	8003e26 <HAL_PCDEx_SetTxFiFo+0x5e>
    {
      Tx_Offset += (hpcd->Instance->DIEPTXF[i] >> 16);
 8003e0a:	687b      	ldr	r3, [r7, #4]
 8003e0c:	681a      	ldr	r2, [r3, #0]
 8003e0e:	7bfb      	ldrb	r3, [r7, #15]
 8003e10:	3340      	adds	r3, #64	@ 0x40
 8003e12:	009b      	lsls	r3, r3, #2
 8003e14:	4413      	add	r3, r2
 8003e16:	685b      	ldr	r3, [r3, #4]
 8003e18:	0c1b      	lsrs	r3, r3, #16
 8003e1a:	68ba      	ldr	r2, [r7, #8]
 8003e1c:	4413      	add	r3, r2
 8003e1e:	60bb      	str	r3, [r7, #8]
    for (i = 0U; i < (fifo - 1U); i++)
 8003e20:	7bfb      	ldrb	r3, [r7, #15]
 8003e22:	3301      	adds	r3, #1
 8003e24:	73fb      	strb	r3, [r7, #15]
 8003e26:	7bfa      	ldrb	r2, [r7, #15]
 8003e28:	78fb      	ldrb	r3, [r7, #3]
 8003e2a:	3b01      	subs	r3, #1
 8003e2c:	429a      	cmp	r2, r3
 8003e2e:	d3ec      	bcc.n	8003e0a <HAL_PCDEx_SetTxFiFo+0x42>
    }

    /* Multiply Tx_Size by 2 to get higher performance */
    hpcd->Instance->DIEPTXF[fifo - 1U] = ((uint32_t)size << 16) | Tx_Offset;
 8003e30:	883b      	ldrh	r3, [r7, #0]
 8003e32:	0418      	lsls	r0, r3, #16
 8003e34:	687b      	ldr	r3, [r7, #4]
 8003e36:	6819      	ldr	r1, [r3, #0]
 8003e38:	78fb      	ldrb	r3, [r7, #3]
 8003e3a:	3b01      	subs	r3, #1
 8003e3c:	68ba      	ldr	r2, [r7, #8]
 8003e3e:	4302      	orrs	r2, r0
 8003e40:	3340      	adds	r3, #64	@ 0x40
 8003e42:	009b      	lsls	r3, r3, #2
 8003e44:	440b      	add	r3, r1
 8003e46:	605a      	str	r2, [r3, #4]
  }

  return HAL_OK;
 8003e48:	2300      	movs	r3, #0
}
 8003e4a:	4618      	mov	r0, r3
 8003e4c:	3714      	adds	r7, #20
 8003e4e:	46bd      	mov	sp, r7
 8003e50:	f85d 7b04 	ldr.w	r7, [sp], #4
 8003e54:	4770      	bx	lr

08003e56 <HAL_PCDEx_SetRxFiFo>:
  * @param  hpcd PCD handle
  * @param  size Size of Rx fifo
  * @retval HAL status
  */
HAL_StatusTypeDef HAL_PCDEx_SetRxFiFo(PCD_HandleTypeDef *hpcd, uint16_t size)
{
 8003e56:	b480      	push	{r7}
 8003e58:	b083      	sub	sp, #12
 8003e5a:	af00      	add	r7, sp, #0
 8003e5c:	6078      	str	r0, [r7, #4]
 8003e5e:	460b      	mov	r3, r1
 8003e60:	807b      	strh	r3, [r7, #2]
  hpcd->Instance->GRXFSIZ = size;
 8003e62:	687b      	ldr	r3, [r7, #4]
 8003e64:	681b      	ldr	r3, [r3, #0]
 8003e66:	887a      	ldrh	r2, [r7, #2]
 8003e68:	625a      	str	r2, [r3, #36]	@ 0x24

  return HAL_OK;
 8003e6a:	2300      	movs	r3, #0
}
 8003e6c:	4618      	mov	r0, r3
 8003e6e:	370c      	adds	r7, #12
 8003e70:	46bd      	mov	sp, r7
 8003e72:	f85d 7b04 	ldr.w	r7, [sp], #4
 8003e76:	4770      	bx	lr

08003e78 <HAL_PCDEx_LPM_Callback>:
  * @param  hpcd PCD handle
  * @param  msg LPM message
  * @retval HAL status
  */
__weak void HAL_PCDEx_LPM_Callback(PCD_HandleTypeDef *hpcd, PCD_LPM_MsgTypeDef msg)
{
 8003e78:	b480      	push	{r7}
 8003e7a:	b083      	sub	sp, #12
 8003e7c:	af00      	add	r7, sp, #0
 8003e7e:	6078      	str	r0, [r7, #4]
 8003e80:	460b      	mov	r3, r1
 8003e82:	70fb      	strb	r3, [r7, #3]
  UNUSED(msg);

  /* NOTE : This function should not be modified, when the callback is needed,
            the HAL_PCDEx_LPM_Callback could be implemented in the user file
   */
}
 8003e84:	bf00      	nop
 8003e86:	370c      	adds	r7, #12
 8003e88:	46bd      	mov	sp, r7
 8003e8a:	f85d 7b04 	ldr.w	r7, [sp], #4
 8003e8e:	4770      	bx	lr

08003e90 <HAL_RCC_OscConfig>:
  *         supported by this API. User should request a transition to HSE Off
  *         first and then HSE On or HSE Bypass.
  * @retval HAL status
  */
__weak HAL_StatusTypeDef HAL_RCC_OscConfig(const RCC_OscInitTypeDef  *RCC_OscInitStruct)
{
 8003e90:	b580      	push	{r7, lr}
 8003e92:	b086      	sub	sp, #24
 8003e94:	af00      	add	r7, sp, #0
 8003e96:	6078      	str	r0, [r7, #4]
  uint32_t tickstart;
  uint32_t pll_config;
  /* Check Null pointer */
  if (RCC_OscInitStruct == NULL)
 8003e98:	687b      	ldr	r3, [r7, #4]
 8003e9a:	2b00      	cmp	r3, #0
 8003e9c:	d101      	bne.n	8003ea2 <HAL_RCC_OscConfig+0x12>
  {
    return HAL_ERROR;
 8003e9e:	2301      	movs	r3, #1
 8003ea0:	e267      	b.n	8004372 <HAL_RCC_OscConfig+0x4e2>
  }

  /* Check the parameters */
  assert_param(IS_RCC_OSCILLATORTYPE(RCC_OscInitStruct->OscillatorType));
  /*------------------------------- HSE Configuration ------------------------*/
  if (((RCC_OscInitStruct->OscillatorType) & RCC_OSCILLATORTYPE_HSE) == RCC_OSCILLATORTYPE_HSE)
 8003ea2:	687b      	ldr	r3, [r7, #4]
 8003ea4:	681b      	ldr	r3, [r3, #0]
 8003ea6:	f003 0301 	and.w	r3, r3, #1
 8003eaa:	2b00      	cmp	r3, #0
 8003eac:	d075      	beq.n	8003f9a <HAL_RCC_OscConfig+0x10a>
  {
    /* Check the parameters */
    assert_param(IS_RCC_HSE(RCC_OscInitStruct->HSEState));
    /* When the HSE is used as system clock or clock source for PLL in these cases HSE will not disabled */
    if ((__HAL_RCC_GET_SYSCLK_SOURCE() == RCC_CFGR_SWS_HSE) || \
 8003eae:	4b88      	ldr	r3, [pc, #544]	@ (80040d0 <HAL_RCC_OscConfig+0x240>)
 8003eb0:	689b      	ldr	r3, [r3, #8]
 8003eb2:	f003 030c 	and.w	r3, r3, #12
 8003eb6:	2b04      	cmp	r3, #4
 8003eb8:	d00c      	beq.n	8003ed4 <HAL_RCC_OscConfig+0x44>
        ((__HAL_RCC_GET_SYSCLK_SOURCE() == RCC_CFGR_SWS_PLL) && ((RCC->PLLCFGR & RCC_PLLCFGR_PLLSRC) == RCC_PLLCFGR_PLLSRC_HSE)))
 8003eba:	4b85      	ldr	r3, [pc, #532]	@ (80040d0 <HAL_RCC_OscConfig+0x240>)
 8003ebc:	689b      	ldr	r3, [r3, #8]
 8003ebe:	f003 030c 	and.w	r3, r3, #12
    if ((__HAL_RCC_GET_SYSCLK_SOURCE() == RCC_CFGR_SWS_HSE) || \
 8003ec2:	2b08      	cmp	r3, #8
 8003ec4:	d112      	bne.n	8003eec <HAL_RCC_OscConfig+0x5c>
        ((__HAL_RCC_GET_SYSCLK_SOURCE() == RCC_CFGR_SWS_PLL) && ((RCC->PLLCFGR & RCC_PLLCFGR_PLLSRC) == RCC_PLLCFGR_PLLSRC_HSE)))
 8003ec6:	4b82      	ldr	r3, [pc, #520]	@ (80040d0 <HAL_RCC_OscConfig+0x240>)
 8003ec8:	685b      	ldr	r3, [r3, #4]
 8003eca:	f403 0380 	and.w	r3, r3, #4194304	@ 0x400000
 8003ece:	f5b3 0f80 	cmp.w	r3, #4194304	@ 0x400000
 8003ed2:	d10b      	bne.n	8003eec <HAL_RCC_OscConfig+0x5c>
    {
      if ((__HAL_RCC_GET_FLAG(RCC_FLAG_HSERDY) != RESET) && (RCC_OscInitStruct->HSEState == RCC_HSE_OFF))
 8003ed4:	4b7e      	ldr	r3, [pc, #504]	@ (80040d0 <HAL_RCC_OscConfig+0x240>)
 8003ed6:	681b      	ldr	r3, [r3, #0]
 8003ed8:	f403 3300 	and.w	r3, r3, #131072	@ 0x20000
 8003edc:	2b00      	cmp	r3, #0
 8003ede:	d05b      	beq.n	8003f98 <HAL_RCC_OscConfig+0x108>
 8003ee0:	687b      	ldr	r3, [r7, #4]
 8003ee2:	685b      	ldr	r3, [r3, #4]
 8003ee4:	2b00      	cmp	r3, #0
 8003ee6:	d157      	bne.n	8003f98 <HAL_RCC_OscConfig+0x108>
      {
        return HAL_ERROR;
 8003ee8:	2301      	movs	r3, #1
 8003eea:	e242      	b.n	8004372 <HAL_RCC_OscConfig+0x4e2>
      }
    }
    else
    {
      /* Set the new HSE configuration ---------------------------------------*/
      __HAL_RCC_HSE_CONFIG(RCC_OscInitStruct->HSEState);
 8003eec:	687b      	ldr	r3, [r7, #4]
 8003eee:	685b      	ldr	r3, [r3, #4]
 8003ef0:	f5b3 3f80 	cmp.w	r3, #65536	@ 0x10000
 8003ef4:	d106      	bne.n	8003f04 <HAL_RCC_OscConfig+0x74>
 8003ef6:	4b76      	ldr	r3, [pc, #472]	@ (80040d0 <HAL_RCC_OscConfig+0x240>)
 8003ef8:	681b      	ldr	r3, [r3, #0]
 8003efa:	4a75      	ldr	r2, [pc, #468]	@ (80040d0 <HAL_RCC_OscConfig+0x240>)
 8003efc:	f443 3380 	orr.w	r3, r3, #65536	@ 0x10000
 8003f00:	6013      	str	r3, [r2, #0]
 8003f02:	e01d      	b.n	8003f40 <HAL_RCC_OscConfig+0xb0>
 8003f04:	687b      	ldr	r3, [r7, #4]
 8003f06:	685b      	ldr	r3, [r3, #4]
 8003f08:	f5b3 2fa0 	cmp.w	r3, #327680	@ 0x50000
 8003f0c:	d10c      	bne.n	8003f28 <HAL_RCC_OscConfig+0x98>
 8003f0e:	4b70      	ldr	r3, [pc, #448]	@ (80040d0 <HAL_RCC_OscConfig+0x240>)
 8003f10:	681b      	ldr	r3, [r3, #0]
 8003f12:	4a6f      	ldr	r2, [pc, #444]	@ (80040d0 <HAL_RCC_OscConfig+0x240>)
 8003f14:	f443 2380 	orr.w	r3, r3, #262144	@ 0x40000
 8003f18:	6013      	str	r3, [r2, #0]
 8003f1a:	4b6d      	ldr	r3, [pc, #436]	@ (80040d0 <HAL_RCC_OscConfig+0x240>)
 8003f1c:	681b      	ldr	r3, [r3, #0]
 8003f1e:	4a6c      	ldr	r2, [pc, #432]	@ (80040d0 <HAL_RCC_OscConfig+0x240>)
 8003f20:	f443 3380 	orr.w	r3, r3, #65536	@ 0x10000
 8003f24:	6013      	str	r3, [r2, #0]
 8003f26:	e00b      	b.n	8003f40 <HAL_RCC_OscConfig+0xb0>
 8003f28:	4b69      	ldr	r3, [pc, #420]	@ (80040d0 <HAL_RCC_OscConfig+0x240>)
 8003f2a:	681b      	ldr	r3, [r3, #0]
 8003f2c:	4a68      	ldr	r2, [pc, #416]	@ (80040d0 <HAL_RCC_OscConfig+0x240>)
 8003f2e:	f423 3380 	bic.w	r3, r3, #65536	@ 0x10000
 8003f32:	6013      	str	r3, [r2, #0]
 8003f34:	4b66      	ldr	r3, [pc, #408]	@ (80040d0 <HAL_RCC_OscConfig+0x240>)
 8003f36:	681b      	ldr	r3, [r3, #0]
 8003f38:	4a65      	ldr	r2, [pc, #404]	@ (80040d0 <HAL_RCC_OscConfig+0x240>)
 8003f3a:	f423 2380 	bic.w	r3, r3, #262144	@ 0x40000
 8003f3e:	6013      	str	r3, [r2, #0]

      /* Check the HSE State */
      if ((RCC_OscInitStruct->HSEState) != RCC_HSE_OFF)
 8003f40:	687b      	ldr	r3, [r7, #4]
 8003f42:	685b      	ldr	r3, [r3, #4]
 8003f44:	2b00      	cmp	r3, #0
 8003f46:	d013      	beq.n	8003f70 <HAL_RCC_OscConfig+0xe0>
      {
        /* Get Start Tick */
        tickstart = HAL_GetTick();
 8003f48:	f7fd f9ca 	bl	80012e0 <HAL_GetTick>
 8003f4c:	6138      	str	r0, [r7, #16]

        /* Wait till HSE is ready */
        while (__HAL_RCC_GET_FLAG(RCC_FLAG_HSERDY) == RESET)
 8003f4e:	e008      	b.n	8003f62 <HAL_RCC_OscConfig+0xd2>
        {
          if ((HAL_GetTick() - tickstart) > HSE_TIMEOUT_VALUE)
 8003f50:	f7fd f9c6 	bl	80012e0 <HAL_GetTick>
 8003f54:	4602      	mov	r2, r0
 8003f56:	693b      	ldr	r3, [r7, #16]
 8003f58:	1ad3      	subs	r3, r2, r3
 8003f5a:	2b64      	cmp	r3, #100	@ 0x64
 8003f5c:	d901      	bls.n	8003f62 <HAL_RCC_OscConfig+0xd2>
          {
            return HAL_TIMEOUT;
 8003f5e:	2303      	movs	r3, #3
 8003f60:	e207      	b.n	8004372 <HAL_RCC_OscConfig+0x4e2>
        while (__HAL_RCC_GET_FLAG(RCC_FLAG_HSERDY) == RESET)
 8003f62:	4b5b      	ldr	r3, [pc, #364]	@ (80040d0 <HAL_RCC_OscConfig+0x240>)
 8003f64:	681b      	ldr	r3, [r3, #0]
 8003f66:	f403 3300 	and.w	r3, r3, #131072	@ 0x20000
 8003f6a:	2b00      	cmp	r3, #0
 8003f6c:	d0f0      	beq.n	8003f50 <HAL_RCC_OscConfig+0xc0>
 8003f6e:	e014      	b.n	8003f9a <HAL_RCC_OscConfig+0x10a>
        }
      }
      else
      {
        /* Get Start Tick */
        tickstart = HAL_GetTick();
 8003f70:	f7fd f9b6 	bl	80012e0 <HAL_GetTick>
 8003f74:	6138      	str	r0, [r7, #16]

        /* Wait till HSE is bypassed or disabled */
        while (__HAL_RCC_GET_FLAG(RCC_FLAG_HSERDY) != RESET)
 8003f76:	e008      	b.n	8003f8a <HAL_RCC_OscConfig+0xfa>
        {
          if ((HAL_GetTick() - tickstart) > HSE_TIMEOUT_VALUE)
 8003f78:	f7fd f9b2 	bl	80012e0 <HAL_GetTick>
 8003f7c:	4602      	mov	r2, r0
 8003f7e:	693b      	ldr	r3, [r7, #16]
 8003f80:	1ad3      	subs	r3, r2, r3
 8003f82:	2b64      	cmp	r3, #100	@ 0x64
 8003f84:	d901      	bls.n	8003f8a <HAL_RCC_OscConfig+0xfa>
          {
            return HAL_TIMEOUT;
 8003f86:	2303      	movs	r3, #3
 8003f88:	e1f3      	b.n	8004372 <HAL_RCC_OscConfig+0x4e2>
        while (__HAL_RCC_GET_FLAG(RCC_FLAG_HSERDY) != RESET)
 8003f8a:	4b51      	ldr	r3, [pc, #324]	@ (80040d0 <HAL_RCC_OscConfig+0x240>)
 8003f8c:	681b      	ldr	r3, [r3, #0]
 8003f8e:	f403 3300 	and.w	r3, r3, #131072	@ 0x20000
 8003f92:	2b00      	cmp	r3, #0
 8003f94:	d1f0      	bne.n	8003f78 <HAL_RCC_OscConfig+0xe8>
 8003f96:	e000      	b.n	8003f9a <HAL_RCC_OscConfig+0x10a>
      if ((__HAL_RCC_GET_FLAG(RCC_FLAG_HSERDY) != RESET) && (RCC_OscInitStruct->HSEState == RCC_HSE_OFF))
 8003f98:	bf00      	nop
        }
      }
    }
  }
  /*----------------------------- HSI Configuration --------------------------*/
  if (((RCC_OscInitStruct->OscillatorType) & RCC_OSCILLATORTYPE_HSI) == RCC_OSCILLATORTYPE_HSI)
 8003f9a:	687b      	ldr	r3, [r7, #4]
 8003f9c:	681b      	ldr	r3, [r3, #0]
 8003f9e:	f003 0302 	and.w	r3, r3, #2
 8003fa2:	2b00      	cmp	r3, #0
 8003fa4:	d063      	beq.n	800406e <HAL_RCC_OscConfig+0x1de>
    /* Check the parameters */
    assert_param(IS_RCC_HSI(RCC_OscInitStruct->HSIState));
    assert_param(IS_RCC_CALIBRATION_VALUE(RCC_OscInitStruct->HSICalibrationValue));

    /* Check if HSI is used as system clock or as PLL source when PLL is selected as system clock */
    if ((__HAL_RCC_GET_SYSCLK_SOURCE() == RCC_CFGR_SWS_HSI) || \
 8003fa6:	4b4a      	ldr	r3, [pc, #296]	@ (80040d0 <HAL_RCC_OscConfig+0x240>)
 8003fa8:	689b      	ldr	r3, [r3, #8]
 8003faa:	f003 030c 	and.w	r3, r3, #12
 8003fae:	2b00      	cmp	r3, #0
 8003fb0:	d00b      	beq.n	8003fca <HAL_RCC_OscConfig+0x13a>
        ((__HAL_RCC_GET_SYSCLK_SOURCE() == RCC_CFGR_SWS_PLL) && ((RCC->PLLCFGR & RCC_PLLCFGR_PLLSRC) == RCC_PLLCFGR_PLLSRC_HSI)))
 8003fb2:	4b47      	ldr	r3, [pc, #284]	@ (80040d0 <HAL_RCC_OscConfig+0x240>)
 8003fb4:	689b      	ldr	r3, [r3, #8]
 8003fb6:	f003 030c 	and.w	r3, r3, #12
    if ((__HAL_RCC_GET_SYSCLK_SOURCE() == RCC_CFGR_SWS_HSI) || \
 8003fba:	2b08      	cmp	r3, #8
 8003fbc:	d11c      	bne.n	8003ff8 <HAL_RCC_OscConfig+0x168>
        ((__HAL_RCC_GET_SYSCLK_SOURCE() == RCC_CFGR_SWS_PLL) && ((RCC->PLLCFGR & RCC_PLLCFGR_PLLSRC) == RCC_PLLCFGR_PLLSRC_HSI)))
 8003fbe:	4b44      	ldr	r3, [pc, #272]	@ (80040d0 <HAL_RCC_OscConfig+0x240>)
 8003fc0:	685b      	ldr	r3, [r3, #4]
 8003fc2:	f403 0380 	and.w	r3, r3, #4194304	@ 0x400000
 8003fc6:	2b00      	cmp	r3, #0
 8003fc8:	d116      	bne.n	8003ff8 <HAL_RCC_OscConfig+0x168>
    {
      /* When HSI is used as system clock it will not disabled */
      if ((__HAL_RCC_GET_FLAG(RCC_FLAG_HSIRDY) != RESET) && (RCC_OscInitStruct->HSIState != RCC_HSI_ON))
 8003fca:	4b41      	ldr	r3, [pc, #260]	@ (80040d0 <HAL_RCC_OscConfig+0x240>)
 8003fcc:	681b      	ldr	r3, [r3, #0]
 8003fce:	f003 0302 	and.w	r3, r3, #2
 8003fd2:	2b00      	cmp	r3, #0
 8003fd4:	d005      	beq.n	8003fe2 <HAL_RCC_OscConfig+0x152>
 8003fd6:	687b      	ldr	r3, [r7, #4]
 8003fd8:	68db      	ldr	r3, [r3, #12]
 8003fda:	2b01      	cmp	r3, #1
 8003fdc:	d001      	beq.n	8003fe2 <HAL_RCC_OscConfig+0x152>
      {
        return HAL_ERROR;
 8003fde:	2301      	movs	r3, #1
 8003fe0:	e1c7      	b.n	8004372 <HAL_RCC_OscConfig+0x4e2>
      }
      /* Otherwise, just the calibration is allowed */
      else
      {
        /* Adjusts the Internal High Speed oscillator (HSI) calibration value.*/
        __HAL_RCC_HSI_CALIBRATIONVALUE_ADJUST(RCC_OscInitStruct->HSICalibrationValue);
 8003fe2:	4b3b      	ldr	r3, [pc, #236]	@ (80040d0 <HAL_RCC_OscConfig+0x240>)
 8003fe4:	681b      	ldr	r3, [r3, #0]
 8003fe6:	f023 02f8 	bic.w	r2, r3, #248	@ 0xf8
 8003fea:	687b      	ldr	r3, [r7, #4]
 8003fec:	691b      	ldr	r3, [r3, #16]
 8003fee:	00db      	lsls	r3, r3, #3
 8003ff0:	4937      	ldr	r1, [pc, #220]	@ (80040d0 <HAL_RCC_OscConfig+0x240>)
 8003ff2:	4313      	orrs	r3, r2
 8003ff4:	600b      	str	r3, [r1, #0]
      if ((__HAL_RCC_GET_FLAG(RCC_FLAG_HSIRDY) != RESET) && (RCC_OscInitStruct->HSIState != RCC_HSI_ON))
 8003ff6:	e03a      	b.n	800406e <HAL_RCC_OscConfig+0x1de>
      }
    }
    else
    {
      /* Check the HSI State */
      if ((RCC_OscInitStruct->HSIState) != RCC_HSI_OFF)
 8003ff8:	687b      	ldr	r3, [r7, #4]
 8003ffa:	68db      	ldr	r3, [r3, #12]
 8003ffc:	2b00      	cmp	r3, #0
 8003ffe:	d020      	beq.n	8004042 <HAL_RCC_OscConfig+0x1b2>
      {
        /* Enable the Internal High Speed oscillator (HSI). */
        __HAL_RCC_HSI_ENABLE();
 8004000:	4b34      	ldr	r3, [pc, #208]	@ (80040d4 <HAL_RCC_OscConfig+0x244>)
 8004002:	2201      	movs	r2, #1
 8004004:	601a      	str	r2, [r3, #0]

        /* Get Start Tick*/
        tickstart = HAL_GetTick();
 8004006:	f7fd f96b 	bl	80012e0 <HAL_GetTick>
 800400a:	6138      	str	r0, [r7, #16]

        /* Wait till HSI is ready */
        while (__HAL_RCC_GET_FLAG(RCC_FLAG_HSIRDY) == RESET)
 800400c:	e008      	b.n	8004020 <HAL_RCC_OscConfig+0x190>
        {
          if ((HAL_GetTick() - tickstart) > HSI_TIMEOUT_VALUE)
 800400e:	f7fd f967 	bl	80012e0 <HAL_GetTick>
 8004012:	4602      	mov	r2, r0
 8004014:	693b      	ldr	r3, [r7, #16]
 8004016:	1ad3      	subs	r3, r2, r3
 8004018:	2b02      	cmp	r3, #2
 800401a:	d901      	bls.n	8004020 <HAL_RCC_OscConfig+0x190>
          {
            return HAL_TIMEOUT;
 800401c:	2303      	movs	r3, #3
 800401e:	e1a8      	b.n	8004372 <HAL_RCC_OscConfig+0x4e2>
        while (__HAL_RCC_GET_FLAG(RCC_FLAG_HSIRDY) == RESET)
 8004020:	4b2b      	ldr	r3, [pc, #172]	@ (80040d0 <HAL_RCC_OscConfig+0x240>)
 8004022:	681b      	ldr	r3, [r3, #0]
 8004024:	f003 0302 	and.w	r3, r3, #2
 8004028:	2b00      	cmp	r3, #0
 800402a:	d0f0      	beq.n	800400e <HAL_RCC_OscConfig+0x17e>
          }
        }

        /* Adjusts the Internal High Speed oscillator (HSI) calibration value. */
        __HAL_RCC_HSI_CALIBRATIONVALUE_ADJUST(RCC_OscInitStruct->HSICalibrationValue);
 800402c:	4b28      	ldr	r3, [pc, #160]	@ (80040d0 <HAL_RCC_OscConfig+0x240>)
 800402e:	681b      	ldr	r3, [r3, #0]
 8004030:	f023 02f8 	bic.w	r2, r3, #248	@ 0xf8
 8004034:	687b      	ldr	r3, [r7, #4]
 8004036:	691b      	ldr	r3, [r3, #16]
 8004038:	00db      	lsls	r3, r3, #3
 800403a:	4925      	ldr	r1, [pc, #148]	@ (80040d0 <HAL_RCC_OscConfig+0x240>)
 800403c:	4313      	orrs	r3, r2
 800403e:	600b      	str	r3, [r1, #0]
 8004040:	e015      	b.n	800406e <HAL_RCC_OscConfig+0x1de>
      }
      else
      {
        /* Disable the Internal High Speed oscillator (HSI). */
        __HAL_RCC_HSI_DISABLE();
 8004042:	4b24      	ldr	r3, [pc, #144]	@ (80040d4 <HAL_RCC_OscConfig+0x244>)
 8004044:	2200      	movs	r2, #0
 8004046:	601a      	str	r2, [r3, #0]

        /* Get Start Tick*/
        tickstart = HAL_GetTick();
 8004048:	f7fd f94a 	bl	80012e0 <HAL_GetTick>
 800404c:	6138      	str	r0, [r7, #16]

        /* Wait till HSI is ready */
        while (__HAL_RCC_GET_FLAG(RCC_FLAG_HSIRDY) != RESET)
 800404e:	e008      	b.n	8004062 <HAL_RCC_OscConfig+0x1d2>
        {
          if ((HAL_GetTick() - tickstart) > HSI_TIMEOUT_VALUE)
 8004050:	f7fd f946 	bl	80012e0 <HAL_GetTick>
 8004054:	4602      	mov	r2, r0
 8004056:	693b      	ldr	r3, [r7, #16]
 8004058:	1ad3      	subs	r3, r2, r3
 800405a:	2b02      	cmp	r3, #2
 800405c:	d901      	bls.n	8004062 <HAL_RCC_OscConfig+0x1d2>
          {
            return HAL_TIMEOUT;
 800405e:	2303      	movs	r3, #3
 8004060:	e187      	b.n	8004372 <HAL_RCC_OscConfig+0x4e2>
        while (__HAL_RCC_GET_FLAG(RCC_FLAG_HSIRDY) != RESET)
 8004062:	4b1b      	ldr	r3, [pc, #108]	@ (80040d0 <HAL_RCC_OscConfig+0x240>)
 8004064:	681b      	ldr	r3, [r3, #0]
 8004066:	f003 0302 	and.w	r3, r3, #2
 800406a:	2b00      	cmp	r3, #0
 800406c:	d1f0      	bne.n	8004050 <HAL_RCC_OscConfig+0x1c0>
        }
      }
    }
  }
  /*------------------------------ LSI Configuration -------------------------*/
  if (((RCC_OscInitStruct->OscillatorType) & RCC_OSCILLATORTYPE_LSI) == RCC_OSCILLATORTYPE_LSI)
 800406e:	687b      	ldr	r3, [r7, #4]
 8004070:	681b      	ldr	r3, [r3, #0]
 8004072:	f003 0308 	and.w	r3, r3, #8
 8004076:	2b00      	cmp	r3, #0
 8004078:	d036      	beq.n	80040e8 <HAL_RCC_OscConfig+0x258>
  {
    /* Check the parameters */
    assert_param(IS_RCC_LSI(RCC_OscInitStruct->LSIState));

    /* Check the LSI State */
    if ((RCC_OscInitStruct->LSIState) != RCC_LSI_OFF)
 800407a:	687b      	ldr	r3, [r7, #4]
 800407c:	695b      	ldr	r3, [r3, #20]
 800407e:	2b00      	cmp	r3, #0
 8004080:	d016      	beq.n	80040b0 <HAL_RCC_OscConfig+0x220>
    {
      /* Enable the Internal Low Speed oscillator (LSI). */
      __HAL_RCC_LSI_ENABLE();
 8004082:	4b15      	ldr	r3, [pc, #84]	@ (80040d8 <HAL_RCC_OscConfig+0x248>)
 8004084:	2201      	movs	r2, #1
 8004086:	601a      	str	r2, [r3, #0]

      /* Get Start Tick*/
      tickstart = HAL_GetTick();
 8004088:	f7fd f92a 	bl	80012e0 <HAL_GetTick>
 800408c:	6138      	str	r0, [r7, #16]

      /* Wait till LSI is ready */
      while (__HAL_RCC_GET_FLAG(RCC_FLAG_LSIRDY) == RESET)
 800408e:	e008      	b.n	80040a2 <HAL_RCC_OscConfig+0x212>
      {
        if ((HAL_GetTick() - tickstart) > LSI_TIMEOUT_VALUE)
 8004090:	f7fd f926 	bl	80012e0 <HAL_GetTick>
 8004094:	4602      	mov	r2, r0
 8004096:	693b      	ldr	r3, [r7, #16]
 8004098:	1ad3      	subs	r3, r2, r3
 800409a:	2b02      	cmp	r3, #2
 800409c:	d901      	bls.n	80040a2 <HAL_RCC_OscConfig+0x212>
        {
          return HAL_TIMEOUT;
 800409e:	2303      	movs	r3, #3
 80040a0:	e167      	b.n	8004372 <HAL_RCC_OscConfig+0x4e2>
      while (__HAL_RCC_GET_FLAG(RCC_FLAG_LSIRDY) == RESET)
 80040a2:	4b0b      	ldr	r3, [pc, #44]	@ (80040d0 <HAL_RCC_OscConfig+0x240>)
 80040a4:	6f5b      	ldr	r3, [r3, #116]	@ 0x74
 80040a6:	f003 0302 	and.w	r3, r3, #2
 80040aa:	2b00      	cmp	r3, #0
 80040ac:	d0f0      	beq.n	8004090 <HAL_RCC_OscConfig+0x200>
 80040ae:	e01b      	b.n	80040e8 <HAL_RCC_OscConfig+0x258>
      }
    }
    else
    {
      /* Disable the Internal Low Speed oscillator (LSI). */
      __HAL_RCC_LSI_DISABLE();
 80040b0:	4b09      	ldr	r3, [pc, #36]	@ (80040d8 <HAL_RCC_OscConfig+0x248>)
 80040b2:	2200      	movs	r2, #0
 80040b4:	601a      	str	r2, [r3, #0]

      /* Get Start Tick */
      tickstart = HAL_GetTick();
 80040b6:	f7fd f913 	bl	80012e0 <HAL_GetTick>
 80040ba:	6138      	str	r0, [r7, #16]

      /* Wait till LSI is ready */
      while (__HAL_RCC_GET_FLAG(RCC_FLAG_LSIRDY) != RESET)
 80040bc:	e00e      	b.n	80040dc <HAL_RCC_OscConfig+0x24c>
      {
        if ((HAL_GetTick() - tickstart) > LSI_TIMEOUT_VALUE)
 80040be:	f7fd f90f 	bl	80012e0 <HAL_GetTick>
 80040c2:	4602      	mov	r2, r0
 80040c4:	693b      	ldr	r3, [r7, #16]
 80040c6:	1ad3      	subs	r3, r2, r3
 80040c8:	2b02      	cmp	r3, #2
 80040ca:	d907      	bls.n	80040dc <HAL_RCC_OscConfig+0x24c>
        {
          return HAL_TIMEOUT;
 80040cc:	2303      	movs	r3, #3
 80040ce:	e150      	b.n	8004372 <HAL_RCC_OscConfig+0x4e2>
 80040d0:	40023800 	.word	0x40023800
 80040d4:	42470000 	.word	0x42470000
 80040d8:	42470e80 	.word	0x42470e80
      while (__HAL_RCC_GET_FLAG(RCC_FLAG_LSIRDY) != RESET)
 80040dc:	4b88      	ldr	r3, [pc, #544]	@ (8004300 <HAL_RCC_OscConfig+0x470>)
 80040de:	6f5b      	ldr	r3, [r3, #116]	@ 0x74
 80040e0:	f003 0302 	and.w	r3, r3, #2
 80040e4:	2b00      	cmp	r3, #0
 80040e6:	d1ea      	bne.n	80040be <HAL_RCC_OscConfig+0x22e>
        }
      }
    }
  }
  /*------------------------------ LSE Configuration -------------------------*/
  if (((RCC_OscInitStruct->OscillatorType) & RCC_OSCILLATORTYPE_LSE) == RCC_OSCILLATORTYPE_LSE)
 80040e8:	687b      	ldr	r3, [r7, #4]
 80040ea:	681b      	ldr	r3, [r3, #0]
 80040ec:	f003 0304 	and.w	r3, r3, #4
 80040f0:	2b00      	cmp	r3, #0
 80040f2:	f000 8097 	beq.w	8004224 <HAL_RCC_OscConfig+0x394>
  {
    FlagStatus       pwrclkchanged = RESET;
 80040f6:	2300      	movs	r3, #0
 80040f8:	75fb      	strb	r3, [r7, #23]
    /* Check the parameters */
    assert_param(IS_RCC_LSE(RCC_OscInitStruct->LSEState));

    /* Update LSE configuration in Backup Domain control register    */
    /* Requires to enable write access to Backup Domain of necessary */
    if (__HAL_RCC_PWR_IS_CLK_DISABLED())
 80040fa:	4b81      	ldr	r3, [pc, #516]	@ (8004300 <HAL_RCC_OscConfig+0x470>)
 80040fc:	6c1b      	ldr	r3, [r3, #64]	@ 0x40
 80040fe:	f003 5380 	and.w	r3, r3, #268435456	@ 0x10000000
 8004102:	2b00      	cmp	r3, #0
 8004104:	d10f      	bne.n	8004126 <HAL_RCC_OscConfig+0x296>
    {
      __HAL_RCC_PWR_CLK_ENABLE();
 8004106:	2300      	movs	r3, #0
 8004108:	60bb      	str	r3, [r7, #8]
 800410a:	4b7d      	ldr	r3, [pc, #500]	@ (8004300 <HAL_RCC_OscConfig+0x470>)
 800410c:	6c1b      	ldr	r3, [r3, #64]	@ 0x40
 800410e:	4a7c      	ldr	r2, [pc, #496]	@ (8004300 <HAL_RCC_OscConfig+0x470>)
 8004110:	f043 5380 	orr.w	r3, r3, #268435456	@ 0x10000000
 8004114:	6413      	str	r3, [r2, #64]	@ 0x40
 8004116:	4b7a      	ldr	r3, [pc, #488]	@ (8004300 <HAL_RCC_OscConfig+0x470>)
 8004118:	6c1b      	ldr	r3, [r3, #64]	@ 0x40
 800411a:	f003 5380 	and.w	r3, r3, #268435456	@ 0x10000000
 800411e:	60bb      	str	r3, [r7, #8]
 8004120:	68bb      	ldr	r3, [r7, #8]
      pwrclkchanged = SET;
 8004122:	2301      	movs	r3, #1
 8004124:	75fb      	strb	r3, [r7, #23]
    }

    if (HAL_IS_BIT_CLR(PWR->CR, PWR_CR_DBP))
 8004126:	4b77      	ldr	r3, [pc, #476]	@ (8004304 <HAL_RCC_OscConfig+0x474>)
 8004128:	681b      	ldr	r3, [r3, #0]
 800412a:	f403 7380 	and.w	r3, r3, #256	@ 0x100
 800412e:	2b00      	cmp	r3, #0
 8004130:	d118      	bne.n	8004164 <HAL_RCC_OscConfig+0x2d4>
    {
      /* Enable write access to Backup domain */
      SET_BIT(PWR->CR, PWR_CR_DBP);
 8004132:	4b74      	ldr	r3, [pc, #464]	@ (8004304 <HAL_RCC_OscConfig+0x474>)
 8004134:	681b      	ldr	r3, [r3, #0]
 8004136:	4a73      	ldr	r2, [pc, #460]	@ (8004304 <HAL_RCC_OscConfig+0x474>)
 8004138:	f443 7380 	orr.w	r3, r3, #256	@ 0x100
 800413c:	6013      	str	r3, [r2, #0]

      /* Wait for Backup domain Write protection disable */
      tickstart = HAL_GetTick();
 800413e:	f7fd f8cf 	bl	80012e0 <HAL_GetTick>
 8004142:	6138      	str	r0, [r7, #16]

      while (HAL_IS_BIT_CLR(PWR->CR, PWR_CR_DBP))
 8004144:	e008      	b.n	8004158 <HAL_RCC_OscConfig+0x2c8>
      {
        if ((HAL_GetTick() - tickstart) > RCC_DBP_TIMEOUT_VALUE)
 8004146:	f7fd f8cb 	bl	80012e0 <HAL_GetTick>
 800414a:	4602      	mov	r2, r0
 800414c:	693b      	ldr	r3, [r7, #16]
 800414e:	1ad3      	subs	r3, r2, r3
 8004150:	2b02      	cmp	r3, #2
 8004152:	d901      	bls.n	8004158 <HAL_RCC_OscConfig+0x2c8>
        {
          return HAL_TIMEOUT;
 8004154:	2303      	movs	r3, #3
 8004156:	e10c      	b.n	8004372 <HAL_RCC_OscConfig+0x4e2>
      while (HAL_IS_BIT_CLR(PWR->CR, PWR_CR_DBP))
 8004158:	4b6a      	ldr	r3, [pc, #424]	@ (8004304 <HAL_RCC_OscConfig+0x474>)
 800415a:	681b      	ldr	r3, [r3, #0]
 800415c:	f403 7380 	and.w	r3, r3, #256	@ 0x100
 8004160:	2b00      	cmp	r3, #0
 8004162:	d0f0      	beq.n	8004146 <HAL_RCC_OscConfig+0x2b6>
        }
      }
    }

    /* Set the new LSE configuration -----------------------------------------*/
    __HAL_RCC_LSE_CONFIG(RCC_OscInitStruct->LSEState);
 8004164:	687b      	ldr	r3, [r7, #4]
 8004166:	689b      	ldr	r3, [r3, #8]
 8004168:	2b01      	cmp	r3, #1
 800416a:	d106      	bne.n	800417a <HAL_RCC_OscConfig+0x2ea>
 800416c:	4b64      	ldr	r3, [pc, #400]	@ (8004300 <HAL_RCC_OscConfig+0x470>)
 800416e:	6f1b      	ldr	r3, [r3, #112]	@ 0x70
 8004170:	4a63      	ldr	r2, [pc, #396]	@ (8004300 <HAL_RCC_OscConfig+0x470>)
 8004172:	f043 0301 	orr.w	r3, r3, #1
 8004176:	6713      	str	r3, [r2, #112]	@ 0x70
 8004178:	e01c      	b.n	80041b4 <HAL_RCC_OscConfig+0x324>
 800417a:	687b      	ldr	r3, [r7, #4]
 800417c:	689b      	ldr	r3, [r3, #8]
 800417e:	2b05      	cmp	r3, #5
 8004180:	d10c      	bne.n	800419c <HAL_RCC_OscConfig+0x30c>
 8004182:	4b5f      	ldr	r3, [pc, #380]	@ (8004300 <HAL_RCC_OscConfig+0x470>)
 8004184:	6f1b      	ldr	r3, [r3, #112]	@ 0x70
 8004186:	4a5e      	ldr	r2, [pc, #376]	@ (8004300 <HAL_RCC_OscConfig+0x470>)
 8004188:	f043 0304 	orr.w	r3, r3, #4
 800418c:	6713      	str	r3, [r2, #112]	@ 0x70
 800418e:	4b5c      	ldr	r3, [pc, #368]	@ (8004300 <HAL_RCC_OscConfig+0x470>)
 8004190:	6f1b      	ldr	r3, [r3, #112]	@ 0x70
 8004192:	4a5b      	ldr	r2, [pc, #364]	@ (8004300 <HAL_RCC_OscConfig+0x470>)
 8004194:	f043 0301 	orr.w	r3, r3, #1
 8004198:	6713      	str	r3, [r2, #112]	@ 0x70
 800419a:	e00b      	b.n	80041b4 <HAL_RCC_OscConfig+0x324>
 800419c:	4b58      	ldr	r3, [pc, #352]	@ (8004300 <HAL_RCC_OscConfig+0x470>)
 800419e:	6f1b      	ldr	r3, [r3, #112]	@ 0x70
 80041a0:	4a57      	ldr	r2, [pc, #348]	@ (8004300 <HAL_RCC_OscConfig+0x470>)
 80041a2:	f023 0301 	bic.w	r3, r3, #1
 80041a6:	6713      	str	r3, [r2, #112]	@ 0x70
 80041a8:	4b55      	ldr	r3, [pc, #340]	@ (8004300 <HAL_RCC_OscConfig+0x470>)
 80041aa:	6f1b      	ldr	r3, [r3, #112]	@ 0x70
 80041ac:	4a54      	ldr	r2, [pc, #336]	@ (8004300 <HAL_RCC_OscConfig+0x470>)
 80041ae:	f023 0304 	bic.w	r3, r3, #4
 80041b2:	6713      	str	r3, [r2, #112]	@ 0x70
    /* Check the LSE State */
    if ((RCC_OscInitStruct->LSEState) != RCC_LSE_OFF)
 80041b4:	687b      	ldr	r3, [r7, #4]
 80041b6:	689b      	ldr	r3, [r3, #8]
 80041b8:	2b00      	cmp	r3, #0
 80041ba:	d015      	beq.n	80041e8 <HAL_RCC_OscConfig+0x358>
    {
      /* Get Start Tick*/
      tickstart = HAL_GetTick();
 80041bc:	f7fd f890 	bl	80012e0 <HAL_GetTick>
 80041c0:	6138      	str	r0, [r7, #16]

      /* Wait till LSE is ready */
      while (__HAL_RCC_GET_FLAG(RCC_FLAG_LSERDY) == RESET)
 80041c2:	e00a      	b.n	80041da <HAL_RCC_OscConfig+0x34a>
      {
        if ((HAL_GetTick() - tickstart) > RCC_LSE_TIMEOUT_VALUE)
 80041c4:	f7fd f88c 	bl	80012e0 <HAL_GetTick>
 80041c8:	4602      	mov	r2, r0
 80041ca:	693b      	ldr	r3, [r7, #16]
 80041cc:	1ad3      	subs	r3, r2, r3
 80041ce:	f241 3288 	movw	r2, #5000	@ 0x1388
 80041d2:	4293      	cmp	r3, r2
 80041d4:	d901      	bls.n	80041da <HAL_RCC_OscConfig+0x34a>
        {
          return HAL_TIMEOUT;
 80041d6:	2303      	movs	r3, #3
 80041d8:	e0cb      	b.n	8004372 <HAL_RCC_OscConfig+0x4e2>
      while (__HAL_RCC_GET_FLAG(RCC_FLAG_LSERDY) == RESET)
 80041da:	4b49      	ldr	r3, [pc, #292]	@ (8004300 <HAL_RCC_OscConfig+0x470>)
 80041dc:	6f1b      	ldr	r3, [r3, #112]	@ 0x70
 80041de:	f003 0302 	and.w	r3, r3, #2
 80041e2:	2b00      	cmp	r3, #0
 80041e4:	d0ee      	beq.n	80041c4 <HAL_RCC_OscConfig+0x334>
 80041e6:	e014      	b.n	8004212 <HAL_RCC_OscConfig+0x382>
      }
    }
    else
    {
      /* Get Start Tick */
      tickstart = HAL_GetTick();
 80041e8:	f7fd f87a 	bl	80012e0 <HAL_GetTick>
 80041ec:	6138      	str	r0, [r7, #16]

      /* Wait till LSE is ready */
      while (__HAL_RCC_GET_FLAG(RCC_FLAG_LSERDY) != RESET)
 80041ee:	e00a      	b.n	8004206 <HAL_RCC_OscConfig+0x376>
      {
        if ((HAL_GetTick() - tickstart) > RCC_LSE_TIMEOUT_VALUE)
 80041f0:	f7fd f876 	bl	80012e0 <HAL_GetTick>
 80041f4:	4602      	mov	r2, r0
 80041f6:	693b      	ldr	r3, [r7, #16]
 80041f8:	1ad3      	subs	r3, r2, r3
 80041fa:	f241 3288 	movw	r2, #5000	@ 0x1388
 80041fe:	4293      	cmp	r3, r2
 8004200:	d901      	bls.n	8004206 <HAL_RCC_OscConfig+0x376>
        {
          return HAL_TIMEOUT;
 8004202:	2303      	movs	r3, #3
 8004204:	e0b5      	b.n	8004372 <HAL_RCC_OscConfig+0x4e2>
      while (__HAL_RCC_GET_FLAG(RCC_FLAG_LSERDY) != RESET)
 8004206:	4b3e      	ldr	r3, [pc, #248]	@ (8004300 <HAL_RCC_OscConfig+0x470>)
 8004208:	6f1b      	ldr	r3, [r3, #112]	@ 0x70
 800420a:	f003 0302 	and.w	r3, r3, #2
 800420e:	2b00      	cmp	r3, #0
 8004210:	d1ee      	bne.n	80041f0 <HAL_RCC_OscConfig+0x360>
        }
      }
    }

    /* Restore clock configuration if changed */
    if (pwrclkchanged == SET)
 8004212:	7dfb      	ldrb	r3, [r7, #23]
 8004214:	2b01      	cmp	r3, #1
 8004216:	d105      	bne.n	8004224 <HAL_RCC_OscConfig+0x394>
    {
      __HAL_RCC_PWR_CLK_DISABLE();
 8004218:	4b39      	ldr	r3, [pc, #228]	@ (8004300 <HAL_RCC_OscConfig+0x470>)
 800421a:	6c1b      	ldr	r3, [r3, #64]	@ 0x40
 800421c:	4a38      	ldr	r2, [pc, #224]	@ (8004300 <HAL_RCC_OscConfig+0x470>)
 800421e:	f023 5380 	bic.w	r3, r3, #268435456	@ 0x10000000
 8004222:	6413      	str	r3, [r2, #64]	@ 0x40
    }
  }
  /*-------------------------------- PLL Configuration -----------------------*/
  /* Check the parameters */
  assert_param(IS_RCC_PLL(RCC_OscInitStruct->PLL.PLLState));
  if ((RCC_OscInitStruct->PLL.PLLState) != RCC_PLL_NONE)
 8004224:	687b      	ldr	r3, [r7, #4]
 8004226:	699b      	ldr	r3, [r3, #24]
 8004228:	2b00      	cmp	r3, #0
 800422a:	f000 80a1 	beq.w	8004370 <HAL_RCC_OscConfig+0x4e0>
  {
    /* Check if the PLL is used as system clock or not */
    if (__HAL_RCC_GET_SYSCLK_SOURCE() != RCC_CFGR_SWS_PLL)
 800422e:	4b34      	ldr	r3, [pc, #208]	@ (8004300 <HAL_RCC_OscConfig+0x470>)
 8004230:	689b      	ldr	r3, [r3, #8]
 8004232:	f003 030c 	and.w	r3, r3, #12
 8004236:	2b08      	cmp	r3, #8
 8004238:	d05c      	beq.n	80042f4 <HAL_RCC_OscConfig+0x464>
    {
      if ((RCC_OscInitStruct->PLL.PLLState) == RCC_PLL_ON)
 800423a:	687b      	ldr	r3, [r7, #4]
 800423c:	699b      	ldr	r3, [r3, #24]
 800423e:	2b02      	cmp	r3, #2
 8004240:	d141      	bne.n	80042c6 <HAL_RCC_OscConfig+0x436>
        assert_param(IS_RCC_PLLN_VALUE(RCC_OscInitStruct->PLL.PLLN));
        assert_param(IS_RCC_PLLP_VALUE(RCC_OscInitStruct->PLL.PLLP));
        assert_param(IS_RCC_PLLQ_VALUE(RCC_OscInitStruct->PLL.PLLQ));

        /* Disable the main PLL. */
        __HAL_RCC_PLL_DISABLE();
 8004242:	4b31      	ldr	r3, [pc, #196]	@ (8004308 <HAL_RCC_OscConfig+0x478>)
 8004244:	2200      	movs	r2, #0
 8004246:	601a      	str	r2, [r3, #0]

        /* Get Start Tick */
        tickstart = HAL_GetTick();
 8004248:	f7fd f84a 	bl	80012e0 <HAL_GetTick>
 800424c:	6138      	str	r0, [r7, #16]

        /* Wait till PLL is disabled */
        while (__HAL_RCC_GET_FLAG(RCC_FLAG_PLLRDY) != RESET)
 800424e:	e008      	b.n	8004262 <HAL_RCC_OscConfig+0x3d2>
        {
          if ((HAL_GetTick() - tickstart) > PLL_TIMEOUT_VALUE)
 8004250:	f7fd f846 	bl	80012e0 <HAL_GetTick>
 8004254:	4602      	mov	r2, r0
 8004256:	693b      	ldr	r3, [r7, #16]
 8004258:	1ad3      	subs	r3, r2, r3
 800425a:	2b02      	cmp	r3, #2
 800425c:	d901      	bls.n	8004262 <HAL_RCC_OscConfig+0x3d2>
          {
            return HAL_TIMEOUT;
 800425e:	2303      	movs	r3, #3
 8004260:	e087      	b.n	8004372 <HAL_RCC_OscConfig+0x4e2>
        while (__HAL_RCC_GET_FLAG(RCC_FLAG_PLLRDY) != RESET)
 8004262:	4b27      	ldr	r3, [pc, #156]	@ (8004300 <HAL_RCC_OscConfig+0x470>)
 8004264:	681b      	ldr	r3, [r3, #0]
 8004266:	f003 7300 	and.w	r3, r3, #33554432	@ 0x2000000
 800426a:	2b00      	cmp	r3, #0
 800426c:	d1f0      	bne.n	8004250 <HAL_RCC_OscConfig+0x3c0>
          }
        }

        /* Configure the main PLL clock source, multiplication and division factors. */
        WRITE_REG(RCC->PLLCFGR, (RCC_OscInitStruct->PLL.PLLSource                                            | \
 800426e:	687b      	ldr	r3, [r7, #4]
 8004270:	69da      	ldr	r2, [r3, #28]
 8004272:	687b      	ldr	r3, [r7, #4]
 8004274:	6a1b      	ldr	r3, [r3, #32]
 8004276:	431a      	orrs	r2, r3
 8004278:	687b      	ldr	r3, [r7, #4]
 800427a:	6a5b      	ldr	r3, [r3, #36]	@ 0x24
 800427c:	019b      	lsls	r3, r3, #6
 800427e:	431a      	orrs	r2, r3
 8004280:	687b      	ldr	r3, [r7, #4]
 8004282:	6a9b      	ldr	r3, [r3, #40]	@ 0x28
 8004284:	085b      	lsrs	r3, r3, #1
 8004286:	3b01      	subs	r3, #1
 8004288:	041b      	lsls	r3, r3, #16
 800428a:	431a      	orrs	r2, r3
 800428c:	687b      	ldr	r3, [r7, #4]
 800428e:	6adb      	ldr	r3, [r3, #44]	@ 0x2c
 8004290:	061b      	lsls	r3, r3, #24
 8004292:	491b      	ldr	r1, [pc, #108]	@ (8004300 <HAL_RCC_OscConfig+0x470>)
 8004294:	4313      	orrs	r3, r2
 8004296:	604b      	str	r3, [r1, #4]
                                 RCC_OscInitStruct->PLL.PLLM                                                 | \
                                 (RCC_OscInitStruct->PLL.PLLN << RCC_PLLCFGR_PLLN_Pos)             | \
                                 (((RCC_OscInitStruct->PLL.PLLP >> 1U) - 1U) << RCC_PLLCFGR_PLLP_Pos) | \
                                 (RCC_OscInitStruct->PLL.PLLQ << RCC_PLLCFGR_PLLQ_Pos)));
        /* Enable the main PLL. */
        __HAL_RCC_PLL_ENABLE();
 8004298:	4b1b      	ldr	r3, [pc, #108]	@ (8004308 <HAL_RCC_OscConfig+0x478>)
 800429a:	2201      	movs	r2, #1
 800429c:	601a      	str	r2, [r3, #0]

        /* Get Start Tick */
        tickstart = HAL_GetTick();
 800429e:	f7fd f81f 	bl	80012e0 <HAL_GetTick>
 80042a2:	6138      	str	r0, [r7, #16]

        /* Wait till PLL is ready */
        while (__HAL_RCC_GET_FLAG(RCC_FLAG_PLLRDY) == RESET)
 80042a4:	e008      	b.n	80042b8 <HAL_RCC_OscConfig+0x428>
        {
          if ((HAL_GetTick() - tickstart) > PLL_TIMEOUT_VALUE)
 80042a6:	f7fd f81b 	bl	80012e0 <HAL_GetTick>
 80042aa:	4602      	mov	r2, r0
 80042ac:	693b      	ldr	r3, [r7, #16]
 80042ae:	1ad3      	subs	r3, r2, r3
 80042b0:	2b02      	cmp	r3, #2
 80042b2:	d901      	bls.n	80042b8 <HAL_RCC_OscConfig+0x428>
          {
            return HAL_TIMEOUT;
 80042b4:	2303      	movs	r3, #3
 80042b6:	e05c      	b.n	8004372 <HAL_RCC_OscConfig+0x4e2>
        while (__HAL_RCC_GET_FLAG(RCC_FLAG_PLLRDY) == RESET)
 80042b8:	4b11      	ldr	r3, [pc, #68]	@ (8004300 <HAL_RCC_OscConfig+0x470>)
 80042ba:	681b      	ldr	r3, [r3, #0]
 80042bc:	f003 7300 	and.w	r3, r3, #33554432	@ 0x2000000
 80042c0:	2b00      	cmp	r3, #0
 80042c2:	d0f0      	beq.n	80042a6 <HAL_RCC_OscConfig+0x416>
 80042c4:	e054      	b.n	8004370 <HAL_RCC_OscConfig+0x4e0>
        }
      }
      else
      {
        /* Disable the main PLL. */
        __HAL_RCC_PLL_DISABLE();
 80042c6:	4b10      	ldr	r3, [pc, #64]	@ (8004308 <HAL_RCC_OscConfig+0x478>)
 80042c8:	2200      	movs	r2, #0
 80042ca:	601a      	str	r2, [r3, #0]

        /* Get Start Tick */
        tickstart = HAL_GetTick();
 80042cc:	f7fd f808 	bl	80012e0 <HAL_GetTick>
 80042d0:	6138      	str	r0, [r7, #16]

        /* Wait till PLL is disabled */
        while (__HAL_RCC_GET_FLAG(RCC_FLAG_PLLRDY) != RESET)
 80042d2:	e008      	b.n	80042e6 <HAL_RCC_OscConfig+0x456>
        {
          if ((HAL_GetTick() - tickstart) > PLL_TIMEOUT_VALUE)
 80042d4:	f7fd f804 	bl	80012e0 <HAL_GetTick>
 80042d8:	4602      	mov	r2, r0
 80042da:	693b      	ldr	r3, [r7, #16]
 80042dc:	1ad3      	subs	r3, r2, r3
 80042de:	2b02      	cmp	r3, #2
 80042e0:	d901      	bls.n	80042e6 <HAL_RCC_OscConfig+0x456>
          {
            return HAL_TIMEOUT;
 80042e2:	2303      	movs	r3, #3
 80042e4:	e045      	b.n	8004372 <HAL_RCC_OscConfig+0x4e2>
        while (__HAL_RCC_GET_FLAG(RCC_FLAG_PLLRDY) != RESET)
 80042e6:	4b06      	ldr	r3, [pc, #24]	@ (8004300 <HAL_RCC_OscConfig+0x470>)
 80042e8:	681b      	ldr	r3, [r3, #0]
 80042ea:	f003 7300 	and.w	r3, r3, #33554432	@ 0x2000000
 80042ee:	2b00      	cmp	r3, #0
 80042f0:	d1f0      	bne.n	80042d4 <HAL_RCC_OscConfig+0x444>
 80042f2:	e03d      	b.n	8004370 <HAL_RCC_OscConfig+0x4e0>
      }
    }
    else
    {
      /* Check if there is a request to disable the PLL used as System clock source */
      if ((RCC_OscInitStruct->PLL.PLLState) == RCC_PLL_OFF)
 80042f4:	687b      	ldr	r3, [r7, #4]
 80042f6:	699b      	ldr	r3, [r3, #24]
 80042f8:	2b01      	cmp	r3, #1
 80042fa:	d107      	bne.n	800430c <HAL_RCC_OscConfig+0x47c>
      {
        return HAL_ERROR;
 80042fc:	2301      	movs	r3, #1
 80042fe:	e038      	b.n	8004372 <HAL_RCC_OscConfig+0x4e2>
 8004300:	40023800 	.word	0x40023800
 8004304:	40007000 	.word	0x40007000
 8004308:	42470060 	.word	0x42470060
      }
      else
      {
        /* Do not return HAL_ERROR if request repeats the current configuration */
        pll_config = RCC->PLLCFGR;
 800430c:	4b1b      	ldr	r3, [pc, #108]	@ (800437c <HAL_RCC_OscConfig+0x4ec>)
 800430e:	685b      	ldr	r3, [r3, #4]
 8004310:	60fb      	str	r3, [r7, #12]
            (READ_BIT(pll_config, RCC_PLLCFGR_PLLN) != (RCC_OscInitStruct->PLL.PLLN) << RCC_PLLCFGR_PLLN_Pos) ||
            (READ_BIT(pll_config, RCC_PLLCFGR_PLLP) != (((RCC_OscInitStruct->PLL.PLLP >> 1U) - 1U)) << RCC_PLLCFGR_PLLP_Pos) ||
            (READ_BIT(pll_config, RCC_PLLCFGR_PLLQ) != (RCC_OscInitStruct->PLL.PLLQ << RCC_PLLCFGR_PLLQ_Pos)) ||
            (READ_BIT(pll_config, RCC_PLLCFGR_PLLR) != (RCC_OscInitStruct->PLL.PLLR << RCC_PLLCFGR_PLLR_Pos)))
#else
        if (((RCC_OscInitStruct->PLL.PLLState) == RCC_PLL_OFF) ||
 8004312:	687b      	ldr	r3, [r7, #4]
 8004314:	699b      	ldr	r3, [r3, #24]
 8004316:	2b01      	cmp	r3, #1
 8004318:	d028      	beq.n	800436c <HAL_RCC_OscConfig+0x4dc>
            (READ_BIT(pll_config, RCC_PLLCFGR_PLLSRC) != RCC_OscInitStruct->PLL.PLLSource) ||
 800431a:	68fb      	ldr	r3, [r7, #12]
 800431c:	f403 0280 	and.w	r2, r3, #4194304	@ 0x400000
 8004320:	687b      	ldr	r3, [r7, #4]
 8004322:	69db      	ldr	r3, [r3, #28]
        if (((RCC_OscInitStruct->PLL.PLLState) == RCC_PLL_OFF) ||
 8004324:	429a      	cmp	r2, r3
 8004326:	d121      	bne.n	800436c <HAL_RCC_OscConfig+0x4dc>
            (READ_BIT(pll_config, RCC_PLLCFGR_PLLM) != (RCC_OscInitStruct->PLL.PLLM) << RCC_PLLCFGR_PLLM_Pos) ||
 8004328:	68fb      	ldr	r3, [r7, #12]
 800432a:	f003 023f 	and.w	r2, r3, #63	@ 0x3f
 800432e:	687b      	ldr	r3, [r7, #4]
 8004330:	6a1b      	ldr	r3, [r3, #32]
            (READ_BIT(pll_config, RCC_PLLCFGR_PLLSRC) != RCC_OscInitStruct->PLL.PLLSource) ||
 8004332:	429a      	cmp	r2, r3
 8004334:	d11a      	bne.n	800436c <HAL_RCC_OscConfig+0x4dc>
            (READ_BIT(pll_config, RCC_PLLCFGR_PLLN) != (RCC_OscInitStruct->PLL.PLLN) << RCC_PLLCFGR_PLLN_Pos) ||
 8004336:	68fa      	ldr	r2, [r7, #12]
 8004338:	f647 73c0 	movw	r3, #32704	@ 0x7fc0
 800433c:	4013      	ands	r3, r2
 800433e:	687a      	ldr	r2, [r7, #4]
 8004340:	6a52      	ldr	r2, [r2, #36]	@ 0x24
 8004342:	0192      	lsls	r2, r2, #6
            (READ_BIT(pll_config, RCC_PLLCFGR_PLLM) != (RCC_OscInitStruct->PLL.PLLM) << RCC_PLLCFGR_PLLM_Pos) ||
 8004344:	4293      	cmp	r3, r2
 8004346:	d111      	bne.n	800436c <HAL_RCC_OscConfig+0x4dc>
            (READ_BIT(pll_config, RCC_PLLCFGR_PLLP) != (((RCC_OscInitStruct->PLL.PLLP >> 1U) - 1U)) << RCC_PLLCFGR_PLLP_Pos) ||
 8004348:	68fb      	ldr	r3, [r7, #12]
 800434a:	f403 3240 	and.w	r2, r3, #196608	@ 0x30000
 800434e:	687b      	ldr	r3, [r7, #4]
 8004350:	6a9b      	ldr	r3, [r3, #40]	@ 0x28
 8004352:	085b      	lsrs	r3, r3, #1
 8004354:	3b01      	subs	r3, #1
 8004356:	041b      	lsls	r3, r3, #16
            (READ_BIT(pll_config, RCC_PLLCFGR_PLLN) != (RCC_OscInitStruct->PLL.PLLN) << RCC_PLLCFGR_PLLN_Pos) ||
 8004358:	429a      	cmp	r2, r3
 800435a:	d107      	bne.n	800436c <HAL_RCC_OscConfig+0x4dc>
            (READ_BIT(pll_config, RCC_PLLCFGR_PLLQ) != (RCC_OscInitStruct->PLL.PLLQ << RCC_PLLCFGR_PLLQ_Pos)))
 800435c:	68fb      	ldr	r3, [r7, #12]
 800435e:	f003 6270 	and.w	r2, r3, #251658240	@ 0xf000000
 8004362:	687b      	ldr	r3, [r7, #4]
 8004364:	6adb      	ldr	r3, [r3, #44]	@ 0x2c
 8004366:	061b      	lsls	r3, r3, #24
            (READ_BIT(pll_config, RCC_PLLCFGR_PLLP) != (((RCC_OscInitStruct->PLL.PLLP >> 1U) - 1U)) << RCC_PLLCFGR_PLLP_Pos) ||
 8004368:	429a      	cmp	r2, r3
 800436a:	d001      	beq.n	8004370 <HAL_RCC_OscConfig+0x4e0>
#endif /* RCC_PLLCFGR_PLLR */
        {
          return HAL_ERROR;
 800436c:	2301      	movs	r3, #1
 800436e:	e000      	b.n	8004372 <HAL_RCC_OscConfig+0x4e2>
        }
      }
    }
  }
  return HAL_OK;
 8004370:	2300      	movs	r3, #0
}
 8004372:	4618      	mov	r0, r3
 8004374:	3718      	adds	r7, #24
 8004376:	46bd      	mov	sp, r7
 8004378:	bd80      	pop	{r7, pc}
 800437a:	bf00      	nop
 800437c:	40023800 	.word	0x40023800

08004380 <HAL_RCC_ClockConfig>:
  *         HPRE[3:0] bits to ensure that HCLK not exceed the maximum allowed frequency
  *         (for more details refer to section above "Initialization/de-initialization functions")
  * @retval None
  */
HAL_StatusTypeDef HAL_RCC_ClockConfig(const RCC_ClkInitTypeDef  *RCC_ClkInitStruct, uint32_t FLatency)
{
 8004380:	b580      	push	{r7, lr}
 8004382:	b084      	sub	sp, #16
 8004384:	af00      	add	r7, sp, #0
 8004386:	6078      	str	r0, [r7, #4]
 8004388:	6039      	str	r1, [r7, #0]
  uint32_t tickstart;

  /* Check Null pointer */
  if (RCC_ClkInitStruct == NULL)
 800438a:	687b      	ldr	r3, [r7, #4]
 800438c:	2b00      	cmp	r3, #0
 800438e:	d101      	bne.n	8004394 <HAL_RCC_ClockConfig+0x14>
  {
    return HAL_ERROR;
 8004390:	2301      	movs	r3, #1
 8004392:	e0cc      	b.n	800452e <HAL_RCC_ClockConfig+0x1ae>
  /* To correctly read data from FLASH memory, the number of wait states (LATENCY)
    must be correctly programmed according to the frequency of the CPU clock
    (HCLK) and the supply voltage of the device. */

  /* Increasing the number of wait states because of higher CPU frequency */
  if (FLatency > __HAL_FLASH_GET_LATENCY())
 8004394:	4b68      	ldr	r3, [pc, #416]	@ (8004538 <HAL_RCC_ClockConfig+0x1b8>)
 8004396:	681b      	ldr	r3, [r3, #0]
 8004398:	f003 0307 	and.w	r3, r3, #7
 800439c:	683a      	ldr	r2, [r7, #0]
 800439e:	429a      	cmp	r2, r3
 80043a0:	d90c      	bls.n	80043bc <HAL_RCC_ClockConfig+0x3c>
  {
    /* Program the new number of wait states to the LATENCY bits in the FLASH_ACR register */
    __HAL_FLASH_SET_LATENCY(FLatency);
 80043a2:	4b65      	ldr	r3, [pc, #404]	@ (8004538 <HAL_RCC_ClockConfig+0x1b8>)
 80043a4:	683a      	ldr	r2, [r7, #0]
 80043a6:	b2d2      	uxtb	r2, r2
 80043a8:	701a      	strb	r2, [r3, #0]

    /* Check that the new number of wait states is taken into account to access the Flash
    memory by reading the FLASH_ACR register */
    if (__HAL_FLASH_GET_LATENCY() != FLatency)
 80043aa:	4b63      	ldr	r3, [pc, #396]	@ (8004538 <HAL_RCC_ClockConfig+0x1b8>)
 80043ac:	681b      	ldr	r3, [r3, #0]
 80043ae:	f003 0307 	and.w	r3, r3, #7
 80043b2:	683a      	ldr	r2, [r7, #0]
 80043b4:	429a      	cmp	r2, r3
 80043b6:	d001      	beq.n	80043bc <HAL_RCC_ClockConfig+0x3c>
    {
      return HAL_ERROR;
 80043b8:	2301      	movs	r3, #1
 80043ba:	e0b8      	b.n	800452e <HAL_RCC_ClockConfig+0x1ae>
    }
  }

  /*-------------------------- HCLK Configuration --------------------------*/
  if (((RCC_ClkInitStruct->ClockType) & RCC_CLOCKTYPE_HCLK) == RCC_CLOCKTYPE_HCLK)
 80043bc:	687b      	ldr	r3, [r7, #4]
 80043be:	681b      	ldr	r3, [r3, #0]
 80043c0:	f003 0302 	and.w	r3, r3, #2
 80043c4:	2b00      	cmp	r3, #0
 80043c6:	d020      	beq.n	800440a <HAL_RCC_ClockConfig+0x8a>
  {
    /* Set the highest APBx dividers in order to ensure that we do not go through
       a non-spec phase whatever we decrease or increase HCLK. */
    if (((RCC_ClkInitStruct->ClockType) & RCC_CLOCKTYPE_PCLK1) == RCC_CLOCKTYPE_PCLK1)
 80043c8:	687b      	ldr	r3, [r7, #4]
 80043ca:	681b      	ldr	r3, [r3, #0]
 80043cc:	f003 0304 	and.w	r3, r3, #4
 80043d0:	2b00      	cmp	r3, #0
 80043d2:	d005      	beq.n	80043e0 <HAL_RCC_ClockConfig+0x60>
    {
      MODIFY_REG(RCC->CFGR, RCC_CFGR_PPRE1, RCC_HCLK_DIV16);
 80043d4:	4b59      	ldr	r3, [pc, #356]	@ (800453c <HAL_RCC_ClockConfig+0x1bc>)
 80043d6:	689b      	ldr	r3, [r3, #8]
 80043d8:	4a58      	ldr	r2, [pc, #352]	@ (800453c <HAL_RCC_ClockConfig+0x1bc>)
 80043da:	f443 53e0 	orr.w	r3, r3, #7168	@ 0x1c00
 80043de:	6093      	str	r3, [r2, #8]
    }

    if (((RCC_ClkInitStruct->ClockType) & RCC_CLOCKTYPE_PCLK2) == RCC_CLOCKTYPE_PCLK2)
 80043e0:	687b      	ldr	r3, [r7, #4]
 80043e2:	681b      	ldr	r3, [r3, #0]
 80043e4:	f003 0308 	and.w	r3, r3, #8
 80043e8:	2b00      	cmp	r3, #0
 80043ea:	d005      	beq.n	80043f8 <HAL_RCC_ClockConfig+0x78>
    {
      MODIFY_REG(RCC->CFGR, RCC_CFGR_PPRE2, (RCC_HCLK_DIV16 << 3));
 80043ec:	4b53      	ldr	r3, [pc, #332]	@ (800453c <HAL_RCC_ClockConfig+0x1bc>)
 80043ee:	689b      	ldr	r3, [r3, #8]
 80043f0:	4a52      	ldr	r2, [pc, #328]	@ (800453c <HAL_RCC_ClockConfig+0x1bc>)
 80043f2:	f443 4360 	orr.w	r3, r3, #57344	@ 0xe000
 80043f6:	6093      	str	r3, [r2, #8]
    }

    assert_param(IS_RCC_HCLK(RCC_ClkInitStruct->AHBCLKDivider));
    MODIFY_REG(RCC->CFGR, RCC_CFGR_HPRE, RCC_ClkInitStruct->AHBCLKDivider);
 80043f8:	4b50      	ldr	r3, [pc, #320]	@ (800453c <HAL_RCC_ClockConfig+0x1bc>)
 80043fa:	689b      	ldr	r3, [r3, #8]
 80043fc:	f023 02f0 	bic.w	r2, r3, #240	@ 0xf0
 8004400:	687b      	ldr	r3, [r7, #4]
 8004402:	689b      	ldr	r3, [r3, #8]
 8004404:	494d      	ldr	r1, [pc, #308]	@ (800453c <HAL_RCC_ClockConfig+0x1bc>)
 8004406:	4313      	orrs	r3, r2
 8004408:	608b      	str	r3, [r1, #8]
  }

  /*------------------------- SYSCLK Configuration ---------------------------*/
  if (((RCC_ClkInitStruct->ClockType) & RCC_CLOCKTYPE_SYSCLK) == RCC_CLOCKTYPE_SYSCLK)
 800440a:	687b      	ldr	r3, [r7, #4]
 800440c:	681b      	ldr	r3, [r3, #0]
 800440e:	f003 0301 	and.w	r3, r3, #1
 8004412:	2b00      	cmp	r3, #0
 8004414:	d044      	beq.n	80044a0 <HAL_RCC_ClockConfig+0x120>
  {
    assert_param(IS_RCC_SYSCLKSOURCE(RCC_ClkInitStruct->SYSCLKSource));

    /* HSE is selected as System Clock Source */
    if (RCC_ClkInitStruct->SYSCLKSource == RCC_SYSCLKSOURCE_HSE)
 8004416:	687b      	ldr	r3, [r7, #4]
 8004418:	685b      	ldr	r3, [r3, #4]
 800441a:	2b01      	cmp	r3, #1
 800441c:	d107      	bne.n	800442e <HAL_RCC_ClockConfig+0xae>
    {
      /* Check the HSE ready flag */
      if (__HAL_RCC_GET_FLAG(RCC_FLAG_HSERDY) == RESET)
 800441e:	4b47      	ldr	r3, [pc, #284]	@ (800453c <HAL_RCC_ClockConfig+0x1bc>)
 8004420:	681b      	ldr	r3, [r3, #0]
 8004422:	f403 3300 	and.w	r3, r3, #131072	@ 0x20000
 8004426:	2b00      	cmp	r3, #0
 8004428:	d119      	bne.n	800445e <HAL_RCC_ClockConfig+0xde>
      {
        return HAL_ERROR;
 800442a:	2301      	movs	r3, #1
 800442c:	e07f      	b.n	800452e <HAL_RCC_ClockConfig+0x1ae>
      }
    }
    /* PLL is selected as System Clock Source */
    else if ((RCC_ClkInitStruct->SYSCLKSource == RCC_SYSCLKSOURCE_PLLCLK)   ||
 800442e:	687b      	ldr	r3, [r7, #4]
 8004430:	685b      	ldr	r3, [r3, #4]
 8004432:	2b02      	cmp	r3, #2
 8004434:	d003      	beq.n	800443e <HAL_RCC_ClockConfig+0xbe>
             (RCC_ClkInitStruct->SYSCLKSource == RCC_SYSCLKSOURCE_PLLRCLK))
 8004436:	687b      	ldr	r3, [r7, #4]
 8004438:	685b      	ldr	r3, [r3, #4]
    else if ((RCC_ClkInitStruct->SYSCLKSource == RCC_SYSCLKSOURCE_PLLCLK)   ||
 800443a:	2b03      	cmp	r3, #3
 800443c:	d107      	bne.n	800444e <HAL_RCC_ClockConfig+0xce>
    {
      /* Check the PLL ready flag */
      if (__HAL_RCC_GET_FLAG(RCC_FLAG_PLLRDY) == RESET)
 800443e:	4b3f      	ldr	r3, [pc, #252]	@ (800453c <HAL_RCC_ClockConfig+0x1bc>)
 8004440:	681b      	ldr	r3, [r3, #0]
 8004442:	f003 7300 	and.w	r3, r3, #33554432	@ 0x2000000
 8004446:	2b00      	cmp	r3, #0
 8004448:	d109      	bne.n	800445e <HAL_RCC_ClockConfig+0xde>
      {
        return HAL_ERROR;
 800444a:	2301      	movs	r3, #1
 800444c:	e06f      	b.n	800452e <HAL_RCC_ClockConfig+0x1ae>
    }
    /* HSI is selected as System Clock Source */
    else
    {
      /* Check the HSI ready flag */
      if (__HAL_RCC_GET_FLAG(RCC_FLAG_HSIRDY) == RESET)
 800444e:	4b3b      	ldr	r3, [pc, #236]	@ (800453c <HAL_RCC_ClockConfig+0x1bc>)
 8004450:	681b      	ldr	r3, [r3, #0]
 8004452:	f003 0302 	and.w	r3, r3, #2
 8004456:	2b00      	cmp	r3, #0
 8004458:	d101      	bne.n	800445e <HAL_RCC_ClockConfig+0xde>
      {
        return HAL_ERROR;
 800445a:	2301      	movs	r3, #1
 800445c:	e067      	b.n	800452e <HAL_RCC_ClockConfig+0x1ae>
      }
    }

    __HAL_RCC_SYSCLK_CONFIG(RCC_ClkInitStruct->SYSCLKSource);
 800445e:	4b37      	ldr	r3, [pc, #220]	@ (800453c <HAL_RCC_ClockConfig+0x1bc>)
 8004460:	689b      	ldr	r3, [r3, #8]
 8004462:	f023 0203 	bic.w	r2, r3, #3
 8004466:	687b      	ldr	r3, [r7, #4]
 8004468:	685b      	ldr	r3, [r3, #4]
 800446a:	4934      	ldr	r1, [pc, #208]	@ (800453c <HAL_RCC_ClockConfig+0x1bc>)
 800446c:	4313      	orrs	r3, r2
 800446e:	608b      	str	r3, [r1, #8]

    /* Get Start Tick */
    tickstart = HAL_GetTick();
 8004470:	f7fc ff36 	bl	80012e0 <HAL_GetTick>
 8004474:	60f8      	str	r0, [r7, #12]

    while (__HAL_RCC_GET_SYSCLK_SOURCE() != (RCC_ClkInitStruct->SYSCLKSource << RCC_CFGR_SWS_Pos))
 8004476:	e00a      	b.n	800448e <HAL_RCC_ClockConfig+0x10e>
    {
      if ((HAL_GetTick() - tickstart) > CLOCKSWITCH_TIMEOUT_VALUE)
 8004478:	f7fc ff32 	bl	80012e0 <HAL_GetTick>
 800447c:	4602      	mov	r2, r0
 800447e:	68fb      	ldr	r3, [r7, #12]
 8004480:	1ad3      	subs	r3, r2, r3
 8004482:	f241 3288 	movw	r2, #5000	@ 0x1388
 8004486:	4293      	cmp	r3, r2
 8004488:	d901      	bls.n	800448e <HAL_RCC_ClockConfig+0x10e>
      {
        return HAL_TIMEOUT;
 800448a:	2303      	movs	r3, #3
 800448c:	e04f      	b.n	800452e <HAL_RCC_ClockConfig+0x1ae>
    while (__HAL_RCC_GET_SYSCLK_SOURCE() != (RCC_ClkInitStruct->SYSCLKSource << RCC_CFGR_SWS_Pos))
 800448e:	4b2b      	ldr	r3, [pc, #172]	@ (800453c <HAL_RCC_ClockConfig+0x1bc>)
 8004490:	689b      	ldr	r3, [r3, #8]
 8004492:	f003 020c 	and.w	r2, r3, #12
 8004496:	687b      	ldr	r3, [r7, #4]
 8004498:	685b      	ldr	r3, [r3, #4]
 800449a:	009b      	lsls	r3, r3, #2
 800449c:	429a      	cmp	r2, r3
 800449e:	d1eb      	bne.n	8004478 <HAL_RCC_ClockConfig+0xf8>
      }
    }
  }

  /* Decreasing the number of wait states because of lower CPU frequency */
  if (FLatency < __HAL_FLASH_GET_LATENCY())
 80044a0:	4b25      	ldr	r3, [pc, #148]	@ (8004538 <HAL_RCC_ClockConfig+0x1b8>)
 80044a2:	681b      	ldr	r3, [r3, #0]
 80044a4:	f003 0307 	and.w	r3, r3, #7
 80044a8:	683a      	ldr	r2, [r7, #0]
 80044aa:	429a      	cmp	r2, r3
 80044ac:	d20c      	bcs.n	80044c8 <HAL_RCC_ClockConfig+0x148>
  {
    /* Program the new number of wait states to the LATENCY bits in the FLASH_ACR register */
    __HAL_FLASH_SET_LATENCY(FLatency);
 80044ae:	4b22      	ldr	r3, [pc, #136]	@ (8004538 <HAL_RCC_ClockConfig+0x1b8>)
 80044b0:	683a      	ldr	r2, [r7, #0]
 80044b2:	b2d2      	uxtb	r2, r2
 80044b4:	701a      	strb	r2, [r3, #0]

    /* Check that the new number of wait states is taken into account to access the Flash
    memory by reading the FLASH_ACR register */
    if (__HAL_FLASH_GET_LATENCY() != FLatency)
 80044b6:	4b20      	ldr	r3, [pc, #128]	@ (8004538 <HAL_RCC_ClockConfig+0x1b8>)
 80044b8:	681b      	ldr	r3, [r3, #0]
 80044ba:	f003 0307 	and.w	r3, r3, #7
 80044be:	683a      	ldr	r2, [r7, #0]
 80044c0:	429a      	cmp	r2, r3
 80044c2:	d001      	beq.n	80044c8 <HAL_RCC_ClockConfig+0x148>
    {
      return HAL_ERROR;
 80044c4:	2301      	movs	r3, #1
 80044c6:	e032      	b.n	800452e <HAL_RCC_ClockConfig+0x1ae>
    }
  }

  /*-------------------------- PCLK1 Configuration ---------------------------*/
  if (((RCC_ClkInitStruct->ClockType) & RCC_CLOCKTYPE_PCLK1) == RCC_CLOCKTYPE_PCLK1)
 80044c8:	687b      	ldr	r3, [r7, #4]
 80044ca:	681b      	ldr	r3, [r3, #0]
 80044cc:	f003 0304 	and.w	r3, r3, #4
 80044d0:	2b00      	cmp	r3, #0
 80044d2:	d008      	beq.n	80044e6 <HAL_RCC_ClockConfig+0x166>
  {
    assert_param(IS_RCC_PCLK(RCC_ClkInitStruct->APB1CLKDivider));
    MODIFY_REG(RCC->CFGR, RCC_CFGR_PPRE1, RCC_ClkInitStruct->APB1CLKDivider);
 80044d4:	4b19      	ldr	r3, [pc, #100]	@ (800453c <HAL_RCC_ClockConfig+0x1bc>)
 80044d6:	689b      	ldr	r3, [r3, #8]
 80044d8:	f423 52e0 	bic.w	r2, r3, #7168	@ 0x1c00
 80044dc:	687b      	ldr	r3, [r7, #4]
 80044de:	68db      	ldr	r3, [r3, #12]
 80044e0:	4916      	ldr	r1, [pc, #88]	@ (800453c <HAL_RCC_ClockConfig+0x1bc>)
 80044e2:	4313      	orrs	r3, r2
 80044e4:	608b      	str	r3, [r1, #8]
  }

  /*-------------------------- PCLK2 Configuration ---------------------------*/
  if (((RCC_ClkInitStruct->ClockType) & RCC_CLOCKTYPE_PCLK2) == RCC_CLOCKTYPE_PCLK2)
 80044e6:	687b      	ldr	r3, [r7, #4]
 80044e8:	681b      	ldr	r3, [r3, #0]
 80044ea:	f003 0308 	and.w	r3, r3, #8
 80044ee:	2b00      	cmp	r3, #0
 80044f0:	d009      	beq.n	8004506 <HAL_RCC_ClockConfig+0x186>
  {
    assert_param(IS_RCC_PCLK(RCC_ClkInitStruct->APB2CLKDivider));
    MODIFY_REG(RCC->CFGR, RCC_CFGR_PPRE2, ((RCC_ClkInitStruct->APB2CLKDivider) << 3U));
 80044f2:	4b12      	ldr	r3, [pc, #72]	@ (800453c <HAL_RCC_ClockConfig+0x1bc>)
 80044f4:	689b      	ldr	r3, [r3, #8]
 80044f6:	f423 4260 	bic.w	r2, r3, #57344	@ 0xe000
 80044fa:	687b      	ldr	r3, [r7, #4]
 80044fc:	691b      	ldr	r3, [r3, #16]
 80044fe:	00db      	lsls	r3, r3, #3
 8004500:	490e      	ldr	r1, [pc, #56]	@ (800453c <HAL_RCC_ClockConfig+0x1bc>)
 8004502:	4313      	orrs	r3, r2
 8004504:	608b      	str	r3, [r1, #8]
  }

  /* Update the SystemCoreClock global variable */
  SystemCoreClock = HAL_RCC_GetSysClockFreq() >> AHBPrescTable[(RCC->CFGR & RCC_CFGR_HPRE) >> RCC_CFGR_HPRE_Pos];
 8004506:	f000 f821 	bl	800454c <HAL_RCC_GetSysClockFreq>
 800450a:	4602      	mov	r2, r0
 800450c:	4b0b      	ldr	r3, [pc, #44]	@ (800453c <HAL_RCC_ClockConfig+0x1bc>)
 800450e:	689b      	ldr	r3, [r3, #8]
 8004510:	091b      	lsrs	r3, r3, #4
 8004512:	f003 030f 	and.w	r3, r3, #15
 8004516:	490a      	ldr	r1, [pc, #40]	@ (8004540 <HAL_RCC_ClockConfig+0x1c0>)
 8004518:	5ccb      	ldrb	r3, [r1, r3]
 800451a:	fa22 f303 	lsr.w	r3, r2, r3
 800451e:	4a09      	ldr	r2, [pc, #36]	@ (8004544 <HAL_RCC_ClockConfig+0x1c4>)
 8004520:	6013      	str	r3, [r2, #0]

  /* Configure the source of time base considering new system clocks settings */
  HAL_InitTick(uwTickPrio);
 8004522:	4b09      	ldr	r3, [pc, #36]	@ (8004548 <HAL_RCC_ClockConfig+0x1c8>)
 8004524:	681b      	ldr	r3, [r3, #0]
 8004526:	4618      	mov	r0, r3
 8004528:	f7fc fe96 	bl	8001258 <HAL_InitTick>

  return HAL_OK;
 800452c:	2300      	movs	r3, #0
}
 800452e:	4618      	mov	r0, r3
 8004530:	3710      	adds	r7, #16
 8004532:	46bd      	mov	sp, r7
 8004534:	bd80      	pop	{r7, pc}
 8004536:	bf00      	nop
 8004538:	40023c00 	.word	0x40023c00
 800453c:	40023800 	.word	0x40023800
 8004540:	08009790 	.word	0x08009790
 8004544:	20000000 	.word	0x20000000
 8004548:	20000004 	.word	0x20000004

0800454c <HAL_RCC_GetSysClockFreq>:
  *
  *
  * @retval SYSCLK frequency
  */
__weak uint32_t HAL_RCC_GetSysClockFreq(void)
{
 800454c:	e92d 4fb0 	stmdb	sp!, {r4, r5, r7, r8, r9, sl, fp, lr}
 8004550:	b094      	sub	sp, #80	@ 0x50
 8004552:	af00      	add	r7, sp, #0
  uint32_t pllm = 0U;
 8004554:	2300      	movs	r3, #0
 8004556:	647b      	str	r3, [r7, #68]	@ 0x44
  uint32_t pllvco = 0U;
 8004558:	2300      	movs	r3, #0
 800455a:	64fb      	str	r3, [r7, #76]	@ 0x4c
  uint32_t pllp = 0U;
 800455c:	2300      	movs	r3, #0
 800455e:	643b      	str	r3, [r7, #64]	@ 0x40
  uint32_t sysclockfreq = 0U;
 8004560:	2300      	movs	r3, #0
 8004562:	64bb      	str	r3, [r7, #72]	@ 0x48

  /* Get SYSCLK source -------------------------------------------------------*/
  switch (RCC->CFGR & RCC_CFGR_SWS)
 8004564:	4b79      	ldr	r3, [pc, #484]	@ (800474c <HAL_RCC_GetSysClockFreq+0x200>)
 8004566:	689b      	ldr	r3, [r3, #8]
 8004568:	f003 030c 	and.w	r3, r3, #12
 800456c:	2b08      	cmp	r3, #8
 800456e:	d00d      	beq.n	800458c <HAL_RCC_GetSysClockFreq+0x40>
 8004570:	2b08      	cmp	r3, #8
 8004572:	f200 80e1 	bhi.w	8004738 <HAL_RCC_GetSysClockFreq+0x1ec>
 8004576:	2b00      	cmp	r3, #0
 8004578:	d002      	beq.n	8004580 <HAL_RCC_GetSysClockFreq+0x34>
 800457a:	2b04      	cmp	r3, #4
 800457c:	d003      	beq.n	8004586 <HAL_RCC_GetSysClockFreq+0x3a>
 800457e:	e0db      	b.n	8004738 <HAL_RCC_GetSysClockFreq+0x1ec>
  {
    case RCC_CFGR_SWS_HSI:  /* HSI used as system clock source */
    {
      sysclockfreq = HSI_VALUE;
 8004580:	4b73      	ldr	r3, [pc, #460]	@ (8004750 <HAL_RCC_GetSysClockFreq+0x204>)
 8004582:	64bb      	str	r3, [r7, #72]	@ 0x48
      break;
 8004584:	e0db      	b.n	800473e <HAL_RCC_GetSysClockFreq+0x1f2>
    }
    case RCC_CFGR_SWS_HSE:  /* HSE used as system clock  source */
    {
      sysclockfreq = HSE_VALUE;
 8004586:	4b73      	ldr	r3, [pc, #460]	@ (8004754 <HAL_RCC_GetSysClockFreq+0x208>)
 8004588:	64bb      	str	r3, [r7, #72]	@ 0x48
      break;
 800458a:	e0d8      	b.n	800473e <HAL_RCC_GetSysClockFreq+0x1f2>
    }
    case RCC_CFGR_SWS_PLL:  /* PLL used as system clock  source */
    {
      /* PLL_VCO = (HSE_VALUE or HSI_VALUE / PLLM) * PLLN
      SYSCLK = PLL_VCO / PLLP */
      pllm = RCC->PLLCFGR & RCC_PLLCFGR_PLLM;
 800458c:	4b6f      	ldr	r3, [pc, #444]	@ (800474c <HAL_RCC_GetSysClockFreq+0x200>)
 800458e:	685b      	ldr	r3, [r3, #4]
 8004590:	f003 033f 	and.w	r3, r3, #63	@ 0x3f
 8004594:	647b      	str	r3, [r7, #68]	@ 0x44
      if (__HAL_RCC_GET_PLL_OSCSOURCE() != RCC_PLLSOURCE_HSI)
 8004596:	4b6d      	ldr	r3, [pc, #436]	@ (800474c <HAL_RCC_GetSysClockFreq+0x200>)
 8004598:	685b      	ldr	r3, [r3, #4]
 800459a:	f403 0380 	and.w	r3, r3, #4194304	@ 0x400000
 800459e:	2b00      	cmp	r3, #0
 80045a0:	d063      	beq.n	800466a <HAL_RCC_GetSysClockFreq+0x11e>
      {
        /* HSE used as PLL clock source */
        pllvco = (uint32_t)((((uint64_t) HSE_VALUE * ((uint64_t)((RCC->PLLCFGR & RCC_PLLCFGR_PLLN) >> RCC_PLLCFGR_PLLN_Pos)))) / (uint64_t)pllm);
 80045a2:	4b6a      	ldr	r3, [pc, #424]	@ (800474c <HAL_RCC_GetSysClockFreq+0x200>)
 80045a4:	685b      	ldr	r3, [r3, #4]
 80045a6:	099b      	lsrs	r3, r3, #6
 80045a8:	2200      	movs	r2, #0
 80045aa:	63bb      	str	r3, [r7, #56]	@ 0x38
 80045ac:	63fa      	str	r2, [r7, #60]	@ 0x3c
 80045ae:	6bbb      	ldr	r3, [r7, #56]	@ 0x38
 80045b0:	f3c3 0308 	ubfx	r3, r3, #0, #9
 80045b4:	633b      	str	r3, [r7, #48]	@ 0x30
 80045b6:	2300      	movs	r3, #0
 80045b8:	637b      	str	r3, [r7, #52]	@ 0x34
 80045ba:	e9d7 450c 	ldrd	r4, r5, [r7, #48]	@ 0x30
 80045be:	4622      	mov	r2, r4
 80045c0:	462b      	mov	r3, r5
 80045c2:	f04f 0000 	mov.w	r0, #0
 80045c6:	f04f 0100 	mov.w	r1, #0
 80045ca:	0159      	lsls	r1, r3, #5
 80045cc:	ea41 61d2 	orr.w	r1, r1, r2, lsr #27
 80045d0:	0150      	lsls	r0, r2, #5
 80045d2:	4602      	mov	r2, r0
 80045d4:	460b      	mov	r3, r1
 80045d6:	4621      	mov	r1, r4
 80045d8:	1a51      	subs	r1, r2, r1
 80045da:	6139      	str	r1, [r7, #16]
 80045dc:	4629      	mov	r1, r5
 80045de:	eb63 0301 	sbc.w	r3, r3, r1
 80045e2:	617b      	str	r3, [r7, #20]
 80045e4:	f04f 0200 	mov.w	r2, #0
 80045e8:	f04f 0300 	mov.w	r3, #0
 80045ec:	e9d7 ab04 	ldrd	sl, fp, [r7, #16]
 80045f0:	4659      	mov	r1, fp
 80045f2:	018b      	lsls	r3, r1, #6
 80045f4:	4651      	mov	r1, sl
 80045f6:	ea43 6391 	orr.w	r3, r3, r1, lsr #26
 80045fa:	4651      	mov	r1, sl
 80045fc:	018a      	lsls	r2, r1, #6
 80045fe:	4651      	mov	r1, sl
 8004600:	ebb2 0801 	subs.w	r8, r2, r1
 8004604:	4659      	mov	r1, fp
 8004606:	eb63 0901 	sbc.w	r9, r3, r1
 800460a:	f04f 0200 	mov.w	r2, #0
 800460e:	f04f 0300 	mov.w	r3, #0
 8004612:	ea4f 03c9 	mov.w	r3, r9, lsl #3
 8004616:	ea43 7358 	orr.w	r3, r3, r8, lsr #29
 800461a:	ea4f 02c8 	mov.w	r2, r8, lsl #3
 800461e:	4690      	mov	r8, r2
 8004620:	4699      	mov	r9, r3
 8004622:	4623      	mov	r3, r4
 8004624:	eb18 0303 	adds.w	r3, r8, r3
 8004628:	60bb      	str	r3, [r7, #8]
 800462a:	462b      	mov	r3, r5
 800462c:	eb49 0303 	adc.w	r3, r9, r3
 8004630:	60fb      	str	r3, [r7, #12]
 8004632:	f04f 0200 	mov.w	r2, #0
 8004636:	f04f 0300 	mov.w	r3, #0
 800463a:	e9d7 4502 	ldrd	r4, r5, [r7, #8]
 800463e:	4629      	mov	r1, r5
 8004640:	024b      	lsls	r3, r1, #9
 8004642:	4621      	mov	r1, r4
 8004644:	ea43 53d1 	orr.w	r3, r3, r1, lsr #23
 8004648:	4621      	mov	r1, r4
 800464a:	024a      	lsls	r2, r1, #9
 800464c:	4610      	mov	r0, r2
 800464e:	4619      	mov	r1, r3
 8004650:	6c7b      	ldr	r3, [r7, #68]	@ 0x44
 8004652:	2200      	movs	r2, #0
 8004654:	62bb      	str	r3, [r7, #40]	@ 0x28
 8004656:	62fa      	str	r2, [r7, #44]	@ 0x2c
 8004658:	e9d7 230a 	ldrd	r2, r3, [r7, #40]	@ 0x28
 800465c:	f7fb fdbc 	bl	80001d8 <__aeabi_uldivmod>
 8004660:	4602      	mov	r2, r0
 8004662:	460b      	mov	r3, r1
 8004664:	4613      	mov	r3, r2
 8004666:	64fb      	str	r3, [r7, #76]	@ 0x4c
 8004668:	e058      	b.n	800471c <HAL_RCC_GetSysClockFreq+0x1d0>
      }
      else
      {
        /* HSI used as PLL clock source */
        pllvco = (uint32_t)((((uint64_t) HSI_VALUE * ((uint64_t)((RCC->PLLCFGR & RCC_PLLCFGR_PLLN) >> RCC_PLLCFGR_PLLN_Pos)))) / (uint64_t)pllm);
 800466a:	4b38      	ldr	r3, [pc, #224]	@ (800474c <HAL_RCC_GetSysClockFreq+0x200>)
 800466c:	685b      	ldr	r3, [r3, #4]
 800466e:	099b      	lsrs	r3, r3, #6
 8004670:	2200      	movs	r2, #0
 8004672:	4618      	mov	r0, r3
 8004674:	4611      	mov	r1, r2
 8004676:	f3c0 0308 	ubfx	r3, r0, #0, #9
 800467a:	623b      	str	r3, [r7, #32]
 800467c:	2300      	movs	r3, #0
 800467e:	627b      	str	r3, [r7, #36]	@ 0x24
 8004680:	e9d7 8908 	ldrd	r8, r9, [r7, #32]
 8004684:	4642      	mov	r2, r8
 8004686:	464b      	mov	r3, r9
 8004688:	f04f 0000 	mov.w	r0, #0
 800468c:	f04f 0100 	mov.w	r1, #0
 8004690:	0159      	lsls	r1, r3, #5
 8004692:	ea41 61d2 	orr.w	r1, r1, r2, lsr #27
 8004696:	0150      	lsls	r0, r2, #5
 8004698:	4602      	mov	r2, r0
 800469a:	460b      	mov	r3, r1
 800469c:	4641      	mov	r1, r8
 800469e:	ebb2 0a01 	subs.w	sl, r2, r1
 80046a2:	4649      	mov	r1, r9
 80046a4:	eb63 0b01 	sbc.w	fp, r3, r1
 80046a8:	f04f 0200 	mov.w	r2, #0
 80046ac:	f04f 0300 	mov.w	r3, #0
 80046b0:	ea4f 138b 	mov.w	r3, fp, lsl #6
 80046b4:	ea43 639a 	orr.w	r3, r3, sl, lsr #26
 80046b8:	ea4f 128a 	mov.w	r2, sl, lsl #6
 80046bc:	ebb2 040a 	subs.w	r4, r2, sl
 80046c0:	eb63 050b 	sbc.w	r5, r3, fp
 80046c4:	f04f 0200 	mov.w	r2, #0
 80046c8:	f04f 0300 	mov.w	r3, #0
 80046cc:	00eb      	lsls	r3, r5, #3
 80046ce:	ea43 7354 	orr.w	r3, r3, r4, lsr #29
 80046d2:	00e2      	lsls	r2, r4, #3
 80046d4:	4614      	mov	r4, r2
 80046d6:	461d      	mov	r5, r3
 80046d8:	4643      	mov	r3, r8
 80046da:	18e3      	adds	r3, r4, r3
 80046dc:	603b      	str	r3, [r7, #0]
 80046de:	464b      	mov	r3, r9
 80046e0:	eb45 0303 	adc.w	r3, r5, r3
 80046e4:	607b      	str	r3, [r7, #4]
 80046e6:	f04f 0200 	mov.w	r2, #0
 80046ea:	f04f 0300 	mov.w	r3, #0
 80046ee:	e9d7 4500 	ldrd	r4, r5, [r7]
 80046f2:	4629      	mov	r1, r5
 80046f4:	028b      	lsls	r3, r1, #10
 80046f6:	4621      	mov	r1, r4
 80046f8:	ea43 5391 	orr.w	r3, r3, r1, lsr #22
 80046fc:	4621      	mov	r1, r4
 80046fe:	028a      	lsls	r2, r1, #10
 8004700:	4610      	mov	r0, r2
 8004702:	4619      	mov	r1, r3
 8004704:	6c7b      	ldr	r3, [r7, #68]	@ 0x44
 8004706:	2200      	movs	r2, #0
 8004708:	61bb      	str	r3, [r7, #24]
 800470a:	61fa      	str	r2, [r7, #28]
 800470c:	e9d7 2306 	ldrd	r2, r3, [r7, #24]
 8004710:	f7fb fd62 	bl	80001d8 <__aeabi_uldivmod>
 8004714:	4602      	mov	r2, r0
 8004716:	460b      	mov	r3, r1
 8004718:	4613      	mov	r3, r2
 800471a:	64fb      	str	r3, [r7, #76]	@ 0x4c
      }
      pllp = ((((RCC->PLLCFGR & RCC_PLLCFGR_PLLP) >> RCC_PLLCFGR_PLLP_Pos) + 1U) * 2U);
 800471c:	4b0b      	ldr	r3, [pc, #44]	@ (800474c <HAL_RCC_GetSysClockFreq+0x200>)
 800471e:	685b      	ldr	r3, [r3, #4]
 8004720:	0c1b      	lsrs	r3, r3, #16
 8004722:	f003 0303 	and.w	r3, r3, #3
 8004726:	3301      	adds	r3, #1
 8004728:	005b      	lsls	r3, r3, #1
 800472a:	643b      	str	r3, [r7, #64]	@ 0x40

      sysclockfreq = pllvco / pllp;
 800472c:	6cfa      	ldr	r2, [r7, #76]	@ 0x4c
 800472e:	6c3b      	ldr	r3, [r7, #64]	@ 0x40
 8004730:	fbb2 f3f3 	udiv	r3, r2, r3
 8004734:	64bb      	str	r3, [r7, #72]	@ 0x48
      break;
 8004736:	e002      	b.n	800473e <HAL_RCC_GetSysClockFreq+0x1f2>
    }
    default:
    {
      sysclockfreq = HSI_VALUE;
 8004738:	4b05      	ldr	r3, [pc, #20]	@ (8004750 <HAL_RCC_GetSysClockFreq+0x204>)
 800473a:	64bb      	str	r3, [r7, #72]	@ 0x48
      break;
 800473c:	bf00      	nop
    }
  }
  return sysclockfreq;
 800473e:	6cbb      	ldr	r3, [r7, #72]	@ 0x48
}
 8004740:	4618      	mov	r0, r3
 8004742:	3750      	adds	r7, #80	@ 0x50
 8004744:	46bd      	mov	sp, r7
 8004746:	e8bd 8fb0 	ldmia.w	sp!, {r4, r5, r7, r8, r9, sl, fp, pc}
 800474a:	bf00      	nop
 800474c:	40023800 	.word	0x40023800
 8004750:	00f42400 	.word	0x00f42400
 8004754:	007a1200 	.word	0x007a1200

08004758 <HAL_RCC_GetHCLKFreq>:
  * @note   The SystemCoreClock CMSIS variable is used to store System Clock Frequency
  *         and updated within this function
  * @retval HCLK frequency
  */
uint32_t HAL_RCC_GetHCLKFreq(void)
{
 8004758:	b480      	push	{r7}
 800475a:	af00      	add	r7, sp, #0
  return SystemCoreClock;
 800475c:	4b03      	ldr	r3, [pc, #12]	@ (800476c <HAL_RCC_GetHCLKFreq+0x14>)
 800475e:	681b      	ldr	r3, [r3, #0]
}
 8004760:	4618      	mov	r0, r3
 8004762:	46bd      	mov	sp, r7
 8004764:	f85d 7b04 	ldr.w	r7, [sp], #4
 8004768:	4770      	bx	lr
 800476a:	bf00      	nop
 800476c:	20000000 	.word	0x20000000

08004770 <HAL_RCC_GetPCLK1Freq>:
  * @note   Each time PCLK1 changes, this function must be called to update the
  *         right PCLK1 value. Otherwise, any configuration based on this function will be incorrect.
  * @retval PCLK1 frequency
  */
uint32_t HAL_RCC_GetPCLK1Freq(void)
{
 8004770:	b580      	push	{r7, lr}
 8004772:	af00      	add	r7, sp, #0
  /* Get HCLK source and Compute PCLK1 frequency ---------------------------*/
  return (HAL_RCC_GetHCLKFreq() >> APBPrescTable[(RCC->CFGR & RCC_CFGR_PPRE1) >> RCC_CFGR_PPRE1_Pos]);
 8004774:	f7ff fff0 	bl	8004758 <HAL_RCC_GetHCLKFreq>
 8004778:	4602      	mov	r2, r0
 800477a:	4b05      	ldr	r3, [pc, #20]	@ (8004790 <HAL_RCC_GetPCLK1Freq+0x20>)
 800477c:	689b      	ldr	r3, [r3, #8]
 800477e:	0a9b      	lsrs	r3, r3, #10
 8004780:	f003 0307 	and.w	r3, r3, #7
 8004784:	4903      	ldr	r1, [pc, #12]	@ (8004794 <HAL_RCC_GetPCLK1Freq+0x24>)
 8004786:	5ccb      	ldrb	r3, [r1, r3]
 8004788:	fa22 f303 	lsr.w	r3, r2, r3
}
 800478c:	4618      	mov	r0, r3
 800478e:	bd80      	pop	{r7, pc}
 8004790:	40023800 	.word	0x40023800
 8004794:	080097a0 	.word	0x080097a0

08004798 <HAL_SPI_Init>:
  * @param  hspi pointer to a SPI_HandleTypeDef structure that contains
  *               the configuration information for SPI module.
  * @retval HAL status
  */
HAL_StatusTypeDef HAL_SPI_Init(SPI_HandleTypeDef *hspi)
{
 8004798:	b580      	push	{r7, lr}
 800479a:	b082      	sub	sp, #8
 800479c:	af00      	add	r7, sp, #0
 800479e:	6078      	str	r0, [r7, #4]
  /* Check the SPI handle allocation */
  if (hspi == NULL)
 80047a0:	687b      	ldr	r3, [r7, #4]
 80047a2:	2b00      	cmp	r3, #0
 80047a4:	d101      	bne.n	80047aa <HAL_SPI_Init+0x12>
  {
    return HAL_ERROR;
 80047a6:	2301      	movs	r3, #1
 80047a8:	e07b      	b.n	80048a2 <HAL_SPI_Init+0x10a>
  assert_param(IS_SPI_DATASIZE(hspi->Init.DataSize));
  assert_param(IS_SPI_NSS(hspi->Init.NSS));
  assert_param(IS_SPI_BAUDRATE_PRESCALER(hspi->Init.BaudRatePrescaler));
  assert_param(IS_SPI_FIRST_BIT(hspi->Init.FirstBit));
  assert_param(IS_SPI_TIMODE(hspi->Init.TIMode));
  if (hspi->Init.TIMode == SPI_TIMODE_DISABLE)
 80047aa:	687b      	ldr	r3, [r7, #4]
 80047ac:	6a5b      	ldr	r3, [r3, #36]	@ 0x24
 80047ae:	2b00      	cmp	r3, #0
 80047b0:	d108      	bne.n	80047c4 <HAL_SPI_Init+0x2c>
  {
    assert_param(IS_SPI_CPOL(hspi->Init.CLKPolarity));
    assert_param(IS_SPI_CPHA(hspi->Init.CLKPhase));

    if (hspi->Init.Mode == SPI_MODE_MASTER)
 80047b2:	687b      	ldr	r3, [r7, #4]
 80047b4:	685b      	ldr	r3, [r3, #4]
 80047b6:	f5b3 7f82 	cmp.w	r3, #260	@ 0x104
 80047ba:	d009      	beq.n	80047d0 <HAL_SPI_Init+0x38>
      assert_param(IS_SPI_BAUDRATE_PRESCALER(hspi->Init.BaudRatePrescaler));
    }
    else
    {
      /* Baudrate prescaler not use in Motoraola Slave mode. force to default value */
      hspi->Init.BaudRatePrescaler = SPI_BAUDRATEPRESCALER_2;
 80047bc:	687b      	ldr	r3, [r7, #4]
 80047be:	2200      	movs	r2, #0
 80047c0:	61da      	str	r2, [r3, #28]
 80047c2:	e005      	b.n	80047d0 <HAL_SPI_Init+0x38>
  else
  {
    assert_param(IS_SPI_BAUDRATE_PRESCALER(hspi->Init.BaudRatePrescaler));

    /* Force polarity and phase to TI protocaol requirements */
    hspi->Init.CLKPolarity = SPI_POLARITY_LOW;
 80047c4:	687b      	ldr	r3, [r7, #4]
 80047c6:	2200      	movs	r2, #0
 80047c8:	611a      	str	r2, [r3, #16]
    hspi->Init.CLKPhase    = SPI_PHASE_1EDGE;
 80047ca:	687b      	ldr	r3, [r7, #4]
 80047cc:	2200      	movs	r2, #0
 80047ce:	615a      	str	r2, [r3, #20]
  if (hspi->Init.CRCCalculation == SPI_CRCCALCULATION_ENABLE)
  {
    assert_param(IS_SPI_CRC_POLYNOMIAL(hspi->Init.CRCPolynomial));
  }
#else
  hspi->Init.CRCCalculation = SPI_CRCCALCULATION_DISABLE;
 80047d0:	687b      	ldr	r3, [r7, #4]
 80047d2:	2200      	movs	r2, #0
 80047d4:	629a      	str	r2, [r3, #40]	@ 0x28
#endif /* USE_SPI_CRC */

  if (hspi->State == HAL_SPI_STATE_RESET)
 80047d6:	687b      	ldr	r3, [r7, #4]
 80047d8:	f893 3051 	ldrb.w	r3, [r3, #81]	@ 0x51
 80047dc:	b2db      	uxtb	r3, r3
 80047de:	2b00      	cmp	r3, #0
 80047e0:	d106      	bne.n	80047f0 <HAL_SPI_Init+0x58>
  {
    /* Allocate lock resource and initialize it */
    hspi->Lock = HAL_UNLOCKED;
 80047e2:	687b      	ldr	r3, [r7, #4]
 80047e4:	2200      	movs	r2, #0
 80047e6:	f883 2050 	strb.w	r2, [r3, #80]	@ 0x50

    /* Init the low level hardware : GPIO, CLOCK, NVIC... */
    hspi->MspInitCallback(hspi);
#else
    /* Init the low level hardware : GPIO, CLOCK, NVIC... */
    HAL_SPI_MspInit(hspi);
 80047ea:	6878      	ldr	r0, [r7, #4]
 80047ec:	f7fc fb68 	bl	8000ec0 <HAL_SPI_MspInit>
#endif /* USE_HAL_SPI_REGISTER_CALLBACKS */
  }

  hspi->State = HAL_SPI_STATE_BUSY;
 80047f0:	687b      	ldr	r3, [r7, #4]
 80047f2:	2202      	movs	r2, #2
 80047f4:	f883 2051 	strb.w	r2, [r3, #81]	@ 0x51

  /* Disable the selected SPI peripheral */
  __HAL_SPI_DISABLE(hspi);
 80047f8:	687b      	ldr	r3, [r7, #4]
 80047fa:	681b      	ldr	r3, [r3, #0]
 80047fc:	681a      	ldr	r2, [r3, #0]
 80047fe:	687b      	ldr	r3, [r7, #4]
 8004800:	681b      	ldr	r3, [r3, #0]
 8004802:	f022 0240 	bic.w	r2, r2, #64	@ 0x40
 8004806:	601a      	str	r2, [r3, #0]

  /*----------------------- SPIx CR1 & CR2 Configuration ---------------------*/
  /* Configure : SPI Mode, Communication Mode, Data size, Clock polarity and phase, NSS management,
  Communication speed, First bit and CRC calculation state */
  WRITE_REG(hspi->Instance->CR1, ((hspi->Init.Mode & (SPI_CR1_MSTR | SPI_CR1_SSI)) |
 8004808:	687b      	ldr	r3, [r7, #4]
 800480a:	685b      	ldr	r3, [r3, #4]
 800480c:	f403 7282 	and.w	r2, r3, #260	@ 0x104
 8004810:	687b      	ldr	r3, [r7, #4]
 8004812:	689b      	ldr	r3, [r3, #8]
 8004814:	f403 4304 	and.w	r3, r3, #33792	@ 0x8400
 8004818:	431a      	orrs	r2, r3
 800481a:	687b      	ldr	r3, [r7, #4]
 800481c:	68db      	ldr	r3, [r3, #12]
 800481e:	f403 6300 	and.w	r3, r3, #2048	@ 0x800
 8004822:	431a      	orrs	r2, r3
 8004824:	687b      	ldr	r3, [r7, #4]
 8004826:	691b      	ldr	r3, [r3, #16]
 8004828:	f003 0302 	and.w	r3, r3, #2
 800482c:	431a      	orrs	r2, r3
 800482e:	687b      	ldr	r3, [r7, #4]
 8004830:	695b      	ldr	r3, [r3, #20]
 8004832:	f003 0301 	and.w	r3, r3, #1
 8004836:	431a      	orrs	r2, r3
 8004838:	687b      	ldr	r3, [r7, #4]
 800483a:	699b      	ldr	r3, [r3, #24]
 800483c:	f403 7300 	and.w	r3, r3, #512	@ 0x200
 8004840:	431a      	orrs	r2, r3
 8004842:	687b      	ldr	r3, [r7, #4]
 8004844:	69db      	ldr	r3, [r3, #28]
 8004846:	f003 0338 	and.w	r3, r3, #56	@ 0x38
 800484a:	431a      	orrs	r2, r3
 800484c:	687b      	ldr	r3, [r7, #4]
 800484e:	6a1b      	ldr	r3, [r3, #32]
 8004850:	f003 0380 	and.w	r3, r3, #128	@ 0x80
 8004854:	ea42 0103 	orr.w	r1, r2, r3
 8004858:	687b      	ldr	r3, [r7, #4]
 800485a:	6a9b      	ldr	r3, [r3, #40]	@ 0x28
 800485c:	f403 5200 	and.w	r2, r3, #8192	@ 0x2000
 8004860:	687b      	ldr	r3, [r7, #4]
 8004862:	681b      	ldr	r3, [r3, #0]
 8004864:	430a      	orrs	r2, r1
 8004866:	601a      	str	r2, [r3, #0]
                                  (hspi->Init.BaudRatePrescaler & SPI_CR1_BR_Msk) |
                                  (hspi->Init.FirstBit  & SPI_CR1_LSBFIRST) |
                                  (hspi->Init.CRCCalculation & SPI_CR1_CRCEN)));

  /* Configure : NSS management, TI Mode */
  WRITE_REG(hspi->Instance->CR2, (((hspi->Init.NSS >> 16U) & SPI_CR2_SSOE) | (hspi->Init.TIMode & SPI_CR2_FRF)));
 8004868:	687b      	ldr	r3, [r7, #4]
 800486a:	699b      	ldr	r3, [r3, #24]
 800486c:	0c1b      	lsrs	r3, r3, #16
 800486e:	f003 0104 	and.w	r1, r3, #4
 8004872:	687b      	ldr	r3, [r7, #4]
 8004874:	6a5b      	ldr	r3, [r3, #36]	@ 0x24
 8004876:	f003 0210 	and.w	r2, r3, #16
 800487a:	687b      	ldr	r3, [r7, #4]
 800487c:	681b      	ldr	r3, [r3, #0]
 800487e:	430a      	orrs	r2, r1
 8004880:	605a      	str	r2, [r3, #4]
  }
#endif /* USE_SPI_CRC */

#if defined(SPI_I2SCFGR_I2SMOD)
  /* Activate the SPI mode (Make sure that I2SMOD bit in I2SCFGR register is reset) */
  CLEAR_BIT(hspi->Instance->I2SCFGR, SPI_I2SCFGR_I2SMOD);
 8004882:	687b      	ldr	r3, [r7, #4]
 8004884:	681b      	ldr	r3, [r3, #0]
 8004886:	69da      	ldr	r2, [r3, #28]
 8004888:	687b      	ldr	r3, [r7, #4]
 800488a:	681b      	ldr	r3, [r3, #0]
 800488c:	f422 6200 	bic.w	r2, r2, #2048	@ 0x800
 8004890:	61da      	str	r2, [r3, #28]
#endif /* SPI_I2SCFGR_I2SMOD */

  hspi->ErrorCode = HAL_SPI_ERROR_NONE;
 8004892:	687b      	ldr	r3, [r7, #4]
 8004894:	2200      	movs	r2, #0
 8004896:	655a      	str	r2, [r3, #84]	@ 0x54
  hspi->State     = HAL_SPI_STATE_READY;
 8004898:	687b      	ldr	r3, [r7, #4]
 800489a:	2201      	movs	r2, #1
 800489c:	f883 2051 	strb.w	r2, [r3, #81]	@ 0x51

  return HAL_OK;
 80048a0:	2300      	movs	r3, #0
}
 80048a2:	4618      	mov	r0, r3
 80048a4:	3708      	adds	r7, #8
 80048a6:	46bd      	mov	sp, r7
 80048a8:	bd80      	pop	{r7, pc}

080048aa <HAL_TIM_Base_Init>:
  *         Ex: call @ref HAL_TIM_Base_DeInit() before HAL_TIM_Base_Init()
  * @param  htim TIM Base handle
  * @retval HAL status
  */
HAL_StatusTypeDef HAL_TIM_Base_Init(TIM_HandleTypeDef *htim)
{
 80048aa:	b580      	push	{r7, lr}
 80048ac:	b082      	sub	sp, #8
 80048ae:	af00      	add	r7, sp, #0
 80048b0:	6078      	str	r0, [r7, #4]
  /* Check the TIM handle allocation */
  if (htim == NULL)
 80048b2:	687b      	ldr	r3, [r7, #4]
 80048b4:	2b00      	cmp	r3, #0
 80048b6:	d101      	bne.n	80048bc <HAL_TIM_Base_Init+0x12>
  {
    return HAL_ERROR;
 80048b8:	2301      	movs	r3, #1
 80048ba:	e041      	b.n	8004940 <HAL_TIM_Base_Init+0x96>
  assert_param(IS_TIM_COUNTER_MODE(htim->Init.CounterMode));
  assert_param(IS_TIM_CLOCKDIVISION_DIV(htim->Init.ClockDivision));
  assert_param(IS_TIM_PERIOD(htim, htim->Init.Period));
  assert_param(IS_TIM_AUTORELOAD_PRELOAD(htim->Init.AutoReloadPreload));

  if (htim->State == HAL_TIM_STATE_RESET)
 80048bc:	687b      	ldr	r3, [r7, #4]
 80048be:	f893 303d 	ldrb.w	r3, [r3, #61]	@ 0x3d
 80048c2:	b2db      	uxtb	r3, r3
 80048c4:	2b00      	cmp	r3, #0
 80048c6:	d106      	bne.n	80048d6 <HAL_TIM_Base_Init+0x2c>
  {
    /* Allocate lock resource and initialize it */
    htim->Lock = HAL_UNLOCKED;
 80048c8:	687b      	ldr	r3, [r7, #4]
 80048ca:	2200      	movs	r2, #0
 80048cc:	f883 203c 	strb.w	r2, [r3, #60]	@ 0x3c
    }
    /* Init the low level hardware : GPIO, CLOCK, NVIC */
    htim->Base_MspInitCallback(htim);
#else
    /* Init the low level hardware : GPIO, CLOCK, NVIC */
    HAL_TIM_Base_MspInit(htim);
 80048d0:	6878      	ldr	r0, [r7, #4]
 80048d2:	f7fc fb5d 	bl	8000f90 <HAL_TIM_Base_MspInit>
#endif /* USE_HAL_TIM_REGISTER_CALLBACKS */
  }

  /* Set the TIM state */
  htim->State = HAL_TIM_STATE_BUSY;
 80048d6:	687b      	ldr	r3, [r7, #4]
 80048d8:	2202      	movs	r2, #2
 80048da:	f883 203d 	strb.w	r2, [r3, #61]	@ 0x3d

  /* Set the Time Base configuration */
  TIM_Base_SetConfig(htim->Instance, &htim->Init);
 80048de:	687b      	ldr	r3, [r7, #4]
 80048e0:	681a      	ldr	r2, [r3, #0]
 80048e2:	687b      	ldr	r3, [r7, #4]
 80048e4:	3304      	adds	r3, #4
 80048e6:	4619      	mov	r1, r3
 80048e8:	4610      	mov	r0, r2
 80048ea:	f000 fb0b 	bl	8004f04 <TIM_Base_SetConfig>

  /* Initialize the DMA burst operation state */
  htim->DMABurstState = HAL_DMA_BURST_STATE_READY;
 80048ee:	687b      	ldr	r3, [r7, #4]
 80048f0:	2201      	movs	r2, #1
 80048f2:	f883 2046 	strb.w	r2, [r3, #70]	@ 0x46

  /* Initialize the TIM channels state */
  TIM_CHANNEL_STATE_SET_ALL(htim, HAL_TIM_CHANNEL_STATE_READY);
 80048f6:	687b      	ldr	r3, [r7, #4]
 80048f8:	2201      	movs	r2, #1
 80048fa:	f883 203e 	strb.w	r2, [r3, #62]	@ 0x3e
 80048fe:	687b      	ldr	r3, [r7, #4]
 8004900:	2201      	movs	r2, #1
 8004902:	f883 203f 	strb.w	r2, [r3, #63]	@ 0x3f
 8004906:	687b      	ldr	r3, [r7, #4]
 8004908:	2201      	movs	r2, #1
 800490a:	f883 2040 	strb.w	r2, [r3, #64]	@ 0x40
 800490e:	687b      	ldr	r3, [r7, #4]
 8004910:	2201      	movs	r2, #1
 8004912:	f883 2041 	strb.w	r2, [r3, #65]	@ 0x41
  TIM_CHANNEL_N_STATE_SET_ALL(htim, HAL_TIM_CHANNEL_STATE_READY);
 8004916:	687b      	ldr	r3, [r7, #4]
 8004918:	2201      	movs	r2, #1
 800491a:	f883 2042 	strb.w	r2, [r3, #66]	@ 0x42
 800491e:	687b      	ldr	r3, [r7, #4]
 8004920:	2201      	movs	r2, #1
 8004922:	f883 2043 	strb.w	r2, [r3, #67]	@ 0x43
 8004926:	687b      	ldr	r3, [r7, #4]
 8004928:	2201      	movs	r2, #1
 800492a:	f883 2044 	strb.w	r2, [r3, #68]	@ 0x44
 800492e:	687b      	ldr	r3, [r7, #4]
 8004930:	2201      	movs	r2, #1
 8004932:	f883 2045 	strb.w	r2, [r3, #69]	@ 0x45

  /* Initialize the TIM state*/
  htim->State = HAL_TIM_STATE_READY;
 8004936:	687b      	ldr	r3, [r7, #4]
 8004938:	2201      	movs	r2, #1
 800493a:	f883 203d 	strb.w	r2, [r3, #61]	@ 0x3d

  return HAL_OK;
 800493e:	2300      	movs	r3, #0
}
 8004940:	4618      	mov	r0, r3
 8004942:	3708      	adds	r7, #8
 8004944:	46bd      	mov	sp, r7
 8004946:	bd80      	pop	{r7, pc}

08004948 <HAL_TIM_IC_Init>:
  *         Ex: call @ref HAL_TIM_IC_DeInit() before HAL_TIM_IC_Init()
  * @param  htim TIM Input Capture handle
  * @retval HAL status
  */
HAL_StatusTypeDef HAL_TIM_IC_Init(TIM_HandleTypeDef *htim)
{
 8004948:	b580      	push	{r7, lr}
 800494a:	b082      	sub	sp, #8
 800494c:	af00      	add	r7, sp, #0
 800494e:	6078      	str	r0, [r7, #4]
  /* Check the TIM handle allocation */
  if (htim == NULL)
 8004950:	687b      	ldr	r3, [r7, #4]
 8004952:	2b00      	cmp	r3, #0
 8004954:	d101      	bne.n	800495a <HAL_TIM_IC_Init+0x12>
  {
    return HAL_ERROR;
 8004956:	2301      	movs	r3, #1
 8004958:	e041      	b.n	80049de <HAL_TIM_IC_Init+0x96>
  assert_param(IS_TIM_COUNTER_MODE(htim->Init.CounterMode));
  assert_param(IS_TIM_CLOCKDIVISION_DIV(htim->Init.ClockDivision));
  assert_param(IS_TIM_PERIOD(htim, htim->Init.Period));
  assert_param(IS_TIM_AUTORELOAD_PRELOAD(htim->Init.AutoReloadPreload));

  if (htim->State == HAL_TIM_STATE_RESET)
 800495a:	687b      	ldr	r3, [r7, #4]
 800495c:	f893 303d 	ldrb.w	r3, [r3, #61]	@ 0x3d
 8004960:	b2db      	uxtb	r3, r3
 8004962:	2b00      	cmp	r3, #0
 8004964:	d106      	bne.n	8004974 <HAL_TIM_IC_Init+0x2c>
  {
    /* Allocate lock resource and initialize it */
    htim->Lock = HAL_UNLOCKED;
 8004966:	687b      	ldr	r3, [r7, #4]
 8004968:	2200      	movs	r2, #0
 800496a:	f883 203c 	strb.w	r2, [r3, #60]	@ 0x3c
    }
    /* Init the low level hardware : GPIO, CLOCK, NVIC */
    htim->IC_MspInitCallback(htim);
#else
    /* Init the low level hardware : GPIO, CLOCK, NVIC and DMA */
    HAL_TIM_IC_MspInit(htim);
 800496e:	6878      	ldr	r0, [r7, #4]
 8004970:	f000 f839 	bl	80049e6 <HAL_TIM_IC_MspInit>
#endif /* USE_HAL_TIM_REGISTER_CALLBACKS */
  }

  /* Set the TIM state */
  htim->State = HAL_TIM_STATE_BUSY;
 8004974:	687b      	ldr	r3, [r7, #4]
 8004976:	2202      	movs	r2, #2
 8004978:	f883 203d 	strb.w	r2, [r3, #61]	@ 0x3d

  /* Init the base time for the input capture */
  TIM_Base_SetConfig(htim->Instance, &htim->Init);
 800497c:	687b      	ldr	r3, [r7, #4]
 800497e:	681a      	ldr	r2, [r3, #0]
 8004980:	687b      	ldr	r3, [r7, #4]
 8004982:	3304      	adds	r3, #4
 8004984:	4619      	mov	r1, r3
 8004986:	4610      	mov	r0, r2
 8004988:	f000 fabc 	bl	8004f04 <TIM_Base_SetConfig>

  /* Initialize the DMA burst operation state */
  htim->DMABurstState = HAL_DMA_BURST_STATE_READY;
 800498c:	687b      	ldr	r3, [r7, #4]
 800498e:	2201      	movs	r2, #1
 8004990:	f883 2046 	strb.w	r2, [r3, #70]	@ 0x46

  /* Initialize the TIM channels state */
  TIM_CHANNEL_STATE_SET_ALL(htim, HAL_TIM_CHANNEL_STATE_READY);
 8004994:	687b      	ldr	r3, [r7, #4]
 8004996:	2201      	movs	r2, #1
 8004998:	f883 203e 	strb.w	r2, [r3, #62]	@ 0x3e
 800499c:	687b      	ldr	r3, [r7, #4]
 800499e:	2201      	movs	r2, #1
 80049a0:	f883 203f 	strb.w	r2, [r3, #63]	@ 0x3f
 80049a4:	687b      	ldr	r3, [r7, #4]
 80049a6:	2201      	movs	r2, #1
 80049a8:	f883 2040 	strb.w	r2, [r3, #64]	@ 0x40
 80049ac:	687b      	ldr	r3, [r7, #4]
 80049ae:	2201      	movs	r2, #1
 80049b0:	f883 2041 	strb.w	r2, [r3, #65]	@ 0x41
  TIM_CHANNEL_N_STATE_SET_ALL(htim, HAL_TIM_CHANNEL_STATE_READY);
 80049b4:	687b      	ldr	r3, [r7, #4]
 80049b6:	2201      	movs	r2, #1
 80049b8:	f883 2042 	strb.w	r2, [r3, #66]	@ 0x42
 80049bc:	687b      	ldr	r3, [r7, #4]
 80049be:	2201      	movs	r2, #1
 80049c0:	f883 2043 	strb.w	r2, [r3, #67]	@ 0x43
 80049c4:	687b      	ldr	r3, [r7, #4]
 80049c6:	2201      	movs	r2, #1
 80049c8:	f883 2044 	strb.w	r2, [r3, #68]	@ 0x44
 80049cc:	687b      	ldr	r3, [r7, #4]
 80049ce:	2201      	movs	r2, #1
 80049d0:	f883 2045 	strb.w	r2, [r3, #69]	@ 0x45

  /* Initialize the TIM state*/
  htim->State = HAL_TIM_STATE_READY;
 80049d4:	687b      	ldr	r3, [r7, #4]
 80049d6:	2201      	movs	r2, #1
 80049d8:	f883 203d 	strb.w	r2, [r3, #61]	@ 0x3d

  return HAL_OK;
 80049dc:	2300      	movs	r3, #0
}
 80049de:	4618      	mov	r0, r3
 80049e0:	3708      	adds	r7, #8
 80049e2:	46bd      	mov	sp, r7
 80049e4:	bd80      	pop	{r7, pc}

080049e6 <HAL_TIM_IC_MspInit>:
  * @brief  Initializes the TIM Input Capture MSP.
  * @param  htim TIM Input Capture handle
  * @retval None
  */
__weak void HAL_TIM_IC_MspInit(TIM_HandleTypeDef *htim)
{
 80049e6:	b480      	push	{r7}
 80049e8:	b083      	sub	sp, #12
 80049ea:	af00      	add	r7, sp, #0
 80049ec:	6078      	str	r0, [r7, #4]
  UNUSED(htim);

  /* NOTE : This function should not be modified, when the callback is needed,
            the HAL_TIM_IC_MspInit could be implemented in the user file
   */
}
 80049ee:	bf00      	nop
 80049f0:	370c      	adds	r7, #12
 80049f2:	46bd      	mov	sp, r7
 80049f4:	f85d 7b04 	ldr.w	r7, [sp], #4
 80049f8:	4770      	bx	lr

080049fa <HAL_TIM_IRQHandler>:
  * @brief  This function handles TIM interrupts requests.
  * @param  htim TIM  handle
  * @retval None
  */
void HAL_TIM_IRQHandler(TIM_HandleTypeDef *htim)
{
 80049fa:	b580      	push	{r7, lr}
 80049fc:	b084      	sub	sp, #16
 80049fe:	af00      	add	r7, sp, #0
 8004a00:	6078      	str	r0, [r7, #4]
  uint32_t itsource = htim->Instance->DIER;
 8004a02:	687b      	ldr	r3, [r7, #4]
 8004a04:	681b      	ldr	r3, [r3, #0]
 8004a06:	68db      	ldr	r3, [r3, #12]
 8004a08:	60fb      	str	r3, [r7, #12]
  uint32_t itflag   = htim->Instance->SR;
 8004a0a:	687b      	ldr	r3, [r7, #4]
 8004a0c:	681b      	ldr	r3, [r3, #0]
 8004a0e:	691b      	ldr	r3, [r3, #16]
 8004a10:	60bb      	str	r3, [r7, #8]

  /* Capture compare 1 event */
  if ((itflag & (TIM_FLAG_CC1)) == (TIM_FLAG_CC1))
 8004a12:	68bb      	ldr	r3, [r7, #8]
 8004a14:	f003 0302 	and.w	r3, r3, #2
 8004a18:	2b00      	cmp	r3, #0
 8004a1a:	d020      	beq.n	8004a5e <HAL_TIM_IRQHandler+0x64>
  {
    if ((itsource & (TIM_IT_CC1)) == (TIM_IT_CC1))
 8004a1c:	68fb      	ldr	r3, [r7, #12]
 8004a1e:	f003 0302 	and.w	r3, r3, #2
 8004a22:	2b00      	cmp	r3, #0
 8004a24:	d01b      	beq.n	8004a5e <HAL_TIM_IRQHandler+0x64>
    {
      {
        __HAL_TIM_CLEAR_FLAG(htim, TIM_FLAG_CC1);
 8004a26:	687b      	ldr	r3, [r7, #4]
 8004a28:	681b      	ldr	r3, [r3, #0]
 8004a2a:	f06f 0202 	mvn.w	r2, #2
 8004a2e:	611a      	str	r2, [r3, #16]
        htim->Channel = HAL_TIM_ACTIVE_CHANNEL_1;
 8004a30:	687b      	ldr	r3, [r7, #4]
 8004a32:	2201      	movs	r2, #1
 8004a34:	771a      	strb	r2, [r3, #28]

        /* Input capture event */
        if ((htim->Instance->CCMR1 & TIM_CCMR1_CC1S) != 0x00U)
 8004a36:	687b      	ldr	r3, [r7, #4]
 8004a38:	681b      	ldr	r3, [r3, #0]
 8004a3a:	699b      	ldr	r3, [r3, #24]
 8004a3c:	f003 0303 	and.w	r3, r3, #3
 8004a40:	2b00      	cmp	r3, #0
 8004a42:	d003      	beq.n	8004a4c <HAL_TIM_IRQHandler+0x52>
        {
#if (USE_HAL_TIM_REGISTER_CALLBACKS == 1)
          htim->IC_CaptureCallback(htim);
#else
          HAL_TIM_IC_CaptureCallback(htim);
 8004a44:	6878      	ldr	r0, [r7, #4]
 8004a46:	f000 fa3f 	bl	8004ec8 <HAL_TIM_IC_CaptureCallback>
 8004a4a:	e005      	b.n	8004a58 <HAL_TIM_IRQHandler+0x5e>
        {
#if (USE_HAL_TIM_REGISTER_CALLBACKS == 1)
          htim->OC_DelayElapsedCallback(htim);
          htim->PWM_PulseFinishedCallback(htim);
#else
          HAL_TIM_OC_DelayElapsedCallback(htim);
 8004a4c:	6878      	ldr	r0, [r7, #4]
 8004a4e:	f000 fa31 	bl	8004eb4 <HAL_TIM_OC_DelayElapsedCallback>
          HAL_TIM_PWM_PulseFinishedCallback(htim);
 8004a52:	6878      	ldr	r0, [r7, #4]
 8004a54:	f000 fa42 	bl	8004edc <HAL_TIM_PWM_PulseFinishedCallback>
#endif /* USE_HAL_TIM_REGISTER_CALLBACKS */
        }
        htim->Channel = HAL_TIM_ACTIVE_CHANNEL_CLEARED;
 8004a58:	687b      	ldr	r3, [r7, #4]
 8004a5a:	2200      	movs	r2, #0
 8004a5c:	771a      	strb	r2, [r3, #28]
      }
    }
  }
  /* Capture compare 2 event */
  if ((itflag & (TIM_FLAG_CC2)) == (TIM_FLAG_CC2))
 8004a5e:	68bb      	ldr	r3, [r7, #8]
 8004a60:	f003 0304 	and.w	r3, r3, #4
 8004a64:	2b00      	cmp	r3, #0
 8004a66:	d020      	beq.n	8004aaa <HAL_TIM_IRQHandler+0xb0>
  {
    if ((itsource & (TIM_IT_CC2)) == (TIM_IT_CC2))
 8004a68:	68fb      	ldr	r3, [r7, #12]
 8004a6a:	f003 0304 	and.w	r3, r3, #4
 8004a6e:	2b00      	cmp	r3, #0
 8004a70:	d01b      	beq.n	8004aaa <HAL_TIM_IRQHandler+0xb0>
    {
      __HAL_TIM_CLEAR_FLAG(htim, TIM_FLAG_CC2);
 8004a72:	687b      	ldr	r3, [r7, #4]
 8004a74:	681b      	ldr	r3, [r3, #0]
 8004a76:	f06f 0204 	mvn.w	r2, #4
 8004a7a:	611a      	str	r2, [r3, #16]
      htim->Channel = HAL_TIM_ACTIVE_CHANNEL_2;
 8004a7c:	687b      	ldr	r3, [r7, #4]
 8004a7e:	2202      	movs	r2, #2
 8004a80:	771a      	strb	r2, [r3, #28]
      /* Input capture event */
      if ((htim->Instance->CCMR1 & TIM_CCMR1_CC2S) != 0x00U)
 8004a82:	687b      	ldr	r3, [r7, #4]
 8004a84:	681b      	ldr	r3, [r3, #0]
 8004a86:	699b      	ldr	r3, [r3, #24]
 8004a88:	f403 7340 	and.w	r3, r3, #768	@ 0x300
 8004a8c:	2b00      	cmp	r3, #0
 8004a8e:	d003      	beq.n	8004a98 <HAL_TIM_IRQHandler+0x9e>
      {
#if (USE_HAL_TIM_REGISTER_CALLBACKS == 1)
        htim->IC_CaptureCallback(htim);
#else
        HAL_TIM_IC_CaptureCallback(htim);
 8004a90:	6878      	ldr	r0, [r7, #4]
 8004a92:	f000 fa19 	bl	8004ec8 <HAL_TIM_IC_CaptureCallback>
 8004a96:	e005      	b.n	8004aa4 <HAL_TIM_IRQHandler+0xaa>
      {
#if (USE_HAL_TIM_REGISTER_CALLBACKS == 1)
        htim->OC_DelayElapsedCallback(htim);
        htim->PWM_PulseFinishedCallback(htim);
#else
        HAL_TIM_OC_DelayElapsedCallback(htim);
 8004a98:	6878      	ldr	r0, [r7, #4]
 8004a9a:	f000 fa0b 	bl	8004eb4 <HAL_TIM_OC_DelayElapsedCallback>
        HAL_TIM_PWM_PulseFinishedCallback(htim);
 8004a9e:	6878      	ldr	r0, [r7, #4]
 8004aa0:	f000 fa1c 	bl	8004edc <HAL_TIM_PWM_PulseFinishedCallback>
#endif /* USE_HAL_TIM_REGISTER_CALLBACKS */
      }
      htim->Channel = HAL_TIM_ACTIVE_CHANNEL_CLEARED;
 8004aa4:	687b      	ldr	r3, [r7, #4]
 8004aa6:	2200      	movs	r2, #0
 8004aa8:	771a      	strb	r2, [r3, #28]
    }
  }
  /* Capture compare 3 event */
  if ((itflag & (TIM_FLAG_CC3)) == (TIM_FLAG_CC3))
 8004aaa:	68bb      	ldr	r3, [r7, #8]
 8004aac:	f003 0308 	and.w	r3, r3, #8
 8004ab0:	2b00      	cmp	r3, #0
 8004ab2:	d020      	beq.n	8004af6 <HAL_TIM_IRQHandler+0xfc>
  {
    if ((itsource & (TIM_IT_CC3)) == (TIM_IT_CC3))
 8004ab4:	68fb      	ldr	r3, [r7, #12]
 8004ab6:	f003 0308 	and.w	r3, r3, #8
 8004aba:	2b00      	cmp	r3, #0
 8004abc:	d01b      	beq.n	8004af6 <HAL_TIM_IRQHandler+0xfc>
    {
      __HAL_TIM_CLEAR_FLAG(htim, TIM_FLAG_CC3);
 8004abe:	687b      	ldr	r3, [r7, #4]
 8004ac0:	681b      	ldr	r3, [r3, #0]
 8004ac2:	f06f 0208 	mvn.w	r2, #8
 8004ac6:	611a      	str	r2, [r3, #16]
      htim->Channel = HAL_TIM_ACTIVE_CHANNEL_3;
 8004ac8:	687b      	ldr	r3, [r7, #4]
 8004aca:	2204      	movs	r2, #4
 8004acc:	771a      	strb	r2, [r3, #28]
      /* Input capture event */
      if ((htim->Instance->CCMR2 & TIM_CCMR2_CC3S) != 0x00U)
 8004ace:	687b      	ldr	r3, [r7, #4]
 8004ad0:	681b      	ldr	r3, [r3, #0]
 8004ad2:	69db      	ldr	r3, [r3, #28]
 8004ad4:	f003 0303 	and.w	r3, r3, #3
 8004ad8:	2b00      	cmp	r3, #0
 8004ada:	d003      	beq.n	8004ae4 <HAL_TIM_IRQHandler+0xea>
      {
#if (USE_HAL_TIM_REGISTER_CALLBACKS == 1)
        htim->IC_CaptureCallback(htim);
#else
        HAL_TIM_IC_CaptureCallback(htim);
 8004adc:	6878      	ldr	r0, [r7, #4]
 8004ade:	f000 f9f3 	bl	8004ec8 <HAL_TIM_IC_CaptureCallback>
 8004ae2:	e005      	b.n	8004af0 <HAL_TIM_IRQHandler+0xf6>
      {
#if (USE_HAL_TIM_REGISTER_CALLBACKS == 1)
        htim->OC_DelayElapsedCallback(htim);
        htim->PWM_PulseFinishedCallback(htim);
#else
        HAL_TIM_OC_DelayElapsedCallback(htim);
 8004ae4:	6878      	ldr	r0, [r7, #4]
 8004ae6:	f000 f9e5 	bl	8004eb4 <HAL_TIM_OC_DelayElapsedCallback>
        HAL_TIM_PWM_PulseFinishedCallback(htim);
 8004aea:	6878      	ldr	r0, [r7, #4]
 8004aec:	f000 f9f6 	bl	8004edc <HAL_TIM_PWM_PulseFinishedCallback>
#endif /* USE_HAL_TIM_REGISTER_CALLBACKS */
      }
      htim->Channel = HAL_TIM_ACTIVE_CHANNEL_CLEARED;
 8004af0:	687b      	ldr	r3, [r7, #4]
 8004af2:	2200      	movs	r2, #0
 8004af4:	771a      	strb	r2, [r3, #28]
    }
  }
  /* Capture compare 4 event */
  if ((itflag & (TIM_FLAG_CC4)) == (TIM_FLAG_CC4))
 8004af6:	68bb      	ldr	r3, [r7, #8]
 8004af8:	f003 0310 	and.w	r3, r3, #16
 8004afc:	2b00      	cmp	r3, #0
 8004afe:	d020      	beq.n	8004b42 <HAL_TIM_IRQHandler+0x148>
  {
    if ((itsource & (TIM_IT_CC4)) == (TIM_IT_CC4))
 8004b00:	68fb      	ldr	r3, [r7, #12]
 8004b02:	f003 0310 	and.w	r3, r3, #16
 8004b06:	2b00      	cmp	r3, #0
 8004b08:	d01b      	beq.n	8004b42 <HAL_TIM_IRQHandler+0x148>
    {
      __HAL_TIM_CLEAR_FLAG(htim, TIM_FLAG_CC4);
 8004b0a:	687b      	ldr	r3, [r7, #4]
 8004b0c:	681b      	ldr	r3, [r3, #0]
 8004b0e:	f06f 0210 	mvn.w	r2, #16
 8004b12:	611a      	str	r2, [r3, #16]
      htim->Channel = HAL_TIM_ACTIVE_CHANNEL_4;
 8004b14:	687b      	ldr	r3, [r7, #4]
 8004b16:	2208      	movs	r2, #8
 8004b18:	771a      	strb	r2, [r3, #28]
      /* Input capture event */
      if ((htim->Instance->CCMR2 & TIM_CCMR2_CC4S) != 0x00U)
 8004b1a:	687b      	ldr	r3, [r7, #4]
 8004b1c:	681b      	ldr	r3, [r3, #0]
 8004b1e:	69db      	ldr	r3, [r3, #28]
 8004b20:	f403 7340 	and.w	r3, r3, #768	@ 0x300
 8004b24:	2b00      	cmp	r3, #0
 8004b26:	d003      	beq.n	8004b30 <HAL_TIM_IRQHandler+0x136>
      {
#if (USE_HAL_TIM_REGISTER_CALLBACKS == 1)
        htim->IC_CaptureCallback(htim);
#else
        HAL_TIM_IC_CaptureCallback(htim);
 8004b28:	6878      	ldr	r0, [r7, #4]
 8004b2a:	f000 f9cd 	bl	8004ec8 <HAL_TIM_IC_CaptureCallback>
 8004b2e:	e005      	b.n	8004b3c <HAL_TIM_IRQHandler+0x142>
      {
#if (USE_HAL_TIM_REGISTER_CALLBACKS == 1)
        htim->OC_DelayElapsedCallback(htim);
        htim->PWM_PulseFinishedCallback(htim);
#else
        HAL_TIM_OC_DelayElapsedCallback(htim);
 8004b30:	6878      	ldr	r0, [r7, #4]
 8004b32:	f000 f9bf 	bl	8004eb4 <HAL_TIM_OC_DelayElapsedCallback>
        HAL_TIM_PWM_PulseFinishedCallback(htim);
 8004b36:	6878      	ldr	r0, [r7, #4]
 8004b38:	f000 f9d0 	bl	8004edc <HAL_TIM_PWM_PulseFinishedCallback>
#endif /* USE_HAL_TIM_REGISTER_CALLBACKS */
      }
      htim->Channel = HAL_TIM_ACTIVE_CHANNEL_CLEARED;
 8004b3c:	687b      	ldr	r3, [r7, #4]
 8004b3e:	2200      	movs	r2, #0
 8004b40:	771a      	strb	r2, [r3, #28]
    }
  }
  /* TIM Update event */
  if ((itflag & (TIM_FLAG_UPDATE)) == (TIM_FLAG_UPDATE))
 8004b42:	68bb      	ldr	r3, [r7, #8]
 8004b44:	f003 0301 	and.w	r3, r3, #1
 8004b48:	2b00      	cmp	r3, #0
 8004b4a:	d00c      	beq.n	8004b66 <HAL_TIM_IRQHandler+0x16c>
  {
    if ((itsource & (TIM_IT_UPDATE)) == (TIM_IT_UPDATE))
 8004b4c:	68fb      	ldr	r3, [r7, #12]
 8004b4e:	f003 0301 	and.w	r3, r3, #1
 8004b52:	2b00      	cmp	r3, #0
 8004b54:	d007      	beq.n	8004b66 <HAL_TIM_IRQHandler+0x16c>
    {
      __HAL_TIM_CLEAR_FLAG(htim, TIM_FLAG_UPDATE);
 8004b56:	687b      	ldr	r3, [r7, #4]
 8004b58:	681b      	ldr	r3, [r3, #0]
 8004b5a:	f06f 0201 	mvn.w	r2, #1
 8004b5e:	611a      	str	r2, [r3, #16]
#if (USE_HAL_TIM_REGISTER_CALLBACKS == 1)
      htim->PeriodElapsedCallback(htim);
#else
      HAL_TIM_PeriodElapsedCallback(htim);
 8004b60:	6878      	ldr	r0, [r7, #4]
 8004b62:	f000 f99d 	bl	8004ea0 <HAL_TIM_PeriodElapsedCallback>
#endif /* USE_HAL_TIM_REGISTER_CALLBACKS */
    }
  }
  /* TIM Break input event */
  if ((itflag & (TIM_FLAG_BREAK)) == (TIM_FLAG_BREAK))
 8004b66:	68bb      	ldr	r3, [r7, #8]
 8004b68:	f003 0380 	and.w	r3, r3, #128	@ 0x80
 8004b6c:	2b00      	cmp	r3, #0
 8004b6e:	d00c      	beq.n	8004b8a <HAL_TIM_IRQHandler+0x190>
  {
    if ((itsource & (TIM_IT_BREAK)) == (TIM_IT_BREAK))
 8004b70:	68fb      	ldr	r3, [r7, #12]
 8004b72:	f003 0380 	and.w	r3, r3, #128	@ 0x80
 8004b76:	2b00      	cmp	r3, #0
 8004b78:	d007      	beq.n	8004b8a <HAL_TIM_IRQHandler+0x190>
    {
      __HAL_TIM_CLEAR_FLAG(htim, TIM_FLAG_BREAK);
 8004b7a:	687b      	ldr	r3, [r7, #4]
 8004b7c:	681b      	ldr	r3, [r3, #0]
 8004b7e:	f06f 0280 	mvn.w	r2, #128	@ 0x80
 8004b82:	611a      	str	r2, [r3, #16]
#if (USE_HAL_TIM_REGISTER_CALLBACKS == 1)
      htim->BreakCallback(htim);
#else
      HAL_TIMEx_BreakCallback(htim);
 8004b84:	6878      	ldr	r0, [r7, #4]
 8004b86:	f000 fc73 	bl	8005470 <HAL_TIMEx_BreakCallback>
#endif /* USE_HAL_TIM_REGISTER_CALLBACKS */
    }
  }
  /* TIM Trigger detection event */
  if ((itflag & (TIM_FLAG_TRIGGER)) == (TIM_FLAG_TRIGGER))
 8004b8a:	68bb      	ldr	r3, [r7, #8]
 8004b8c:	f003 0340 	and.w	r3, r3, #64	@ 0x40
 8004b90:	2b00      	cmp	r3, #0
 8004b92:	d00c      	beq.n	8004bae <HAL_TIM_IRQHandler+0x1b4>
  {
    if ((itsource & (TIM_IT_TRIGGER)) == (TIM_IT_TRIGGER))
 8004b94:	68fb      	ldr	r3, [r7, #12]
 8004b96:	f003 0340 	and.w	r3, r3, #64	@ 0x40
 8004b9a:	2b00      	cmp	r3, #0
 8004b9c:	d007      	beq.n	8004bae <HAL_TIM_IRQHandler+0x1b4>
    {
      __HAL_TIM_CLEAR_FLAG(htim, TIM_FLAG_TRIGGER);
 8004b9e:	687b      	ldr	r3, [r7, #4]
 8004ba0:	681b      	ldr	r3, [r3, #0]
 8004ba2:	f06f 0240 	mvn.w	r2, #64	@ 0x40
 8004ba6:	611a      	str	r2, [r3, #16]
#if (USE_HAL_TIM_REGISTER_CALLBACKS == 1)
      htim->TriggerCallback(htim);
#else
      HAL_TIM_TriggerCallback(htim);
 8004ba8:	6878      	ldr	r0, [r7, #4]
 8004baa:	f000 f9a1 	bl	8004ef0 <HAL_TIM_TriggerCallback>
#endif /* USE_HAL_TIM_REGISTER_CALLBACKS */
    }
  }
  /* TIM commutation event */
  if ((itflag & (TIM_FLAG_COM)) == (TIM_FLAG_COM))
 8004bae:	68bb      	ldr	r3, [r7, #8]
 8004bb0:	f003 0320 	and.w	r3, r3, #32
 8004bb4:	2b00      	cmp	r3, #0
 8004bb6:	d00c      	beq.n	8004bd2 <HAL_TIM_IRQHandler+0x1d8>
  {
    if ((itsource & (TIM_IT_COM)) == (TIM_IT_COM))
 8004bb8:	68fb      	ldr	r3, [r7, #12]
 8004bba:	f003 0320 	and.w	r3, r3, #32
 8004bbe:	2b00      	cmp	r3, #0
 8004bc0:	d007      	beq.n	8004bd2 <HAL_TIM_IRQHandler+0x1d8>
    {
      __HAL_TIM_CLEAR_FLAG(htim, TIM_FLAG_COM);
 8004bc2:	687b      	ldr	r3, [r7, #4]
 8004bc4:	681b      	ldr	r3, [r3, #0]
 8004bc6:	f06f 0220 	mvn.w	r2, #32
 8004bca:	611a      	str	r2, [r3, #16]
#if (USE_HAL_TIM_REGISTER_CALLBACKS == 1)
      htim->CommutationCallback(htim);
#else
      HAL_TIMEx_CommutCallback(htim);
 8004bcc:	6878      	ldr	r0, [r7, #4]
 8004bce:	f000 fc45 	bl	800545c <HAL_TIMEx_CommutCallback>
#endif /* USE_HAL_TIM_REGISTER_CALLBACKS */
    }
  }
}
 8004bd2:	bf00      	nop
 8004bd4:	3710      	adds	r7, #16
 8004bd6:	46bd      	mov	sp, r7
 8004bd8:	bd80      	pop	{r7, pc}

08004bda <HAL_TIM_IC_ConfigChannel>:
  *            @arg TIM_CHANNEL_3: TIM Channel 3 selected
  *            @arg TIM_CHANNEL_4: TIM Channel 4 selected
  * @retval HAL status
  */
HAL_StatusTypeDef HAL_TIM_IC_ConfigChannel(TIM_HandleTypeDef *htim, const TIM_IC_InitTypeDef *sConfig, uint32_t Channel)
{
 8004bda:	b580      	push	{r7, lr}
 8004bdc:	b086      	sub	sp, #24
 8004bde:	af00      	add	r7, sp, #0
 8004be0:	60f8      	str	r0, [r7, #12]
 8004be2:	60b9      	str	r1, [r7, #8]
 8004be4:	607a      	str	r2, [r7, #4]
  HAL_StatusTypeDef status = HAL_OK;
 8004be6:	2300      	movs	r3, #0
 8004be8:	75fb      	strb	r3, [r7, #23]
  assert_param(IS_TIM_IC_SELECTION(sConfig->ICSelection));
  assert_param(IS_TIM_IC_PRESCALER(sConfig->ICPrescaler));
  assert_param(IS_TIM_IC_FILTER(sConfig->ICFilter));

  /* Process Locked */
  __HAL_LOCK(htim);
 8004bea:	68fb      	ldr	r3, [r7, #12]
 8004bec:	f893 303c 	ldrb.w	r3, [r3, #60]	@ 0x3c
 8004bf0:	2b01      	cmp	r3, #1
 8004bf2:	d101      	bne.n	8004bf8 <HAL_TIM_IC_ConfigChannel+0x1e>
 8004bf4:	2302      	movs	r3, #2
 8004bf6:	e088      	b.n	8004d0a <HAL_TIM_IC_ConfigChannel+0x130>
 8004bf8:	68fb      	ldr	r3, [r7, #12]
 8004bfa:	2201      	movs	r2, #1
 8004bfc:	f883 203c 	strb.w	r2, [r3, #60]	@ 0x3c

  if (Channel == TIM_CHANNEL_1)
 8004c00:	687b      	ldr	r3, [r7, #4]
 8004c02:	2b00      	cmp	r3, #0
 8004c04:	d11b      	bne.n	8004c3e <HAL_TIM_IC_ConfigChannel+0x64>
  {
    /* TI1 Configuration */
    TIM_TI1_SetConfig(htim->Instance,
 8004c06:	68fb      	ldr	r3, [r7, #12]
 8004c08:	6818      	ldr	r0, [r3, #0]
                      sConfig->ICPolarity,
 8004c0a:	68bb      	ldr	r3, [r7, #8]
 8004c0c:	6819      	ldr	r1, [r3, #0]
                      sConfig->ICSelection,
 8004c0e:	68bb      	ldr	r3, [r7, #8]
 8004c10:	685a      	ldr	r2, [r3, #4]
                      sConfig->ICFilter);
 8004c12:	68bb      	ldr	r3, [r7, #8]
 8004c14:	68db      	ldr	r3, [r3, #12]
    TIM_TI1_SetConfig(htim->Instance,
 8004c16:	f000 f9fb 	bl	8005010 <TIM_TI1_SetConfig>

    /* Reset the IC1PSC Bits */
    htim->Instance->CCMR1 &= ~TIM_CCMR1_IC1PSC;
 8004c1a:	68fb      	ldr	r3, [r7, #12]
 8004c1c:	681b      	ldr	r3, [r3, #0]
 8004c1e:	699a      	ldr	r2, [r3, #24]
 8004c20:	68fb      	ldr	r3, [r7, #12]
 8004c22:	681b      	ldr	r3, [r3, #0]
 8004c24:	f022 020c 	bic.w	r2, r2, #12
 8004c28:	619a      	str	r2, [r3, #24]

    /* Set the IC1PSC value */
    htim->Instance->CCMR1 |= sConfig->ICPrescaler;
 8004c2a:	68fb      	ldr	r3, [r7, #12]
 8004c2c:	681b      	ldr	r3, [r3, #0]
 8004c2e:	6999      	ldr	r1, [r3, #24]
 8004c30:	68bb      	ldr	r3, [r7, #8]
 8004c32:	689a      	ldr	r2, [r3, #8]
 8004c34:	68fb      	ldr	r3, [r7, #12]
 8004c36:	681b      	ldr	r3, [r3, #0]
 8004c38:	430a      	orrs	r2, r1
 8004c3a:	619a      	str	r2, [r3, #24]
 8004c3c:	e060      	b.n	8004d00 <HAL_TIM_IC_ConfigChannel+0x126>
  }
  else if (Channel == TIM_CHANNEL_2)
 8004c3e:	687b      	ldr	r3, [r7, #4]
 8004c40:	2b04      	cmp	r3, #4
 8004c42:	d11c      	bne.n	8004c7e <HAL_TIM_IC_ConfigChannel+0xa4>
  {
    /* TI2 Configuration */
    assert_param(IS_TIM_CC2_INSTANCE(htim->Instance));

    TIM_TI2_SetConfig(htim->Instance,
 8004c44:	68fb      	ldr	r3, [r7, #12]
 8004c46:	6818      	ldr	r0, [r3, #0]
                      sConfig->ICPolarity,
 8004c48:	68bb      	ldr	r3, [r7, #8]
 8004c4a:	6819      	ldr	r1, [r3, #0]
                      sConfig->ICSelection,
 8004c4c:	68bb      	ldr	r3, [r7, #8]
 8004c4e:	685a      	ldr	r2, [r3, #4]
                      sConfig->ICFilter);
 8004c50:	68bb      	ldr	r3, [r7, #8]
 8004c52:	68db      	ldr	r3, [r3, #12]
    TIM_TI2_SetConfig(htim->Instance,
 8004c54:	f000 fa73 	bl	800513e <TIM_TI2_SetConfig>

    /* Reset the IC2PSC Bits */
    htim->Instance->CCMR1 &= ~TIM_CCMR1_IC2PSC;
 8004c58:	68fb      	ldr	r3, [r7, #12]
 8004c5a:	681b      	ldr	r3, [r3, #0]
 8004c5c:	699a      	ldr	r2, [r3, #24]
 8004c5e:	68fb      	ldr	r3, [r7, #12]
 8004c60:	681b      	ldr	r3, [r3, #0]
 8004c62:	f422 6240 	bic.w	r2, r2, #3072	@ 0xc00
 8004c66:	619a      	str	r2, [r3, #24]

    /* Set the IC2PSC value */
    htim->Instance->CCMR1 |= (sConfig->ICPrescaler << 8U);
 8004c68:	68fb      	ldr	r3, [r7, #12]
 8004c6a:	681b      	ldr	r3, [r3, #0]
 8004c6c:	6999      	ldr	r1, [r3, #24]
 8004c6e:	68bb      	ldr	r3, [r7, #8]
 8004c70:	689b      	ldr	r3, [r3, #8]
 8004c72:	021a      	lsls	r2, r3, #8
 8004c74:	68fb      	ldr	r3, [r7, #12]
 8004c76:	681b      	ldr	r3, [r3, #0]
 8004c78:	430a      	orrs	r2, r1
 8004c7a:	619a      	str	r2, [r3, #24]
 8004c7c:	e040      	b.n	8004d00 <HAL_TIM_IC_ConfigChannel+0x126>
  }
  else if (Channel == TIM_CHANNEL_3)
 8004c7e:	687b      	ldr	r3, [r7, #4]
 8004c80:	2b08      	cmp	r3, #8
 8004c82:	d11b      	bne.n	8004cbc <HAL_TIM_IC_ConfigChannel+0xe2>
  {
    /* TI3 Configuration */
    assert_param(IS_TIM_CC3_INSTANCE(htim->Instance));

    TIM_TI3_SetConfig(htim->Instance,
 8004c84:	68fb      	ldr	r3, [r7, #12]
 8004c86:	6818      	ldr	r0, [r3, #0]
                      sConfig->ICPolarity,
 8004c88:	68bb      	ldr	r3, [r7, #8]
 8004c8a:	6819      	ldr	r1, [r3, #0]
                      sConfig->ICSelection,
 8004c8c:	68bb      	ldr	r3, [r7, #8]
 8004c8e:	685a      	ldr	r2, [r3, #4]
                      sConfig->ICFilter);
 8004c90:	68bb      	ldr	r3, [r7, #8]
 8004c92:	68db      	ldr	r3, [r3, #12]
    TIM_TI3_SetConfig(htim->Instance,
 8004c94:	f000 fac0 	bl	8005218 <TIM_TI3_SetConfig>

    /* Reset the IC3PSC Bits */
    htim->Instance->CCMR2 &= ~TIM_CCMR2_IC3PSC;
 8004c98:	68fb      	ldr	r3, [r7, #12]
 8004c9a:	681b      	ldr	r3, [r3, #0]
 8004c9c:	69da      	ldr	r2, [r3, #28]
 8004c9e:	68fb      	ldr	r3, [r7, #12]
 8004ca0:	681b      	ldr	r3, [r3, #0]
 8004ca2:	f022 020c 	bic.w	r2, r2, #12
 8004ca6:	61da      	str	r2, [r3, #28]

    /* Set the IC3PSC value */
    htim->Instance->CCMR2 |= sConfig->ICPrescaler;
 8004ca8:	68fb      	ldr	r3, [r7, #12]
 8004caa:	681b      	ldr	r3, [r3, #0]
 8004cac:	69d9      	ldr	r1, [r3, #28]
 8004cae:	68bb      	ldr	r3, [r7, #8]
 8004cb0:	689a      	ldr	r2, [r3, #8]
 8004cb2:	68fb      	ldr	r3, [r7, #12]
 8004cb4:	681b      	ldr	r3, [r3, #0]
 8004cb6:	430a      	orrs	r2, r1
 8004cb8:	61da      	str	r2, [r3, #28]
 8004cba:	e021      	b.n	8004d00 <HAL_TIM_IC_ConfigChannel+0x126>
  }
  else if (Channel == TIM_CHANNEL_4)
 8004cbc:	687b      	ldr	r3, [r7, #4]
 8004cbe:	2b0c      	cmp	r3, #12
 8004cc0:	d11c      	bne.n	8004cfc <HAL_TIM_IC_ConfigChannel+0x122>
  {
    /* TI4 Configuration */
    assert_param(IS_TIM_CC4_INSTANCE(htim->Instance));

    TIM_TI4_SetConfig(htim->Instance,
 8004cc2:	68fb      	ldr	r3, [r7, #12]
 8004cc4:	6818      	ldr	r0, [r3, #0]
                      sConfig->ICPolarity,
 8004cc6:	68bb      	ldr	r3, [r7, #8]
 8004cc8:	6819      	ldr	r1, [r3, #0]
                      sConfig->ICSelection,
 8004cca:	68bb      	ldr	r3, [r7, #8]
 8004ccc:	685a      	ldr	r2, [r3, #4]
                      sConfig->ICFilter);
 8004cce:	68bb      	ldr	r3, [r7, #8]
 8004cd0:	68db      	ldr	r3, [r3, #12]
    TIM_TI4_SetConfig(htim->Instance,
 8004cd2:	f000 fadd 	bl	8005290 <TIM_TI4_SetConfig>

    /* Reset the IC4PSC Bits */
    htim->Instance->CCMR2 &= ~TIM_CCMR2_IC4PSC;
 8004cd6:	68fb      	ldr	r3, [r7, #12]
 8004cd8:	681b      	ldr	r3, [r3, #0]
 8004cda:	69da      	ldr	r2, [r3, #28]
 8004cdc:	68fb      	ldr	r3, [r7, #12]
 8004cde:	681b      	ldr	r3, [r3, #0]
 8004ce0:	f422 6240 	bic.w	r2, r2, #3072	@ 0xc00
 8004ce4:	61da      	str	r2, [r3, #28]

    /* Set the IC4PSC value */
    htim->Instance->CCMR2 |= (sConfig->ICPrescaler << 8U);
 8004ce6:	68fb      	ldr	r3, [r7, #12]
 8004ce8:	681b      	ldr	r3, [r3, #0]
 8004cea:	69d9      	ldr	r1, [r3, #28]
 8004cec:	68bb      	ldr	r3, [r7, #8]
 8004cee:	689b      	ldr	r3, [r3, #8]
 8004cf0:	021a      	lsls	r2, r3, #8
 8004cf2:	68fb      	ldr	r3, [r7, #12]
 8004cf4:	681b      	ldr	r3, [r3, #0]
 8004cf6:	430a      	orrs	r2, r1
 8004cf8:	61da      	str	r2, [r3, #28]
 8004cfa:	e001      	b.n	8004d00 <HAL_TIM_IC_ConfigChannel+0x126>
  }
  else
  {
    status = HAL_ERROR;
 8004cfc:	2301      	movs	r3, #1
 8004cfe:	75fb      	strb	r3, [r7, #23]
  }

  __HAL_UNLOCK(htim);
 8004d00:	68fb      	ldr	r3, [r7, #12]
 8004d02:	2200      	movs	r2, #0
 8004d04:	f883 203c 	strb.w	r2, [r3, #60]	@ 0x3c

  return status;
 8004d08:	7dfb      	ldrb	r3, [r7, #23]
}
 8004d0a:	4618      	mov	r0, r3
 8004d0c:	3718      	adds	r7, #24
 8004d0e:	46bd      	mov	sp, r7
 8004d10:	bd80      	pop	{r7, pc}

08004d12 <HAL_TIM_ConfigClockSource>:
  * @param  sClockSourceConfig pointer to a TIM_ClockConfigTypeDef structure that
  *         contains the clock source information for the TIM peripheral.
  * @retval HAL status
  */
HAL_StatusTypeDef HAL_TIM_ConfigClockSource(TIM_HandleTypeDef *htim, const TIM_ClockConfigTypeDef *sClockSourceConfig)
{
 8004d12:	b580      	push	{r7, lr}
 8004d14:	b084      	sub	sp, #16
 8004d16:	af00      	add	r7, sp, #0
 8004d18:	6078      	str	r0, [r7, #4]
 8004d1a:	6039      	str	r1, [r7, #0]
  HAL_StatusTypeDef status = HAL_OK;
 8004d1c:	2300      	movs	r3, #0
 8004d1e:	73fb      	strb	r3, [r7, #15]
  uint32_t tmpsmcr;

  /* Process Locked */
  __HAL_LOCK(htim);
 8004d20:	687b      	ldr	r3, [r7, #4]
 8004d22:	f893 303c 	ldrb.w	r3, [r3, #60]	@ 0x3c
 8004d26:	2b01      	cmp	r3, #1
 8004d28:	d101      	bne.n	8004d2e <HAL_TIM_ConfigClockSource+0x1c>
 8004d2a:	2302      	movs	r3, #2
 8004d2c:	e0b4      	b.n	8004e98 <HAL_TIM_ConfigClockSource+0x186>
 8004d2e:	687b      	ldr	r3, [r7, #4]
 8004d30:	2201      	movs	r2, #1
 8004d32:	f883 203c 	strb.w	r2, [r3, #60]	@ 0x3c

  htim->State = HAL_TIM_STATE_BUSY;
 8004d36:	687b      	ldr	r3, [r7, #4]
 8004d38:	2202      	movs	r2, #2
 8004d3a:	f883 203d 	strb.w	r2, [r3, #61]	@ 0x3d

  /* Check the parameters */
  assert_param(IS_TIM_CLOCKSOURCE(sClockSourceConfig->ClockSource));

  /* Reset the SMS, TS, ECE, ETPS and ETRF bits */
  tmpsmcr = htim->Instance->SMCR;
 8004d3e:	687b      	ldr	r3, [r7, #4]
 8004d40:	681b      	ldr	r3, [r3, #0]
 8004d42:	689b      	ldr	r3, [r3, #8]
 8004d44:	60bb      	str	r3, [r7, #8]
  tmpsmcr &= ~(TIM_SMCR_SMS | TIM_SMCR_TS);
 8004d46:	68bb      	ldr	r3, [r7, #8]
 8004d48:	f023 0377 	bic.w	r3, r3, #119	@ 0x77
 8004d4c:	60bb      	str	r3, [r7, #8]
  tmpsmcr &= ~(TIM_SMCR_ETF | TIM_SMCR_ETPS | TIM_SMCR_ECE | TIM_SMCR_ETP);
 8004d4e:	68bb      	ldr	r3, [r7, #8]
 8004d50:	f423 437f 	bic.w	r3, r3, #65280	@ 0xff00
 8004d54:	60bb      	str	r3, [r7, #8]
  htim->Instance->SMCR = tmpsmcr;
 8004d56:	687b      	ldr	r3, [r7, #4]
 8004d58:	681b      	ldr	r3, [r3, #0]
 8004d5a:	68ba      	ldr	r2, [r7, #8]
 8004d5c:	609a      	str	r2, [r3, #8]

  switch (sClockSourceConfig->ClockSource)
 8004d5e:	683b      	ldr	r3, [r7, #0]
 8004d60:	681b      	ldr	r3, [r3, #0]
 8004d62:	f5b3 5f00 	cmp.w	r3, #8192	@ 0x2000
 8004d66:	d03e      	beq.n	8004de6 <HAL_TIM_ConfigClockSource+0xd4>
 8004d68:	f5b3 5f00 	cmp.w	r3, #8192	@ 0x2000
 8004d6c:	f200 8087 	bhi.w	8004e7e <HAL_TIM_ConfigClockSource+0x16c>
 8004d70:	f5b3 5f80 	cmp.w	r3, #4096	@ 0x1000
 8004d74:	f000 8086 	beq.w	8004e84 <HAL_TIM_ConfigClockSource+0x172>
 8004d78:	f5b3 5f80 	cmp.w	r3, #4096	@ 0x1000
 8004d7c:	d87f      	bhi.n	8004e7e <HAL_TIM_ConfigClockSource+0x16c>
 8004d7e:	2b70      	cmp	r3, #112	@ 0x70
 8004d80:	d01a      	beq.n	8004db8 <HAL_TIM_ConfigClockSource+0xa6>
 8004d82:	2b70      	cmp	r3, #112	@ 0x70
 8004d84:	d87b      	bhi.n	8004e7e <HAL_TIM_ConfigClockSource+0x16c>
 8004d86:	2b60      	cmp	r3, #96	@ 0x60
 8004d88:	d050      	beq.n	8004e2c <HAL_TIM_ConfigClockSource+0x11a>
 8004d8a:	2b60      	cmp	r3, #96	@ 0x60
 8004d8c:	d877      	bhi.n	8004e7e <HAL_TIM_ConfigClockSource+0x16c>
 8004d8e:	2b50      	cmp	r3, #80	@ 0x50
 8004d90:	d03c      	beq.n	8004e0c <HAL_TIM_ConfigClockSource+0xfa>
 8004d92:	2b50      	cmp	r3, #80	@ 0x50
 8004d94:	d873      	bhi.n	8004e7e <HAL_TIM_ConfigClockSource+0x16c>
 8004d96:	2b40      	cmp	r3, #64	@ 0x40
 8004d98:	d058      	beq.n	8004e4c <HAL_TIM_ConfigClockSource+0x13a>
 8004d9a:	2b40      	cmp	r3, #64	@ 0x40
 8004d9c:	d86f      	bhi.n	8004e7e <HAL_TIM_ConfigClockSource+0x16c>
 8004d9e:	2b30      	cmp	r3, #48	@ 0x30
 8004da0:	d064      	beq.n	8004e6c <HAL_TIM_ConfigClockSource+0x15a>
 8004da2:	2b30      	cmp	r3, #48	@ 0x30
 8004da4:	d86b      	bhi.n	8004e7e <HAL_TIM_ConfigClockSource+0x16c>
 8004da6:	2b20      	cmp	r3, #32
 8004da8:	d060      	beq.n	8004e6c <HAL_TIM_ConfigClockSource+0x15a>
 8004daa:	2b20      	cmp	r3, #32
 8004dac:	d867      	bhi.n	8004e7e <HAL_TIM_ConfigClockSource+0x16c>
 8004dae:	2b00      	cmp	r3, #0
 8004db0:	d05c      	beq.n	8004e6c <HAL_TIM_ConfigClockSource+0x15a>
 8004db2:	2b10      	cmp	r3, #16
 8004db4:	d05a      	beq.n	8004e6c <HAL_TIM_ConfigClockSource+0x15a>
 8004db6:	e062      	b.n	8004e7e <HAL_TIM_ConfigClockSource+0x16c>
      assert_param(IS_TIM_CLOCKPRESCALER(sClockSourceConfig->ClockPrescaler));
      assert_param(IS_TIM_CLOCKPOLARITY(sClockSourceConfig->ClockPolarity));
      assert_param(IS_TIM_CLOCKFILTER(sClockSourceConfig->ClockFilter));

      /* Configure the ETR Clock source */
      TIM_ETR_SetConfig(htim->Instance,
 8004db8:	687b      	ldr	r3, [r7, #4]
 8004dba:	6818      	ldr	r0, [r3, #0]
                        sClockSourceConfig->ClockPrescaler,
 8004dbc:	683b      	ldr	r3, [r7, #0]
 8004dbe:	6899      	ldr	r1, [r3, #8]
                        sClockSourceConfig->ClockPolarity,
 8004dc0:	683b      	ldr	r3, [r7, #0]
 8004dc2:	685a      	ldr	r2, [r3, #4]
                        sClockSourceConfig->ClockFilter);
 8004dc4:	683b      	ldr	r3, [r7, #0]
 8004dc6:	68db      	ldr	r3, [r3, #12]
      TIM_ETR_SetConfig(htim->Instance,
 8004dc8:	f000 faba 	bl	8005340 <TIM_ETR_SetConfig>

      /* Select the External clock mode1 and the ETRF trigger */
      tmpsmcr = htim->Instance->SMCR;
 8004dcc:	687b      	ldr	r3, [r7, #4]
 8004dce:	681b      	ldr	r3, [r3, #0]
 8004dd0:	689b      	ldr	r3, [r3, #8]
 8004dd2:	60bb      	str	r3, [r7, #8]
      tmpsmcr |= (TIM_SLAVEMODE_EXTERNAL1 | TIM_CLOCKSOURCE_ETRMODE1);
 8004dd4:	68bb      	ldr	r3, [r7, #8]
 8004dd6:	f043 0377 	orr.w	r3, r3, #119	@ 0x77
 8004dda:	60bb      	str	r3, [r7, #8]
      /* Write to TIMx SMCR */
      htim->Instance->SMCR = tmpsmcr;
 8004ddc:	687b      	ldr	r3, [r7, #4]
 8004dde:	681b      	ldr	r3, [r3, #0]
 8004de0:	68ba      	ldr	r2, [r7, #8]
 8004de2:	609a      	str	r2, [r3, #8]
      break;
 8004de4:	e04f      	b.n	8004e86 <HAL_TIM_ConfigClockSource+0x174>
      assert_param(IS_TIM_CLOCKPRESCALER(sClockSourceConfig->ClockPrescaler));
      assert_param(IS_TIM_CLOCKPOLARITY(sClockSourceConfig->ClockPolarity));
      assert_param(IS_TIM_CLOCKFILTER(sClockSourceConfig->ClockFilter));

      /* Configure the ETR Clock source */
      TIM_ETR_SetConfig(htim->Instance,
 8004de6:	687b      	ldr	r3, [r7, #4]
 8004de8:	6818      	ldr	r0, [r3, #0]
                        sClockSourceConfig->ClockPrescaler,
 8004dea:	683b      	ldr	r3, [r7, #0]
 8004dec:	6899      	ldr	r1, [r3, #8]
                        sClockSourceConfig->ClockPolarity,
 8004dee:	683b      	ldr	r3, [r7, #0]
 8004df0:	685a      	ldr	r2, [r3, #4]
                        sClockSourceConfig->ClockFilter);
 8004df2:	683b      	ldr	r3, [r7, #0]
 8004df4:	68db      	ldr	r3, [r3, #12]
      TIM_ETR_SetConfig(htim->Instance,
 8004df6:	f000 faa3 	bl	8005340 <TIM_ETR_SetConfig>
      /* Enable the External clock mode2 */
      htim->Instance->SMCR |= TIM_SMCR_ECE;
 8004dfa:	687b      	ldr	r3, [r7, #4]
 8004dfc:	681b      	ldr	r3, [r3, #0]
 8004dfe:	689a      	ldr	r2, [r3, #8]
 8004e00:	687b      	ldr	r3, [r7, #4]
 8004e02:	681b      	ldr	r3, [r3, #0]
 8004e04:	f442 4280 	orr.w	r2, r2, #16384	@ 0x4000
 8004e08:	609a      	str	r2, [r3, #8]
      break;
 8004e0a:	e03c      	b.n	8004e86 <HAL_TIM_ConfigClockSource+0x174>

      /* Check TI1 input conditioning related parameters */
      assert_param(IS_TIM_CLOCKPOLARITY(sClockSourceConfig->ClockPolarity));
      assert_param(IS_TIM_CLOCKFILTER(sClockSourceConfig->ClockFilter));

      TIM_TI1_ConfigInputStage(htim->Instance,
 8004e0c:	687b      	ldr	r3, [r7, #4]
 8004e0e:	6818      	ldr	r0, [r3, #0]
                               sClockSourceConfig->ClockPolarity,
 8004e10:	683b      	ldr	r3, [r7, #0]
 8004e12:	6859      	ldr	r1, [r3, #4]
                               sClockSourceConfig->ClockFilter);
 8004e14:	683b      	ldr	r3, [r7, #0]
 8004e16:	68db      	ldr	r3, [r3, #12]
      TIM_TI1_ConfigInputStage(htim->Instance,
 8004e18:	461a      	mov	r2, r3
 8004e1a:	f000 f961 	bl	80050e0 <TIM_TI1_ConfigInputStage>
      TIM_ITRx_SetConfig(htim->Instance, TIM_CLOCKSOURCE_TI1);
 8004e1e:	687b      	ldr	r3, [r7, #4]
 8004e20:	681b      	ldr	r3, [r3, #0]
 8004e22:	2150      	movs	r1, #80	@ 0x50
 8004e24:	4618      	mov	r0, r3
 8004e26:	f000 fa70 	bl	800530a <TIM_ITRx_SetConfig>
      break;
 8004e2a:	e02c      	b.n	8004e86 <HAL_TIM_ConfigClockSource+0x174>

      /* Check TI2 input conditioning related parameters */
      assert_param(IS_TIM_CLOCKPOLARITY(sClockSourceConfig->ClockPolarity));
      assert_param(IS_TIM_CLOCKFILTER(sClockSourceConfig->ClockFilter));

      TIM_TI2_ConfigInputStage(htim->Instance,
 8004e2c:	687b      	ldr	r3, [r7, #4]
 8004e2e:	6818      	ldr	r0, [r3, #0]
                               sClockSourceConfig->ClockPolarity,
 8004e30:	683b      	ldr	r3, [r7, #0]
 8004e32:	6859      	ldr	r1, [r3, #4]
                               sClockSourceConfig->ClockFilter);
 8004e34:	683b      	ldr	r3, [r7, #0]
 8004e36:	68db      	ldr	r3, [r3, #12]
      TIM_TI2_ConfigInputStage(htim->Instance,
 8004e38:	461a      	mov	r2, r3
 8004e3a:	f000 f9bd 	bl	80051b8 <TIM_TI2_ConfigInputStage>
      TIM_ITRx_SetConfig(htim->Instance, TIM_CLOCKSOURCE_TI2);
 8004e3e:	687b      	ldr	r3, [r7, #4]
 8004e40:	681b      	ldr	r3, [r3, #0]
 8004e42:	2160      	movs	r1, #96	@ 0x60
 8004e44:	4618      	mov	r0, r3
 8004e46:	f000 fa60 	bl	800530a <TIM_ITRx_SetConfig>
      break;
 8004e4a:	e01c      	b.n	8004e86 <HAL_TIM_ConfigClockSource+0x174>

      /* Check TI1 input conditioning related parameters */
      assert_param(IS_TIM_CLOCKPOLARITY(sClockSourceConfig->ClockPolarity));
      assert_param(IS_TIM_CLOCKFILTER(sClockSourceConfig->ClockFilter));

      TIM_TI1_ConfigInputStage(htim->Instance,
 8004e4c:	687b      	ldr	r3, [r7, #4]
 8004e4e:	6818      	ldr	r0, [r3, #0]
                               sClockSourceConfig->ClockPolarity,
 8004e50:	683b      	ldr	r3, [r7, #0]
 8004e52:	6859      	ldr	r1, [r3, #4]
                               sClockSourceConfig->ClockFilter);
 8004e54:	683b      	ldr	r3, [r7, #0]
 8004e56:	68db      	ldr	r3, [r3, #12]
      TIM_TI1_ConfigInputStage(htim->Instance,
 8004e58:	461a      	mov	r2, r3
 8004e5a:	f000 f941 	bl	80050e0 <TIM_TI1_ConfigInputStage>
      TIM_ITRx_SetConfig(htim->Instance, TIM_CLOCKSOURCE_TI1ED);
 8004e5e:	687b      	ldr	r3, [r7, #4]
 8004e60:	681b      	ldr	r3, [r3, #0]
 8004e62:	2140      	movs	r1, #64	@ 0x40
 8004e64:	4618      	mov	r0, r3
 8004e66:	f000 fa50 	bl	800530a <TIM_ITRx_SetConfig>
      break;
 8004e6a:	e00c      	b.n	8004e86 <HAL_TIM_ConfigClockSource+0x174>
    case TIM_CLOCKSOURCE_ITR3:
    {
      /* Check whether or not the timer instance supports internal trigger input */
      assert_param(IS_TIM_CLOCKSOURCE_ITRX_INSTANCE(htim->Instance));

      TIM_ITRx_SetConfig(htim->Instance, sClockSourceConfig->ClockSource);
 8004e6c:	687b      	ldr	r3, [r7, #4]
 8004e6e:	681a      	ldr	r2, [r3, #0]
 8004e70:	683b      	ldr	r3, [r7, #0]
 8004e72:	681b      	ldr	r3, [r3, #0]
 8004e74:	4619      	mov	r1, r3
 8004e76:	4610      	mov	r0, r2
 8004e78:	f000 fa47 	bl	800530a <TIM_ITRx_SetConfig>
      break;
 8004e7c:	e003      	b.n	8004e86 <HAL_TIM_ConfigClockSource+0x174>
    }

    default:
      status = HAL_ERROR;
 8004e7e:	2301      	movs	r3, #1
 8004e80:	73fb      	strb	r3, [r7, #15]
      break;
 8004e82:	e000      	b.n	8004e86 <HAL_TIM_ConfigClockSource+0x174>
      break;
 8004e84:	bf00      	nop
  }
  htim->State = HAL_TIM_STATE_READY;
 8004e86:	687b      	ldr	r3, [r7, #4]
 8004e88:	2201      	movs	r2, #1
 8004e8a:	f883 203d 	strb.w	r2, [r3, #61]	@ 0x3d

  __HAL_UNLOCK(htim);
 8004e8e:	687b      	ldr	r3, [r7, #4]
 8004e90:	2200      	movs	r2, #0
 8004e92:	f883 203c 	strb.w	r2, [r3, #60]	@ 0x3c

  return status;
 8004e96:	7bfb      	ldrb	r3, [r7, #15]
}
 8004e98:	4618      	mov	r0, r3
 8004e9a:	3710      	adds	r7, #16
 8004e9c:	46bd      	mov	sp, r7
 8004e9e:	bd80      	pop	{r7, pc}

08004ea0 <HAL_TIM_PeriodElapsedCallback>:
  * @brief  Period elapsed callback in non-blocking mode
  * @param  htim TIM handle
  * @retval None
  */
__weak void HAL_TIM_PeriodElapsedCallback(TIM_HandleTypeDef *htim)
{
 8004ea0:	b480      	push	{r7}
 8004ea2:	b083      	sub	sp, #12
 8004ea4:	af00      	add	r7, sp, #0
 8004ea6:	6078      	str	r0, [r7, #4]
  UNUSED(htim);

  /* NOTE : This function should not be modified, when the callback is needed,
            the HAL_TIM_PeriodElapsedCallback could be implemented in the user file
   */
}
 8004ea8:	bf00      	nop
 8004eaa:	370c      	adds	r7, #12
 8004eac:	46bd      	mov	sp, r7
 8004eae:	f85d 7b04 	ldr.w	r7, [sp], #4
 8004eb2:	4770      	bx	lr

08004eb4 <HAL_TIM_OC_DelayElapsedCallback>:
  * @brief  Output Compare callback in non-blocking mode
  * @param  htim TIM OC handle
  * @retval None
  */
__weak void HAL_TIM_OC_DelayElapsedCallback(TIM_HandleTypeDef *htim)
{
 8004eb4:	b480      	push	{r7}
 8004eb6:	b083      	sub	sp, #12
 8004eb8:	af00      	add	r7, sp, #0
 8004eba:	6078      	str	r0, [r7, #4]
  UNUSED(htim);

  /* NOTE : This function should not be modified, when the callback is needed,
            the HAL_TIM_OC_DelayElapsedCallback could be implemented in the user file
   */
}
 8004ebc:	bf00      	nop
 8004ebe:	370c      	adds	r7, #12
 8004ec0:	46bd      	mov	sp, r7
 8004ec2:	f85d 7b04 	ldr.w	r7, [sp], #4
 8004ec6:	4770      	bx	lr

08004ec8 <HAL_TIM_IC_CaptureCallback>:
  * @brief  Input Capture callback in non-blocking mode
  * @param  htim TIM IC handle
  * @retval None
  */
__weak void HAL_TIM_IC_CaptureCallback(TIM_HandleTypeDef *htim)
{
 8004ec8:	b480      	push	{r7}
 8004eca:	b083      	sub	sp, #12
 8004ecc:	af00      	add	r7, sp, #0
 8004ece:	6078      	str	r0, [r7, #4]
  UNUSED(htim);

  /* NOTE : This function should not be modified, when the callback is needed,
            the HAL_TIM_IC_CaptureCallback could be implemented in the user file
   */
}
 8004ed0:	bf00      	nop
 8004ed2:	370c      	adds	r7, #12
 8004ed4:	46bd      	mov	sp, r7
 8004ed6:	f85d 7b04 	ldr.w	r7, [sp], #4
 8004eda:	4770      	bx	lr

08004edc <HAL_TIM_PWM_PulseFinishedCallback>:
  * @brief  PWM Pulse finished callback in non-blocking mode
  * @param  htim TIM handle
  * @retval None
  */
__weak void HAL_TIM_PWM_PulseFinishedCallback(TIM_HandleTypeDef *htim)
{
 8004edc:	b480      	push	{r7}
 8004ede:	b083      	sub	sp, #12
 8004ee0:	af00      	add	r7, sp, #0
 8004ee2:	6078      	str	r0, [r7, #4]
  UNUSED(htim);

  /* NOTE : This function should not be modified, when the callback is needed,
            the HAL_TIM_PWM_PulseFinishedCallback could be implemented in the user file
   */
}
 8004ee4:	bf00      	nop
 8004ee6:	370c      	adds	r7, #12
 8004ee8:	46bd      	mov	sp, r7
 8004eea:	f85d 7b04 	ldr.w	r7, [sp], #4
 8004eee:	4770      	bx	lr

08004ef0 <HAL_TIM_TriggerCallback>:
  * @brief  Hall Trigger detection callback in non-blocking mode
  * @param  htim TIM handle
  * @retval None
  */
__weak void HAL_TIM_TriggerCallback(TIM_HandleTypeDef *htim)
{
 8004ef0:	b480      	push	{r7}
 8004ef2:	b083      	sub	sp, #12
 8004ef4:	af00      	add	r7, sp, #0
 8004ef6:	6078      	str	r0, [r7, #4]
  UNUSED(htim);

  /* NOTE : This function should not be modified, when the callback is needed,
            the HAL_TIM_TriggerCallback could be implemented in the user file
   */
}
 8004ef8:	bf00      	nop
 8004efa:	370c      	adds	r7, #12
 8004efc:	46bd      	mov	sp, r7
 8004efe:	f85d 7b04 	ldr.w	r7, [sp], #4
 8004f02:	4770      	bx	lr

08004f04 <TIM_Base_SetConfig>:
  * @param  TIMx TIM peripheral
  * @param  Structure TIM Base configuration structure
  * @retval None
  */
void TIM_Base_SetConfig(TIM_TypeDef *TIMx, const TIM_Base_InitTypeDef *Structure)
{
 8004f04:	b480      	push	{r7}
 8004f06:	b085      	sub	sp, #20
 8004f08:	af00      	add	r7, sp, #0
 8004f0a:	6078      	str	r0, [r7, #4]
 8004f0c:	6039      	str	r1, [r7, #0]
  uint32_t tmpcr1;
  tmpcr1 = TIMx->CR1;
 8004f0e:	687b      	ldr	r3, [r7, #4]
 8004f10:	681b      	ldr	r3, [r3, #0]
 8004f12:	60fb      	str	r3, [r7, #12]

  /* Set TIM Time Base Unit parameters ---------------------------------------*/
  if (IS_TIM_COUNTER_MODE_SELECT_INSTANCE(TIMx))
 8004f14:	687b      	ldr	r3, [r7, #4]
 8004f16:	4a37      	ldr	r2, [pc, #220]	@ (8004ff4 <TIM_Base_SetConfig+0xf0>)
 8004f18:	4293      	cmp	r3, r2
 8004f1a:	d00f      	beq.n	8004f3c <TIM_Base_SetConfig+0x38>
 8004f1c:	687b      	ldr	r3, [r7, #4]
 8004f1e:	f1b3 4f80 	cmp.w	r3, #1073741824	@ 0x40000000
 8004f22:	d00b      	beq.n	8004f3c <TIM_Base_SetConfig+0x38>
 8004f24:	687b      	ldr	r3, [r7, #4]
 8004f26:	4a34      	ldr	r2, [pc, #208]	@ (8004ff8 <TIM_Base_SetConfig+0xf4>)
 8004f28:	4293      	cmp	r3, r2
 8004f2a:	d007      	beq.n	8004f3c <TIM_Base_SetConfig+0x38>
 8004f2c:	687b      	ldr	r3, [r7, #4]
 8004f2e:	4a33      	ldr	r2, [pc, #204]	@ (8004ffc <TIM_Base_SetConfig+0xf8>)
 8004f30:	4293      	cmp	r3, r2
 8004f32:	d003      	beq.n	8004f3c <TIM_Base_SetConfig+0x38>
 8004f34:	687b      	ldr	r3, [r7, #4]
 8004f36:	4a32      	ldr	r2, [pc, #200]	@ (8005000 <TIM_Base_SetConfig+0xfc>)
 8004f38:	4293      	cmp	r3, r2
 8004f3a:	d108      	bne.n	8004f4e <TIM_Base_SetConfig+0x4a>
  {
    /* Select the Counter Mode */
    tmpcr1 &= ~(TIM_CR1_DIR | TIM_CR1_CMS);
 8004f3c:	68fb      	ldr	r3, [r7, #12]
 8004f3e:	f023 0370 	bic.w	r3, r3, #112	@ 0x70
 8004f42:	60fb      	str	r3, [r7, #12]
    tmpcr1 |= Structure->CounterMode;
 8004f44:	683b      	ldr	r3, [r7, #0]
 8004f46:	685b      	ldr	r3, [r3, #4]
 8004f48:	68fa      	ldr	r2, [r7, #12]
 8004f4a:	4313      	orrs	r3, r2
 8004f4c:	60fb      	str	r3, [r7, #12]
  }

  if (IS_TIM_CLOCK_DIVISION_INSTANCE(TIMx))
 8004f4e:	687b      	ldr	r3, [r7, #4]
 8004f50:	4a28      	ldr	r2, [pc, #160]	@ (8004ff4 <TIM_Base_SetConfig+0xf0>)
 8004f52:	4293      	cmp	r3, r2
 8004f54:	d01b      	beq.n	8004f8e <TIM_Base_SetConfig+0x8a>
 8004f56:	687b      	ldr	r3, [r7, #4]
 8004f58:	f1b3 4f80 	cmp.w	r3, #1073741824	@ 0x40000000
 8004f5c:	d017      	beq.n	8004f8e <TIM_Base_SetConfig+0x8a>
 8004f5e:	687b      	ldr	r3, [r7, #4]
 8004f60:	4a25      	ldr	r2, [pc, #148]	@ (8004ff8 <TIM_Base_SetConfig+0xf4>)
 8004f62:	4293      	cmp	r3, r2
 8004f64:	d013      	beq.n	8004f8e <TIM_Base_SetConfig+0x8a>
 8004f66:	687b      	ldr	r3, [r7, #4]
 8004f68:	4a24      	ldr	r2, [pc, #144]	@ (8004ffc <TIM_Base_SetConfig+0xf8>)
 8004f6a:	4293      	cmp	r3, r2
 8004f6c:	d00f      	beq.n	8004f8e <TIM_Base_SetConfig+0x8a>
 8004f6e:	687b      	ldr	r3, [r7, #4]
 8004f70:	4a23      	ldr	r2, [pc, #140]	@ (8005000 <TIM_Base_SetConfig+0xfc>)
 8004f72:	4293      	cmp	r3, r2
 8004f74:	d00b      	beq.n	8004f8e <TIM_Base_SetConfig+0x8a>
 8004f76:	687b      	ldr	r3, [r7, #4]
 8004f78:	4a22      	ldr	r2, [pc, #136]	@ (8005004 <TIM_Base_SetConfig+0x100>)
 8004f7a:	4293      	cmp	r3, r2
 8004f7c:	d007      	beq.n	8004f8e <TIM_Base_SetConfig+0x8a>
 8004f7e:	687b      	ldr	r3, [r7, #4]
 8004f80:	4a21      	ldr	r2, [pc, #132]	@ (8005008 <TIM_Base_SetConfig+0x104>)
 8004f82:	4293      	cmp	r3, r2
 8004f84:	d003      	beq.n	8004f8e <TIM_Base_SetConfig+0x8a>
 8004f86:	687b      	ldr	r3, [r7, #4]
 8004f88:	4a20      	ldr	r2, [pc, #128]	@ (800500c <TIM_Base_SetConfig+0x108>)
 8004f8a:	4293      	cmp	r3, r2
 8004f8c:	d108      	bne.n	8004fa0 <TIM_Base_SetConfig+0x9c>
  {
    /* Set the clock division */
    tmpcr1 &= ~TIM_CR1_CKD;
 8004f8e:	68fb      	ldr	r3, [r7, #12]
 8004f90:	f423 7340 	bic.w	r3, r3, #768	@ 0x300
 8004f94:	60fb      	str	r3, [r7, #12]
    tmpcr1 |= (uint32_t)Structure->ClockDivision;
 8004f96:	683b      	ldr	r3, [r7, #0]
 8004f98:	68db      	ldr	r3, [r3, #12]
 8004f9a:	68fa      	ldr	r2, [r7, #12]
 8004f9c:	4313      	orrs	r3, r2
 8004f9e:	60fb      	str	r3, [r7, #12]
  }

  /* Set the auto-reload preload */
  MODIFY_REG(tmpcr1, TIM_CR1_ARPE, Structure->AutoReloadPreload);
 8004fa0:	68fb      	ldr	r3, [r7, #12]
 8004fa2:	f023 0280 	bic.w	r2, r3, #128	@ 0x80
 8004fa6:	683b      	ldr	r3, [r7, #0]
 8004fa8:	695b      	ldr	r3, [r3, #20]
 8004faa:	4313      	orrs	r3, r2
 8004fac:	60fb      	str	r3, [r7, #12]

  /* Set the Autoreload value */
  TIMx->ARR = (uint32_t)Structure->Period ;
 8004fae:	683b      	ldr	r3, [r7, #0]
 8004fb0:	689a      	ldr	r2, [r3, #8]
 8004fb2:	687b      	ldr	r3, [r7, #4]
 8004fb4:	62da      	str	r2, [r3, #44]	@ 0x2c

  /* Set the Prescaler value */
  TIMx->PSC = Structure->Prescaler;
 8004fb6:	683b      	ldr	r3, [r7, #0]
 8004fb8:	681a      	ldr	r2, [r3, #0]
 8004fba:	687b      	ldr	r3, [r7, #4]
 8004fbc:	629a      	str	r2, [r3, #40]	@ 0x28

  if (IS_TIM_REPETITION_COUNTER_INSTANCE(TIMx))
 8004fbe:	687b      	ldr	r3, [r7, #4]
 8004fc0:	4a0c      	ldr	r2, [pc, #48]	@ (8004ff4 <TIM_Base_SetConfig+0xf0>)
 8004fc2:	4293      	cmp	r3, r2
 8004fc4:	d103      	bne.n	8004fce <TIM_Base_SetConfig+0xca>
  {
    /* Set the Repetition Counter value */
    TIMx->RCR = Structure->RepetitionCounter;
 8004fc6:	683b      	ldr	r3, [r7, #0]
 8004fc8:	691a      	ldr	r2, [r3, #16]
 8004fca:	687b      	ldr	r3, [r7, #4]
 8004fcc:	631a      	str	r2, [r3, #48]	@ 0x30
  }

  /* Disable Update Event (UEV) with Update Generation (UG)
     by changing Update Request Source (URS) to avoid Update flag (UIF) */
  SET_BIT(TIMx->CR1, TIM_CR1_URS);
 8004fce:	687b      	ldr	r3, [r7, #4]
 8004fd0:	681b      	ldr	r3, [r3, #0]
 8004fd2:	f043 0204 	orr.w	r2, r3, #4
 8004fd6:	687b      	ldr	r3, [r7, #4]
 8004fd8:	601a      	str	r2, [r3, #0]

  /* Generate an update event to reload the Prescaler
     and the repetition counter (only for advanced timer) value immediately */
  TIMx->EGR = TIM_EGR_UG;
 8004fda:	687b      	ldr	r3, [r7, #4]
 8004fdc:	2201      	movs	r2, #1
 8004fde:	615a      	str	r2, [r3, #20]

  TIMx->CR1 = tmpcr1;
 8004fe0:	687b      	ldr	r3, [r7, #4]
 8004fe2:	68fa      	ldr	r2, [r7, #12]
 8004fe4:	601a      	str	r2, [r3, #0]
}
 8004fe6:	bf00      	nop
 8004fe8:	3714      	adds	r7, #20
 8004fea:	46bd      	mov	sp, r7
 8004fec:	f85d 7b04 	ldr.w	r7, [sp], #4
 8004ff0:	4770      	bx	lr
 8004ff2:	bf00      	nop
 8004ff4:	40010000 	.word	0x40010000
 8004ff8:	40000400 	.word	0x40000400
 8004ffc:	40000800 	.word	0x40000800
 8005000:	40000c00 	.word	0x40000c00
 8005004:	40014000 	.word	0x40014000
 8005008:	40014400 	.word	0x40014400
 800500c:	40014800 	.word	0x40014800

08005010 <TIM_TI1_SetConfig>:
  *       (on channel2 path) is used as the input signal. Therefore CCMR1 must be
  *        protected against un-initialized filter and polarity values.
  */
void TIM_TI1_SetConfig(TIM_TypeDef *TIMx, uint32_t TIM_ICPolarity, uint32_t TIM_ICSelection,
                       uint32_t TIM_ICFilter)
{
 8005010:	b480      	push	{r7}
 8005012:	b087      	sub	sp, #28
 8005014:	af00      	add	r7, sp, #0
 8005016:	60f8      	str	r0, [r7, #12]
 8005018:	60b9      	str	r1, [r7, #8]
 800501a:	607a      	str	r2, [r7, #4]
 800501c:	603b      	str	r3, [r7, #0]
  uint32_t tmpccmr1;
  uint32_t tmpccer;

  /* Disable the Channel 1: Reset the CC1E Bit */
  tmpccer = TIMx->CCER;
 800501e:	68fb      	ldr	r3, [r7, #12]
 8005020:	6a1b      	ldr	r3, [r3, #32]
 8005022:	613b      	str	r3, [r7, #16]
  TIMx->CCER &= ~TIM_CCER_CC1E;
 8005024:	68fb      	ldr	r3, [r7, #12]
 8005026:	6a1b      	ldr	r3, [r3, #32]
 8005028:	f023 0201 	bic.w	r2, r3, #1
 800502c:	68fb      	ldr	r3, [r7, #12]
 800502e:	621a      	str	r2, [r3, #32]
  tmpccmr1 = TIMx->CCMR1;
 8005030:	68fb      	ldr	r3, [r7, #12]
 8005032:	699b      	ldr	r3, [r3, #24]
 8005034:	617b      	str	r3, [r7, #20]

  /* Select the Input */
  if (IS_TIM_CC2_INSTANCE(TIMx) != RESET)
 8005036:	68fb      	ldr	r3, [r7, #12]
 8005038:	4a24      	ldr	r2, [pc, #144]	@ (80050cc <TIM_TI1_SetConfig+0xbc>)
 800503a:	4293      	cmp	r3, r2
 800503c:	d013      	beq.n	8005066 <TIM_TI1_SetConfig+0x56>
 800503e:	68fb      	ldr	r3, [r7, #12]
 8005040:	f1b3 4f80 	cmp.w	r3, #1073741824	@ 0x40000000
 8005044:	d00f      	beq.n	8005066 <TIM_TI1_SetConfig+0x56>
 8005046:	68fb      	ldr	r3, [r7, #12]
 8005048:	4a21      	ldr	r2, [pc, #132]	@ (80050d0 <TIM_TI1_SetConfig+0xc0>)
 800504a:	4293      	cmp	r3, r2
 800504c:	d00b      	beq.n	8005066 <TIM_TI1_SetConfig+0x56>
 800504e:	68fb      	ldr	r3, [r7, #12]
 8005050:	4a20      	ldr	r2, [pc, #128]	@ (80050d4 <TIM_TI1_SetConfig+0xc4>)
 8005052:	4293      	cmp	r3, r2
 8005054:	d007      	beq.n	8005066 <TIM_TI1_SetConfig+0x56>
 8005056:	68fb      	ldr	r3, [r7, #12]
 8005058:	4a1f      	ldr	r2, [pc, #124]	@ (80050d8 <TIM_TI1_SetConfig+0xc8>)
 800505a:	4293      	cmp	r3, r2
 800505c:	d003      	beq.n	8005066 <TIM_TI1_SetConfig+0x56>
 800505e:	68fb      	ldr	r3, [r7, #12]
 8005060:	4a1e      	ldr	r2, [pc, #120]	@ (80050dc <TIM_TI1_SetConfig+0xcc>)
 8005062:	4293      	cmp	r3, r2
 8005064:	d101      	bne.n	800506a <TIM_TI1_SetConfig+0x5a>
 8005066:	2301      	movs	r3, #1
 8005068:	e000      	b.n	800506c <TIM_TI1_SetConfig+0x5c>
 800506a:	2300      	movs	r3, #0
 800506c:	2b00      	cmp	r3, #0
 800506e:	d008      	beq.n	8005082 <TIM_TI1_SetConfig+0x72>
  {
    tmpccmr1 &= ~TIM_CCMR1_CC1S;
 8005070:	697b      	ldr	r3, [r7, #20]
 8005072:	f023 0303 	bic.w	r3, r3, #3
 8005076:	617b      	str	r3, [r7, #20]
    tmpccmr1 |= TIM_ICSelection;
 8005078:	697a      	ldr	r2, [r7, #20]
 800507a:	687b      	ldr	r3, [r7, #4]
 800507c:	4313      	orrs	r3, r2
 800507e:	617b      	str	r3, [r7, #20]
 8005080:	e003      	b.n	800508a <TIM_TI1_SetConfig+0x7a>
  }
  else
  {
    tmpccmr1 |= TIM_CCMR1_CC1S_0;
 8005082:	697b      	ldr	r3, [r7, #20]
 8005084:	f043 0301 	orr.w	r3, r3, #1
 8005088:	617b      	str	r3, [r7, #20]
  }

  /* Set the filter */
  tmpccmr1 &= ~TIM_CCMR1_IC1F;
 800508a:	697b      	ldr	r3, [r7, #20]
 800508c:	f023 03f0 	bic.w	r3, r3, #240	@ 0xf0
 8005090:	617b      	str	r3, [r7, #20]
  tmpccmr1 |= ((TIM_ICFilter << 4U) & TIM_CCMR1_IC1F);
 8005092:	683b      	ldr	r3, [r7, #0]
 8005094:	011b      	lsls	r3, r3, #4
 8005096:	b2db      	uxtb	r3, r3
 8005098:	697a      	ldr	r2, [r7, #20]
 800509a:	4313      	orrs	r3, r2
 800509c:	617b      	str	r3, [r7, #20]

  /* Select the Polarity and set the CC1E Bit */
  tmpccer &= ~(TIM_CCER_CC1P | TIM_CCER_CC1NP);
 800509e:	693b      	ldr	r3, [r7, #16]
 80050a0:	f023 030a 	bic.w	r3, r3, #10
 80050a4:	613b      	str	r3, [r7, #16]
  tmpccer |= (TIM_ICPolarity & (TIM_CCER_CC1P | TIM_CCER_CC1NP));
 80050a6:	68bb      	ldr	r3, [r7, #8]
 80050a8:	f003 030a 	and.w	r3, r3, #10
 80050ac:	693a      	ldr	r2, [r7, #16]
 80050ae:	4313      	orrs	r3, r2
 80050b0:	613b      	str	r3, [r7, #16]

  /* Write to TIMx CCMR1 and CCER registers */
  TIMx->CCMR1 = tmpccmr1;
 80050b2:	68fb      	ldr	r3, [r7, #12]
 80050b4:	697a      	ldr	r2, [r7, #20]
 80050b6:	619a      	str	r2, [r3, #24]
  TIMx->CCER = tmpccer;
 80050b8:	68fb      	ldr	r3, [r7, #12]
 80050ba:	693a      	ldr	r2, [r7, #16]
 80050bc:	621a      	str	r2, [r3, #32]
}
 80050be:	bf00      	nop
 80050c0:	371c      	adds	r7, #28
 80050c2:	46bd      	mov	sp, r7
 80050c4:	f85d 7b04 	ldr.w	r7, [sp], #4
 80050c8:	4770      	bx	lr
 80050ca:	bf00      	nop
 80050cc:	40010000 	.word	0x40010000
 80050d0:	40000400 	.word	0x40000400
 80050d4:	40000800 	.word	0x40000800
 80050d8:	40000c00 	.word	0x40000c00
 80050dc:	40014000 	.word	0x40014000

080050e0 <TIM_TI1_ConfigInputStage>:
  * @param  TIM_ICFilter Specifies the Input Capture Filter.
  *          This parameter must be a value between 0x00 and 0x0F.
  * @retval None
  */
static void TIM_TI1_ConfigInputStage(TIM_TypeDef *TIMx, uint32_t TIM_ICPolarity, uint32_t TIM_ICFilter)
{
 80050e0:	b480      	push	{r7}
 80050e2:	b087      	sub	sp, #28
 80050e4:	af00      	add	r7, sp, #0
 80050e6:	60f8      	str	r0, [r7, #12]
 80050e8:	60b9      	str	r1, [r7, #8]
 80050ea:	607a      	str	r2, [r7, #4]
  uint32_t tmpccmr1;
  uint32_t tmpccer;

  /* Disable the Channel 1: Reset the CC1E Bit */
  tmpccer = TIMx->CCER;
 80050ec:	68fb      	ldr	r3, [r7, #12]
 80050ee:	6a1b      	ldr	r3, [r3, #32]
 80050f0:	617b      	str	r3, [r7, #20]
  TIMx->CCER &= ~TIM_CCER_CC1E;
 80050f2:	68fb      	ldr	r3, [r7, #12]
 80050f4:	6a1b      	ldr	r3, [r3, #32]
 80050f6:	f023 0201 	bic.w	r2, r3, #1
 80050fa:	68fb      	ldr	r3, [r7, #12]
 80050fc:	621a      	str	r2, [r3, #32]
  tmpccmr1 = TIMx->CCMR1;
 80050fe:	68fb      	ldr	r3, [r7, #12]
 8005100:	699b      	ldr	r3, [r3, #24]
 8005102:	613b      	str	r3, [r7, #16]

  /* Set the filter */
  tmpccmr1 &= ~TIM_CCMR1_IC1F;
 8005104:	693b      	ldr	r3, [r7, #16]
 8005106:	f023 03f0 	bic.w	r3, r3, #240	@ 0xf0
 800510a:	613b      	str	r3, [r7, #16]
  tmpccmr1 |= (TIM_ICFilter << 4U);
 800510c:	687b      	ldr	r3, [r7, #4]
 800510e:	011b      	lsls	r3, r3, #4
 8005110:	693a      	ldr	r2, [r7, #16]
 8005112:	4313      	orrs	r3, r2
 8005114:	613b      	str	r3, [r7, #16]

  /* Select the Polarity and set the CC1E Bit */
  tmpccer &= ~(TIM_CCER_CC1P | TIM_CCER_CC1NP);
 8005116:	697b      	ldr	r3, [r7, #20]
 8005118:	f023 030a 	bic.w	r3, r3, #10
 800511c:	617b      	str	r3, [r7, #20]
  tmpccer |= TIM_ICPolarity;
 800511e:	697a      	ldr	r2, [r7, #20]
 8005120:	68bb      	ldr	r3, [r7, #8]
 8005122:	4313      	orrs	r3, r2
 8005124:	617b      	str	r3, [r7, #20]

  /* Write to TIMx CCMR1 and CCER registers */
  TIMx->CCMR1 = tmpccmr1;
 8005126:	68fb      	ldr	r3, [r7, #12]
 8005128:	693a      	ldr	r2, [r7, #16]
 800512a:	619a      	str	r2, [r3, #24]
  TIMx->CCER = tmpccer;
 800512c:	68fb      	ldr	r3, [r7, #12]
 800512e:	697a      	ldr	r2, [r7, #20]
 8005130:	621a      	str	r2, [r3, #32]
}
 8005132:	bf00      	nop
 8005134:	371c      	adds	r7, #28
 8005136:	46bd      	mov	sp, r7
 8005138:	f85d 7b04 	ldr.w	r7, [sp], #4
 800513c:	4770      	bx	lr

0800513e <TIM_TI2_SetConfig>:
  *       (on channel1 path) is used as the input signal. Therefore CCMR1 must be
  *        protected against un-initialized filter and polarity values.
  */
static void TIM_TI2_SetConfig(TIM_TypeDef *TIMx, uint32_t TIM_ICPolarity, uint32_t TIM_ICSelection,
                              uint32_t TIM_ICFilter)
{
 800513e:	b480      	push	{r7}
 8005140:	b087      	sub	sp, #28
 8005142:	af00      	add	r7, sp, #0
 8005144:	60f8      	str	r0, [r7, #12]
 8005146:	60b9      	str	r1, [r7, #8]
 8005148:	607a      	str	r2, [r7, #4]
 800514a:	603b      	str	r3, [r7, #0]
  uint32_t tmpccmr1;
  uint32_t tmpccer;

  /* Disable the Channel 2: Reset the CC2E Bit */
  tmpccer = TIMx->CCER;
 800514c:	68fb      	ldr	r3, [r7, #12]
 800514e:	6a1b      	ldr	r3, [r3, #32]
 8005150:	617b      	str	r3, [r7, #20]
  TIMx->CCER &= ~TIM_CCER_CC2E;
 8005152:	68fb      	ldr	r3, [r7, #12]
 8005154:	6a1b      	ldr	r3, [r3, #32]
 8005156:	f023 0210 	bic.w	r2, r3, #16
 800515a:	68fb      	ldr	r3, [r7, #12]
 800515c:	621a      	str	r2, [r3, #32]
  tmpccmr1 = TIMx->CCMR1;
 800515e:	68fb      	ldr	r3, [r7, #12]
 8005160:	699b      	ldr	r3, [r3, #24]
 8005162:	613b      	str	r3, [r7, #16]

  /* Select the Input */
  tmpccmr1 &= ~TIM_CCMR1_CC2S;
 8005164:	693b      	ldr	r3, [r7, #16]
 8005166:	f423 7340 	bic.w	r3, r3, #768	@ 0x300
 800516a:	613b      	str	r3, [r7, #16]
  tmpccmr1 |= (TIM_ICSelection << 8U);
 800516c:	687b      	ldr	r3, [r7, #4]
 800516e:	021b      	lsls	r3, r3, #8
 8005170:	693a      	ldr	r2, [r7, #16]
 8005172:	4313      	orrs	r3, r2
 8005174:	613b      	str	r3, [r7, #16]

  /* Set the filter */
  tmpccmr1 &= ~TIM_CCMR1_IC2F;
 8005176:	693b      	ldr	r3, [r7, #16]
 8005178:	f423 4370 	bic.w	r3, r3, #61440	@ 0xf000
 800517c:	613b      	str	r3, [r7, #16]
  tmpccmr1 |= ((TIM_ICFilter << 12U) & TIM_CCMR1_IC2F);
 800517e:	683b      	ldr	r3, [r7, #0]
 8005180:	031b      	lsls	r3, r3, #12
 8005182:	b29b      	uxth	r3, r3
 8005184:	693a      	ldr	r2, [r7, #16]
 8005186:	4313      	orrs	r3, r2
 8005188:	613b      	str	r3, [r7, #16]

  /* Select the Polarity and set the CC2E Bit */
  tmpccer &= ~(TIM_CCER_CC2P | TIM_CCER_CC2NP);
 800518a:	697b      	ldr	r3, [r7, #20]
 800518c:	f023 03a0 	bic.w	r3, r3, #160	@ 0xa0
 8005190:	617b      	str	r3, [r7, #20]
  tmpccer |= ((TIM_ICPolarity << 4U) & (TIM_CCER_CC2P | TIM_CCER_CC2NP));
 8005192:	68bb      	ldr	r3, [r7, #8]
 8005194:	011b      	lsls	r3, r3, #4
 8005196:	f003 03a0 	and.w	r3, r3, #160	@ 0xa0
 800519a:	697a      	ldr	r2, [r7, #20]
 800519c:	4313      	orrs	r3, r2
 800519e:	617b      	str	r3, [r7, #20]

  /* Write to TIMx CCMR1 and CCER registers */
  TIMx->CCMR1 = tmpccmr1 ;
 80051a0:	68fb      	ldr	r3, [r7, #12]
 80051a2:	693a      	ldr	r2, [r7, #16]
 80051a4:	619a      	str	r2, [r3, #24]
  TIMx->CCER = tmpccer;
 80051a6:	68fb      	ldr	r3, [r7, #12]
 80051a8:	697a      	ldr	r2, [r7, #20]
 80051aa:	621a      	str	r2, [r3, #32]
}
 80051ac:	bf00      	nop
 80051ae:	371c      	adds	r7, #28
 80051b0:	46bd      	mov	sp, r7
 80051b2:	f85d 7b04 	ldr.w	r7, [sp], #4
 80051b6:	4770      	bx	lr

080051b8 <TIM_TI2_ConfigInputStage>:
  * @param  TIM_ICFilter Specifies the Input Capture Filter.
  *          This parameter must be a value between 0x00 and 0x0F.
  * @retval None
  */
static void TIM_TI2_ConfigInputStage(TIM_TypeDef *TIMx, uint32_t TIM_ICPolarity, uint32_t TIM_ICFilter)
{
 80051b8:	b480      	push	{r7}
 80051ba:	b087      	sub	sp, #28
 80051bc:	af00      	add	r7, sp, #0
 80051be:	60f8      	str	r0, [r7, #12]
 80051c0:	60b9      	str	r1, [r7, #8]
 80051c2:	607a      	str	r2, [r7, #4]
  uint32_t tmpccmr1;
  uint32_t tmpccer;

  /* Disable the Channel 2: Reset the CC2E Bit */
  tmpccer = TIMx->CCER;
 80051c4:	68fb      	ldr	r3, [r7, #12]
 80051c6:	6a1b      	ldr	r3, [r3, #32]
 80051c8:	617b      	str	r3, [r7, #20]
  TIMx->CCER &= ~TIM_CCER_CC2E;
 80051ca:	68fb      	ldr	r3, [r7, #12]
 80051cc:	6a1b      	ldr	r3, [r3, #32]
 80051ce:	f023 0210 	bic.w	r2, r3, #16
 80051d2:	68fb      	ldr	r3, [r7, #12]
 80051d4:	621a      	str	r2, [r3, #32]
  tmpccmr1 = TIMx->CCMR1;
 80051d6:	68fb      	ldr	r3, [r7, #12]
 80051d8:	699b      	ldr	r3, [r3, #24]
 80051da:	613b      	str	r3, [r7, #16]

  /* Set the filter */
  tmpccmr1 &= ~TIM_CCMR1_IC2F;
 80051dc:	693b      	ldr	r3, [r7, #16]
 80051de:	f423 4370 	bic.w	r3, r3, #61440	@ 0xf000
 80051e2:	613b      	str	r3, [r7, #16]
  tmpccmr1 |= (TIM_ICFilter << 12U);
 80051e4:	687b      	ldr	r3, [r7, #4]
 80051e6:	031b      	lsls	r3, r3, #12
 80051e8:	693a      	ldr	r2, [r7, #16]
 80051ea:	4313      	orrs	r3, r2
 80051ec:	613b      	str	r3, [r7, #16]

  /* Select the Polarity and set the CC2E Bit */
  tmpccer &= ~(TIM_CCER_CC2P | TIM_CCER_CC2NP);
 80051ee:	697b      	ldr	r3, [r7, #20]
 80051f0:	f023 03a0 	bic.w	r3, r3, #160	@ 0xa0
 80051f4:	617b      	str	r3, [r7, #20]
  tmpccer |= (TIM_ICPolarity << 4U);
 80051f6:	68bb      	ldr	r3, [r7, #8]
 80051f8:	011b      	lsls	r3, r3, #4
 80051fa:	697a      	ldr	r2, [r7, #20]
 80051fc:	4313      	orrs	r3, r2
 80051fe:	617b      	str	r3, [r7, #20]

  /* Write to TIMx CCMR1 and CCER registers */
  TIMx->CCMR1 = tmpccmr1 ;
 8005200:	68fb      	ldr	r3, [r7, #12]
 8005202:	693a      	ldr	r2, [r7, #16]
 8005204:	619a      	str	r2, [r3, #24]
  TIMx->CCER = tmpccer;
 8005206:	68fb      	ldr	r3, [r7, #12]
 8005208:	697a      	ldr	r2, [r7, #20]
 800520a:	621a      	str	r2, [r3, #32]
}
 800520c:	bf00      	nop
 800520e:	371c      	adds	r7, #28
 8005210:	46bd      	mov	sp, r7
 8005212:	f85d 7b04 	ldr.w	r7, [sp], #4
 8005216:	4770      	bx	lr

08005218 <TIM_TI3_SetConfig>:
  *       (on channel1 path) is used as the input signal. Therefore CCMR2 must be
  *        protected against un-initialized filter and polarity values.
  */
static void TIM_TI3_SetConfig(TIM_TypeDef *TIMx, uint32_t TIM_ICPolarity, uint32_t TIM_ICSelection,
                              uint32_t TIM_ICFilter)
{
 8005218:	b480      	push	{r7}
 800521a:	b087      	sub	sp, #28
 800521c:	af00      	add	r7, sp, #0
 800521e:	60f8      	str	r0, [r7, #12]
 8005220:	60b9      	str	r1, [r7, #8]
 8005222:	607a      	str	r2, [r7, #4]
 8005224:	603b      	str	r3, [r7, #0]
  uint32_t tmpccmr2;
  uint32_t tmpccer;

  /* Disable the Channel 3: Reset the CC3E Bit */
  tmpccer = TIMx->CCER;
 8005226:	68fb      	ldr	r3, [r7, #12]
 8005228:	6a1b      	ldr	r3, [r3, #32]
 800522a:	617b      	str	r3, [r7, #20]
  TIMx->CCER &= ~TIM_CCER_CC3E;
 800522c:	68fb      	ldr	r3, [r7, #12]
 800522e:	6a1b      	ldr	r3, [r3, #32]
 8005230:	f423 7280 	bic.w	r2, r3, #256	@ 0x100
 8005234:	68fb      	ldr	r3, [r7, #12]
 8005236:	621a      	str	r2, [r3, #32]
  tmpccmr2 = TIMx->CCMR2;
 8005238:	68fb      	ldr	r3, [r7, #12]
 800523a:	69db      	ldr	r3, [r3, #28]
 800523c:	613b      	str	r3, [r7, #16]

  /* Select the Input */
  tmpccmr2 &= ~TIM_CCMR2_CC3S;
 800523e:	693b      	ldr	r3, [r7, #16]
 8005240:	f023 0303 	bic.w	r3, r3, #3
 8005244:	613b      	str	r3, [r7, #16]
  tmpccmr2 |= TIM_ICSelection;
 8005246:	693a      	ldr	r2, [r7, #16]
 8005248:	687b      	ldr	r3, [r7, #4]
 800524a:	4313      	orrs	r3, r2
 800524c:	613b      	str	r3, [r7, #16]

  /* Set the filter */
  tmpccmr2 &= ~TIM_CCMR2_IC3F;
 800524e:	693b      	ldr	r3, [r7, #16]
 8005250:	f023 03f0 	bic.w	r3, r3, #240	@ 0xf0
 8005254:	613b      	str	r3, [r7, #16]
  tmpccmr2 |= ((TIM_ICFilter << 4U) & TIM_CCMR2_IC3F);
 8005256:	683b      	ldr	r3, [r7, #0]
 8005258:	011b      	lsls	r3, r3, #4
 800525a:	b2db      	uxtb	r3, r3
 800525c:	693a      	ldr	r2, [r7, #16]
 800525e:	4313      	orrs	r3, r2
 8005260:	613b      	str	r3, [r7, #16]

  /* Select the Polarity and set the CC3E Bit */
  tmpccer &= ~(TIM_CCER_CC3P | TIM_CCER_CC3NP);
 8005262:	697b      	ldr	r3, [r7, #20]
 8005264:	f423 6320 	bic.w	r3, r3, #2560	@ 0xa00
 8005268:	617b      	str	r3, [r7, #20]
  tmpccer |= ((TIM_ICPolarity << 8U) & (TIM_CCER_CC3P | TIM_CCER_CC3NP));
 800526a:	68bb      	ldr	r3, [r7, #8]
 800526c:	021b      	lsls	r3, r3, #8
 800526e:	f403 6320 	and.w	r3, r3, #2560	@ 0xa00
 8005272:	697a      	ldr	r2, [r7, #20]
 8005274:	4313      	orrs	r3, r2
 8005276:	617b      	str	r3, [r7, #20]

  /* Write to TIMx CCMR2 and CCER registers */
  TIMx->CCMR2 = tmpccmr2;
 8005278:	68fb      	ldr	r3, [r7, #12]
 800527a:	693a      	ldr	r2, [r7, #16]
 800527c:	61da      	str	r2, [r3, #28]
  TIMx->CCER = tmpccer;
 800527e:	68fb      	ldr	r3, [r7, #12]
 8005280:	697a      	ldr	r2, [r7, #20]
 8005282:	621a      	str	r2, [r3, #32]
}
 8005284:	bf00      	nop
 8005286:	371c      	adds	r7, #28
 8005288:	46bd      	mov	sp, r7
 800528a:	f85d 7b04 	ldr.w	r7, [sp], #4
 800528e:	4770      	bx	lr

08005290 <TIM_TI4_SetConfig>:
  *        protected against un-initialized filter and polarity values.
  * @retval None
  */
static void TIM_TI4_SetConfig(TIM_TypeDef *TIMx, uint32_t TIM_ICPolarity, uint32_t TIM_ICSelection,
                              uint32_t TIM_ICFilter)
{
 8005290:	b480      	push	{r7}
 8005292:	b087      	sub	sp, #28
 8005294:	af00      	add	r7, sp, #0
 8005296:	60f8      	str	r0, [r7, #12]
 8005298:	60b9      	str	r1, [r7, #8]
 800529a:	607a      	str	r2, [r7, #4]
 800529c:	603b      	str	r3, [r7, #0]
  uint32_t tmpccmr2;
  uint32_t tmpccer;

  /* Disable the Channel 4: Reset the CC4E Bit */
  tmpccer = TIMx->CCER;
 800529e:	68fb      	ldr	r3, [r7, #12]
 80052a0:	6a1b      	ldr	r3, [r3, #32]
 80052a2:	617b      	str	r3, [r7, #20]
  TIMx->CCER &= ~TIM_CCER_CC4E;
 80052a4:	68fb      	ldr	r3, [r7, #12]
 80052a6:	6a1b      	ldr	r3, [r3, #32]
 80052a8:	f423 5280 	bic.w	r2, r3, #4096	@ 0x1000
 80052ac:	68fb      	ldr	r3, [r7, #12]
 80052ae:	621a      	str	r2, [r3, #32]
  tmpccmr2 = TIMx->CCMR2;
 80052b0:	68fb      	ldr	r3, [r7, #12]
 80052b2:	69db      	ldr	r3, [r3, #28]
 80052b4:	613b      	str	r3, [r7, #16]

  /* Select the Input */
  tmpccmr2 &= ~TIM_CCMR2_CC4S;
 80052b6:	693b      	ldr	r3, [r7, #16]
 80052b8:	f423 7340 	bic.w	r3, r3, #768	@ 0x300
 80052bc:	613b      	str	r3, [r7, #16]
  tmpccmr2 |= (TIM_ICSelection << 8U);
 80052be:	687b      	ldr	r3, [r7, #4]
 80052c0:	021b      	lsls	r3, r3, #8
 80052c2:	693a      	ldr	r2, [r7, #16]
 80052c4:	4313      	orrs	r3, r2
 80052c6:	613b      	str	r3, [r7, #16]

  /* Set the filter */
  tmpccmr2 &= ~TIM_CCMR2_IC4F;
 80052c8:	693b      	ldr	r3, [r7, #16]
 80052ca:	f423 4370 	bic.w	r3, r3, #61440	@ 0xf000
 80052ce:	613b      	str	r3, [r7, #16]
  tmpccmr2 |= ((TIM_ICFilter << 12U) & TIM_CCMR2_IC4F);
 80052d0:	683b      	ldr	r3, [r7, #0]
 80052d2:	031b      	lsls	r3, r3, #12
 80052d4:	b29b      	uxth	r3, r3
 80052d6:	693a      	ldr	r2, [r7, #16]
 80052d8:	4313      	orrs	r3, r2
 80052da:	613b      	str	r3, [r7, #16]

  /* Select the Polarity and set the CC4E Bit */
  tmpccer &= ~(TIM_CCER_CC4P | TIM_CCER_CC4NP);
 80052dc:	697b      	ldr	r3, [r7, #20]
 80052de:	f423 4320 	bic.w	r3, r3, #40960	@ 0xa000
 80052e2:	617b      	str	r3, [r7, #20]
  tmpccer |= ((TIM_ICPolarity << 12U) & (TIM_CCER_CC4P | TIM_CCER_CC4NP));
 80052e4:	68bb      	ldr	r3, [r7, #8]
 80052e6:	031b      	lsls	r3, r3, #12
 80052e8:	f403 4320 	and.w	r3, r3, #40960	@ 0xa000
 80052ec:	697a      	ldr	r2, [r7, #20]
 80052ee:	4313      	orrs	r3, r2
 80052f0:	617b      	str	r3, [r7, #20]

  /* Write to TIMx CCMR2 and CCER registers */
  TIMx->CCMR2 = tmpccmr2;
 80052f2:	68fb      	ldr	r3, [r7, #12]
 80052f4:	693a      	ldr	r2, [r7, #16]
 80052f6:	61da      	str	r2, [r3, #28]
  TIMx->CCER = tmpccer ;
 80052f8:	68fb      	ldr	r3, [r7, #12]
 80052fa:	697a      	ldr	r2, [r7, #20]
 80052fc:	621a      	str	r2, [r3, #32]
}
 80052fe:	bf00      	nop
 8005300:	371c      	adds	r7, #28
 8005302:	46bd      	mov	sp, r7
 8005304:	f85d 7b04 	ldr.w	r7, [sp], #4
 8005308:	4770      	bx	lr

0800530a <TIM_ITRx_SetConfig>:
  *            @arg TIM_TS_TI2FP2: Filtered Timer Input 2
  *            @arg TIM_TS_ETRF: External Trigger input
  * @retval None
  */
static void TIM_ITRx_SetConfig(TIM_TypeDef *TIMx, uint32_t InputTriggerSource)
{
 800530a:	b480      	push	{r7}
 800530c:	b085      	sub	sp, #20
 800530e:	af00      	add	r7, sp, #0
 8005310:	6078      	str	r0, [r7, #4]
 8005312:	6039      	str	r1, [r7, #0]
  uint32_t tmpsmcr;

  /* Get the TIMx SMCR register value */
  tmpsmcr = TIMx->SMCR;
 8005314:	687b      	ldr	r3, [r7, #4]
 8005316:	689b      	ldr	r3, [r3, #8]
 8005318:	60fb      	str	r3, [r7, #12]
  /* Reset the TS Bits */
  tmpsmcr &= ~TIM_SMCR_TS;
 800531a:	68fb      	ldr	r3, [r7, #12]
 800531c:	f023 0370 	bic.w	r3, r3, #112	@ 0x70
 8005320:	60fb      	str	r3, [r7, #12]
  /* Set the Input Trigger source and the slave mode*/
  tmpsmcr |= (InputTriggerSource | TIM_SLAVEMODE_EXTERNAL1);
 8005322:	683a      	ldr	r2, [r7, #0]
 8005324:	68fb      	ldr	r3, [r7, #12]
 8005326:	4313      	orrs	r3, r2
 8005328:	f043 0307 	orr.w	r3, r3, #7
 800532c:	60fb      	str	r3, [r7, #12]
  /* Write to TIMx SMCR */
  TIMx->SMCR = tmpsmcr;
 800532e:	687b      	ldr	r3, [r7, #4]
 8005330:	68fa      	ldr	r2, [r7, #12]
 8005332:	609a      	str	r2, [r3, #8]
}
 8005334:	bf00      	nop
 8005336:	3714      	adds	r7, #20
 8005338:	46bd      	mov	sp, r7
 800533a:	f85d 7b04 	ldr.w	r7, [sp], #4
 800533e:	4770      	bx	lr

08005340 <TIM_ETR_SetConfig>:
  *          This parameter must be a value between 0x00 and 0x0F
  * @retval None
  */
void TIM_ETR_SetConfig(TIM_TypeDef *TIMx, uint32_t TIM_ExtTRGPrescaler,
                       uint32_t TIM_ExtTRGPolarity, uint32_t ExtTRGFilter)
{
 8005340:	b480      	push	{r7}
 8005342:	b087      	sub	sp, #28
 8005344:	af00      	add	r7, sp, #0
 8005346:	60f8      	str	r0, [r7, #12]
 8005348:	60b9      	str	r1, [r7, #8]
 800534a:	607a      	str	r2, [r7, #4]
 800534c:	603b      	str	r3, [r7, #0]
  uint32_t tmpsmcr;

  tmpsmcr = TIMx->SMCR;
 800534e:	68fb      	ldr	r3, [r7, #12]
 8005350:	689b      	ldr	r3, [r3, #8]
 8005352:	617b      	str	r3, [r7, #20]

  /* Reset the ETR Bits */
  tmpsmcr &= ~(TIM_SMCR_ETF | TIM_SMCR_ETPS | TIM_SMCR_ECE | TIM_SMCR_ETP);
 8005354:	697b      	ldr	r3, [r7, #20]
 8005356:	f423 437f 	bic.w	r3, r3, #65280	@ 0xff00
 800535a:	617b      	str	r3, [r7, #20]

  /* Set the Prescaler, the Filter value and the Polarity */
  tmpsmcr |= (uint32_t)(TIM_ExtTRGPrescaler | (TIM_ExtTRGPolarity | (ExtTRGFilter << 8U)));
 800535c:	683b      	ldr	r3, [r7, #0]
 800535e:	021a      	lsls	r2, r3, #8
 8005360:	687b      	ldr	r3, [r7, #4]
 8005362:	431a      	orrs	r2, r3
 8005364:	68bb      	ldr	r3, [r7, #8]
 8005366:	4313      	orrs	r3, r2
 8005368:	697a      	ldr	r2, [r7, #20]
 800536a:	4313      	orrs	r3, r2
 800536c:	617b      	str	r3, [r7, #20]

  /* Write to TIMx SMCR */
  TIMx->SMCR = tmpsmcr;
 800536e:	68fb      	ldr	r3, [r7, #12]
 8005370:	697a      	ldr	r2, [r7, #20]
 8005372:	609a      	str	r2, [r3, #8]
}
 8005374:	bf00      	nop
 8005376:	371c      	adds	r7, #28
 8005378:	46bd      	mov	sp, r7
 800537a:	f85d 7b04 	ldr.w	r7, [sp], #4
 800537e:	4770      	bx	lr

08005380 <HAL_TIMEx_MasterConfigSynchronization>:
  *         mode.
  * @retval HAL status
  */
HAL_StatusTypeDef HAL_TIMEx_MasterConfigSynchronization(TIM_HandleTypeDef *htim,
                                                        const TIM_MasterConfigTypeDef *sMasterConfig)
{
 8005380:	b480      	push	{r7}
 8005382:	b085      	sub	sp, #20
 8005384:	af00      	add	r7, sp, #0
 8005386:	6078      	str	r0, [r7, #4]
 8005388:	6039      	str	r1, [r7, #0]
  assert_param(IS_TIM_MASTER_INSTANCE(htim->Instance));
  assert_param(IS_TIM_TRGO_SOURCE(sMasterConfig->MasterOutputTrigger));
  assert_param(IS_TIM_MSM_STATE(sMasterConfig->MasterSlaveMode));

  /* Check input state */
  __HAL_LOCK(htim);
 800538a:	687b      	ldr	r3, [r7, #4]
 800538c:	f893 303c 	ldrb.w	r3, [r3, #60]	@ 0x3c
 8005390:	2b01      	cmp	r3, #1
 8005392:	d101      	bne.n	8005398 <HAL_TIMEx_MasterConfigSynchronization+0x18>
 8005394:	2302      	movs	r3, #2
 8005396:	e050      	b.n	800543a <HAL_TIMEx_MasterConfigSynchronization+0xba>
 8005398:	687b      	ldr	r3, [r7, #4]
 800539a:	2201      	movs	r2, #1
 800539c:	f883 203c 	strb.w	r2, [r3, #60]	@ 0x3c

  /* Change the handler state */
  htim->State = HAL_TIM_STATE_BUSY;
 80053a0:	687b      	ldr	r3, [r7, #4]
 80053a2:	2202      	movs	r2, #2
 80053a4:	f883 203d 	strb.w	r2, [r3, #61]	@ 0x3d

  /* Get the TIMx CR2 register value */
  tmpcr2 = htim->Instance->CR2;
 80053a8:	687b      	ldr	r3, [r7, #4]
 80053aa:	681b      	ldr	r3, [r3, #0]
 80053ac:	685b      	ldr	r3, [r3, #4]
 80053ae:	60fb      	str	r3, [r7, #12]

  /* Get the TIMx SMCR register value */
  tmpsmcr = htim->Instance->SMCR;
 80053b0:	687b      	ldr	r3, [r7, #4]
 80053b2:	681b      	ldr	r3, [r3, #0]
 80053b4:	689b      	ldr	r3, [r3, #8]
 80053b6:	60bb      	str	r3, [r7, #8]

  /* Reset the MMS Bits */
  tmpcr2 &= ~TIM_CR2_MMS;
 80053b8:	68fb      	ldr	r3, [r7, #12]
 80053ba:	f023 0370 	bic.w	r3, r3, #112	@ 0x70
 80053be:	60fb      	str	r3, [r7, #12]
  /* Select the TRGO source */
  tmpcr2 |=  sMasterConfig->MasterOutputTrigger;
 80053c0:	683b      	ldr	r3, [r7, #0]
 80053c2:	681b      	ldr	r3, [r3, #0]
 80053c4:	68fa      	ldr	r2, [r7, #12]
 80053c6:	4313      	orrs	r3, r2
 80053c8:	60fb      	str	r3, [r7, #12]

  /* Update TIMx CR2 */
  htim->Instance->CR2 = tmpcr2;
 80053ca:	687b      	ldr	r3, [r7, #4]
 80053cc:	681b      	ldr	r3, [r3, #0]
 80053ce:	68fa      	ldr	r2, [r7, #12]
 80053d0:	605a      	str	r2, [r3, #4]

  if (IS_TIM_SLAVE_INSTANCE(htim->Instance))
 80053d2:	687b      	ldr	r3, [r7, #4]
 80053d4:	681b      	ldr	r3, [r3, #0]
 80053d6:	4a1c      	ldr	r2, [pc, #112]	@ (8005448 <HAL_TIMEx_MasterConfigSynchronization+0xc8>)
 80053d8:	4293      	cmp	r3, r2
 80053da:	d018      	beq.n	800540e <HAL_TIMEx_MasterConfigSynchronization+0x8e>
 80053dc:	687b      	ldr	r3, [r7, #4]
 80053de:	681b      	ldr	r3, [r3, #0]
 80053e0:	f1b3 4f80 	cmp.w	r3, #1073741824	@ 0x40000000
 80053e4:	d013      	beq.n	800540e <HAL_TIMEx_MasterConfigSynchronization+0x8e>
 80053e6:	687b      	ldr	r3, [r7, #4]
 80053e8:	681b      	ldr	r3, [r3, #0]
 80053ea:	4a18      	ldr	r2, [pc, #96]	@ (800544c <HAL_TIMEx_MasterConfigSynchronization+0xcc>)
 80053ec:	4293      	cmp	r3, r2
 80053ee:	d00e      	beq.n	800540e <HAL_TIMEx_MasterConfigSynchronization+0x8e>
 80053f0:	687b      	ldr	r3, [r7, #4]
 80053f2:	681b      	ldr	r3, [r3, #0]
 80053f4:	4a16      	ldr	r2, [pc, #88]	@ (8005450 <HAL_TIMEx_MasterConfigSynchronization+0xd0>)
 80053f6:	4293      	cmp	r3, r2
 80053f8:	d009      	beq.n	800540e <HAL_TIMEx_MasterConfigSynchronization+0x8e>
 80053fa:	687b      	ldr	r3, [r7, #4]
 80053fc:	681b      	ldr	r3, [r3, #0]
 80053fe:	4a15      	ldr	r2, [pc, #84]	@ (8005454 <HAL_TIMEx_MasterConfigSynchronization+0xd4>)
 8005400:	4293      	cmp	r3, r2
 8005402:	d004      	beq.n	800540e <HAL_TIMEx_MasterConfigSynchronization+0x8e>
 8005404:	687b      	ldr	r3, [r7, #4]
 8005406:	681b      	ldr	r3, [r3, #0]
 8005408:	4a13      	ldr	r2, [pc, #76]	@ (8005458 <HAL_TIMEx_MasterConfigSynchronization+0xd8>)
 800540a:	4293      	cmp	r3, r2
 800540c:	d10c      	bne.n	8005428 <HAL_TIMEx_MasterConfigSynchronization+0xa8>
  {
    /* Reset the MSM Bit */
    tmpsmcr &= ~TIM_SMCR_MSM;
 800540e:	68bb      	ldr	r3, [r7, #8]
 8005410:	f023 0380 	bic.w	r3, r3, #128	@ 0x80
 8005414:	60bb      	str	r3, [r7, #8]
    /* Set master mode */
    tmpsmcr |= sMasterConfig->MasterSlaveMode;
 8005416:	683b      	ldr	r3, [r7, #0]
 8005418:	685b      	ldr	r3, [r3, #4]
 800541a:	68ba      	ldr	r2, [r7, #8]
 800541c:	4313      	orrs	r3, r2
 800541e:	60bb      	str	r3, [r7, #8]

    /* Update TIMx SMCR */
    htim->Instance->SMCR = tmpsmcr;
 8005420:	687b      	ldr	r3, [r7, #4]
 8005422:	681b      	ldr	r3, [r3, #0]
 8005424:	68ba      	ldr	r2, [r7, #8]
 8005426:	609a      	str	r2, [r3, #8]
  }

  /* Change the htim state */
  htim->State = HAL_TIM_STATE_READY;
 8005428:	687b      	ldr	r3, [r7, #4]
 800542a:	2201      	movs	r2, #1
 800542c:	f883 203d 	strb.w	r2, [r3, #61]	@ 0x3d

  __HAL_UNLOCK(htim);
 8005430:	687b      	ldr	r3, [r7, #4]
 8005432:	2200      	movs	r2, #0
 8005434:	f883 203c 	strb.w	r2, [r3, #60]	@ 0x3c

  return HAL_OK;
 8005438:	2300      	movs	r3, #0
}
 800543a:	4618      	mov	r0, r3
 800543c:	3714      	adds	r7, #20
 800543e:	46bd      	mov	sp, r7
 8005440:	f85d 7b04 	ldr.w	r7, [sp], #4
 8005444:	4770      	bx	lr
 8005446:	bf00      	nop
 8005448:	40010000 	.word	0x40010000
 800544c:	40000400 	.word	0x40000400
 8005450:	40000800 	.word	0x40000800
 8005454:	40000c00 	.word	0x40000c00
 8005458:	40014000 	.word	0x40014000

0800545c <HAL_TIMEx_CommutCallback>:
  * @brief  Commutation callback in non-blocking mode
  * @param  htim TIM handle
  * @retval None
  */
__weak void HAL_TIMEx_CommutCallback(TIM_HandleTypeDef *htim)
{
 800545c:	b480      	push	{r7}
 800545e:	b083      	sub	sp, #12
 8005460:	af00      	add	r7, sp, #0
 8005462:	6078      	str	r0, [r7, #4]
  UNUSED(htim);

  /* NOTE : This function should not be modified, when the callback is needed,
            the HAL_TIMEx_CommutCallback could be implemented in the user file
   */
}
 8005464:	bf00      	nop
 8005466:	370c      	adds	r7, #12
 8005468:	46bd      	mov	sp, r7
 800546a:	f85d 7b04 	ldr.w	r7, [sp], #4
 800546e:	4770      	bx	lr

08005470 <HAL_TIMEx_BreakCallback>:
  * @brief  Break detection callback in non-blocking mode
  * @param  htim TIM handle
  * @retval None
  */
__weak void HAL_TIMEx_BreakCallback(TIM_HandleTypeDef *htim)
{
 8005470:	b480      	push	{r7}
 8005472:	b083      	sub	sp, #12
 8005474:	af00      	add	r7, sp, #0
 8005476:	6078      	str	r0, [r7, #4]
  UNUSED(htim);

  /* NOTE : This function should not be modified, when the callback is needed,
            the HAL_TIMEx_BreakCallback could be implemented in the user file
   */
}
 8005478:	bf00      	nop
 800547a:	370c      	adds	r7, #12
 800547c:	46bd      	mov	sp, r7
 800547e:	f85d 7b04 	ldr.w	r7, [sp], #4
 8005482:	4770      	bx	lr

08005484 <USB_CoreInit>:
  * @param  cfg pointer to a USB_OTG_CfgTypeDef structure that contains
  *         the configuration information for the specified USBx peripheral.
  * @retval HAL status
  */
HAL_StatusTypeDef USB_CoreInit(USB_OTG_GlobalTypeDef *USBx, USB_OTG_CfgTypeDef cfg)
{
 8005484:	b084      	sub	sp, #16
 8005486:	b580      	push	{r7, lr}
 8005488:	b084      	sub	sp, #16
 800548a:	af00      	add	r7, sp, #0
 800548c:	6078      	str	r0, [r7, #4]
 800548e:	f107 001c 	add.w	r0, r7, #28
 8005492:	e880 000e 	stmia.w	r0, {r1, r2, r3}
  HAL_StatusTypeDef ret;
  if (cfg.phy_itface == USB_OTG_ULPI_PHY)
 8005496:	f897 3021 	ldrb.w	r3, [r7, #33]	@ 0x21
 800549a:	2b01      	cmp	r3, #1
 800549c:	d123      	bne.n	80054e6 <USB_CoreInit+0x62>
  {
    USBx->GCCFG &= ~(USB_OTG_GCCFG_PWRDWN);
 800549e:	687b      	ldr	r3, [r7, #4]
 80054a0:	6b9b      	ldr	r3, [r3, #56]	@ 0x38
 80054a2:	f423 3280 	bic.w	r2, r3, #65536	@ 0x10000
 80054a6:	687b      	ldr	r3, [r7, #4]
 80054a8:	639a      	str	r2, [r3, #56]	@ 0x38

    /* Init The ULPI Interface */
    USBx->GUSBCFG &= ~(USB_OTG_GUSBCFG_TSDPS | USB_OTG_GUSBCFG_ULPIFSLS | USB_OTG_GUSBCFG_PHYSEL);
 80054aa:	687b      	ldr	r3, [r7, #4]
 80054ac:	68db      	ldr	r3, [r3, #12]
 80054ae:	f423 0384 	bic.w	r3, r3, #4325376	@ 0x420000
 80054b2:	f023 0340 	bic.w	r3, r3, #64	@ 0x40
 80054b6:	687a      	ldr	r2, [r7, #4]
 80054b8:	60d3      	str	r3, [r2, #12]

    /* Select vbus source */
    USBx->GUSBCFG &= ~(USB_OTG_GUSBCFG_ULPIEVBUSD | USB_OTG_GUSBCFG_ULPIEVBUSI);
 80054ba:	687b      	ldr	r3, [r7, #4]
 80054bc:	68db      	ldr	r3, [r3, #12]
 80054be:	f423 1240 	bic.w	r2, r3, #3145728	@ 0x300000
 80054c2:	687b      	ldr	r3, [r7, #4]
 80054c4:	60da      	str	r2, [r3, #12]
    if (cfg.use_external_vbus == 1U)
 80054c6:	f897 3028 	ldrb.w	r3, [r7, #40]	@ 0x28
 80054ca:	2b01      	cmp	r3, #1
 80054cc:	d105      	bne.n	80054da <USB_CoreInit+0x56>
    {
      USBx->GUSBCFG |= USB_OTG_GUSBCFG_ULPIEVBUSD;
 80054ce:	687b      	ldr	r3, [r7, #4]
 80054d0:	68db      	ldr	r3, [r3, #12]
 80054d2:	f443 1280 	orr.w	r2, r3, #1048576	@ 0x100000
 80054d6:	687b      	ldr	r3, [r7, #4]
 80054d8:	60da      	str	r2, [r3, #12]
    }

    /* Reset after a PHY select */
    ret = USB_CoreReset(USBx);
 80054da:	6878      	ldr	r0, [r7, #4]
 80054dc:	f001 fae8 	bl	8006ab0 <USB_CoreReset>
 80054e0:	4603      	mov	r3, r0
 80054e2:	73fb      	strb	r3, [r7, #15]
 80054e4:	e01b      	b.n	800551e <USB_CoreInit+0x9a>
  }
  else /* FS interface (embedded Phy) */
  {
    /* Select FS Embedded PHY */
    USBx->GUSBCFG |= USB_OTG_GUSBCFG_PHYSEL;
 80054e6:	687b      	ldr	r3, [r7, #4]
 80054e8:	68db      	ldr	r3, [r3, #12]
 80054ea:	f043 0240 	orr.w	r2, r3, #64	@ 0x40
 80054ee:	687b      	ldr	r3, [r7, #4]
 80054f0:	60da      	str	r2, [r3, #12]

    /* Reset after a PHY select */
    ret = USB_CoreReset(USBx);
 80054f2:	6878      	ldr	r0, [r7, #4]
 80054f4:	f001 fadc 	bl	8006ab0 <USB_CoreReset>
 80054f8:	4603      	mov	r3, r0
 80054fa:	73fb      	strb	r3, [r7, #15]

    if (cfg.battery_charging_enable == 0U)
 80054fc:	f897 3025 	ldrb.w	r3, [r7, #37]	@ 0x25
 8005500:	2b00      	cmp	r3, #0
 8005502:	d106      	bne.n	8005512 <USB_CoreInit+0x8e>
    {
      /* Activate the USB Transceiver */
      USBx->GCCFG |= USB_OTG_GCCFG_PWRDWN;
 8005504:	687b      	ldr	r3, [r7, #4]
 8005506:	6b9b      	ldr	r3, [r3, #56]	@ 0x38
 8005508:	f443 3280 	orr.w	r2, r3, #65536	@ 0x10000
 800550c:	687b      	ldr	r3, [r7, #4]
 800550e:	639a      	str	r2, [r3, #56]	@ 0x38
 8005510:	e005      	b.n	800551e <USB_CoreInit+0x9a>
    }
    else
    {
      /* Deactivate the USB Transceiver */
      USBx->GCCFG &= ~(USB_OTG_GCCFG_PWRDWN);
 8005512:	687b      	ldr	r3, [r7, #4]
 8005514:	6b9b      	ldr	r3, [r3, #56]	@ 0x38
 8005516:	f423 3280 	bic.w	r2, r3, #65536	@ 0x10000
 800551a:	687b      	ldr	r3, [r7, #4]
 800551c:	639a      	str	r2, [r3, #56]	@ 0x38
    }
  }

  if (cfg.dma_enable == 1U)
 800551e:	7fbb      	ldrb	r3, [r7, #30]
 8005520:	2b01      	cmp	r3, #1
 8005522:	d10b      	bne.n	800553c <USB_CoreInit+0xb8>
  {
    USBx->GAHBCFG |= USB_OTG_GAHBCFG_HBSTLEN_2;
 8005524:	687b      	ldr	r3, [r7, #4]
 8005526:	689b      	ldr	r3, [r3, #8]
 8005528:	f043 0206 	orr.w	r2, r3, #6
 800552c:	687b      	ldr	r3, [r7, #4]
 800552e:	609a      	str	r2, [r3, #8]
    USBx->GAHBCFG |= USB_OTG_GAHBCFG_DMAEN;
 8005530:	687b      	ldr	r3, [r7, #4]
 8005532:	689b      	ldr	r3, [r3, #8]
 8005534:	f043 0220 	orr.w	r2, r3, #32
 8005538:	687b      	ldr	r3, [r7, #4]
 800553a:	609a      	str	r2, [r3, #8]
  }

  return ret;
 800553c:	7bfb      	ldrb	r3, [r7, #15]
}
 800553e:	4618      	mov	r0, r3
 8005540:	3710      	adds	r7, #16
 8005542:	46bd      	mov	sp, r7
 8005544:	e8bd 4080 	ldmia.w	sp!, {r7, lr}
 8005548:	b004      	add	sp, #16
 800554a:	4770      	bx	lr

0800554c <USB_SetTurnaroundTime>:
  * @param  hclk: AHB clock frequency
  * @retval USB turnaround time In PHY Clocks number
  */
HAL_StatusTypeDef USB_SetTurnaroundTime(USB_OTG_GlobalTypeDef *USBx,
                                        uint32_t hclk, uint8_t speed)
{
 800554c:	b480      	push	{r7}
 800554e:	b087      	sub	sp, #28
 8005550:	af00      	add	r7, sp, #0
 8005552:	60f8      	str	r0, [r7, #12]
 8005554:	60b9      	str	r1, [r7, #8]
 8005556:	4613      	mov	r3, r2
 8005558:	71fb      	strb	r3, [r7, #7]

  /* The USBTRD is configured according to the tables below, depending on AHB frequency
  used by application. In the low AHB frequency range it is used to stretch enough the USB response
  time to IN tokens, the USB turnaround time, so to compensate for the longer AHB read access
  latency to the Data FIFO */
  if (speed == USBD_FS_SPEED)
 800555a:	79fb      	ldrb	r3, [r7, #7]
 800555c:	2b02      	cmp	r3, #2
 800555e:	d165      	bne.n	800562c <USB_SetTurnaroundTime+0xe0>
  {
    if ((hclk >= 14200000U) && (hclk < 15000000U))
 8005560:	68bb      	ldr	r3, [r7, #8]
 8005562:	4a41      	ldr	r2, [pc, #260]	@ (8005668 <USB_SetTurnaroundTime+0x11c>)
 8005564:	4293      	cmp	r3, r2
 8005566:	d906      	bls.n	8005576 <USB_SetTurnaroundTime+0x2a>
 8005568:	68bb      	ldr	r3, [r7, #8]
 800556a:	4a40      	ldr	r2, [pc, #256]	@ (800566c <USB_SetTurnaroundTime+0x120>)
 800556c:	4293      	cmp	r3, r2
 800556e:	d202      	bcs.n	8005576 <USB_SetTurnaroundTime+0x2a>
    {
      /* hclk Clock Range between 14.2-15 MHz */
      UsbTrd = 0xFU;
 8005570:	230f      	movs	r3, #15
 8005572:	617b      	str	r3, [r7, #20]
 8005574:	e062      	b.n	800563c <USB_SetTurnaroundTime+0xf0>
    }
    else if ((hclk >= 15000000U) && (hclk < 16000000U))
 8005576:	68bb      	ldr	r3, [r7, #8]
 8005578:	4a3c      	ldr	r2, [pc, #240]	@ (800566c <USB_SetTurnaroundTime+0x120>)
 800557a:	4293      	cmp	r3, r2
 800557c:	d306      	bcc.n	800558c <USB_SetTurnaroundTime+0x40>
 800557e:	68bb      	ldr	r3, [r7, #8]
 8005580:	4a3b      	ldr	r2, [pc, #236]	@ (8005670 <USB_SetTurnaroundTime+0x124>)
 8005582:	4293      	cmp	r3, r2
 8005584:	d202      	bcs.n	800558c <USB_SetTurnaroundTime+0x40>
    {
      /* hclk Clock Range between 15-16 MHz */
      UsbTrd = 0xEU;
 8005586:	230e      	movs	r3, #14
 8005588:	617b      	str	r3, [r7, #20]
 800558a:	e057      	b.n	800563c <USB_SetTurnaroundTime+0xf0>
    }
    else if ((hclk >= 16000000U) && (hclk < 17200000U))
 800558c:	68bb      	ldr	r3, [r7, #8]
 800558e:	4a38      	ldr	r2, [pc, #224]	@ (8005670 <USB_SetTurnaroundTime+0x124>)
 8005590:	4293      	cmp	r3, r2
 8005592:	d306      	bcc.n	80055a2 <USB_SetTurnaroundTime+0x56>
 8005594:	68bb      	ldr	r3, [r7, #8]
 8005596:	4a37      	ldr	r2, [pc, #220]	@ (8005674 <USB_SetTurnaroundTime+0x128>)
 8005598:	4293      	cmp	r3, r2
 800559a:	d202      	bcs.n	80055a2 <USB_SetTurnaroundTime+0x56>
    {
      /* hclk Clock Range between 16-17.2 MHz */
      UsbTrd = 0xDU;
 800559c:	230d      	movs	r3, #13
 800559e:	617b      	str	r3, [r7, #20]
 80055a0:	e04c      	b.n	800563c <USB_SetTurnaroundTime+0xf0>
    }
    else if ((hclk >= 17200000U) && (hclk < 18500000U))
 80055a2:	68bb      	ldr	r3, [r7, #8]
 80055a4:	4a33      	ldr	r2, [pc, #204]	@ (8005674 <USB_SetTurnaroundTime+0x128>)
 80055a6:	4293      	cmp	r3, r2
 80055a8:	d306      	bcc.n	80055b8 <USB_SetTurnaroundTime+0x6c>
 80055aa:	68bb      	ldr	r3, [r7, #8]
 80055ac:	4a32      	ldr	r2, [pc, #200]	@ (8005678 <USB_SetTurnaroundTime+0x12c>)
 80055ae:	4293      	cmp	r3, r2
 80055b0:	d802      	bhi.n	80055b8 <USB_SetTurnaroundTime+0x6c>
    {
      /* hclk Clock Range between 17.2-18.5 MHz */
      UsbTrd = 0xCU;
 80055b2:	230c      	movs	r3, #12
 80055b4:	617b      	str	r3, [r7, #20]
 80055b6:	e041      	b.n	800563c <USB_SetTurnaroundTime+0xf0>
    }
    else if ((hclk >= 18500000U) && (hclk < 20000000U))
 80055b8:	68bb      	ldr	r3, [r7, #8]
 80055ba:	4a2f      	ldr	r2, [pc, #188]	@ (8005678 <USB_SetTurnaroundTime+0x12c>)
 80055bc:	4293      	cmp	r3, r2
 80055be:	d906      	bls.n	80055ce <USB_SetTurnaroundTime+0x82>
 80055c0:	68bb      	ldr	r3, [r7, #8]
 80055c2:	4a2e      	ldr	r2, [pc, #184]	@ (800567c <USB_SetTurnaroundTime+0x130>)
 80055c4:	4293      	cmp	r3, r2
 80055c6:	d802      	bhi.n	80055ce <USB_SetTurnaroundTime+0x82>
    {
      /* hclk Clock Range between 18.5-20 MHz */
      UsbTrd = 0xBU;
 80055c8:	230b      	movs	r3, #11
 80055ca:	617b      	str	r3, [r7, #20]
 80055cc:	e036      	b.n	800563c <USB_SetTurnaroundTime+0xf0>
    }
    else if ((hclk >= 20000000U) && (hclk < 21800000U))
 80055ce:	68bb      	ldr	r3, [r7, #8]
 80055d0:	4a2a      	ldr	r2, [pc, #168]	@ (800567c <USB_SetTurnaroundTime+0x130>)
 80055d2:	4293      	cmp	r3, r2
 80055d4:	d906      	bls.n	80055e4 <USB_SetTurnaroundTime+0x98>
 80055d6:	68bb      	ldr	r3, [r7, #8]
 80055d8:	4a29      	ldr	r2, [pc, #164]	@ (8005680 <USB_SetTurnaroundTime+0x134>)
 80055da:	4293      	cmp	r3, r2
 80055dc:	d802      	bhi.n	80055e4 <USB_SetTurnaroundTime+0x98>
    {
      /* hclk Clock Range between 20-21.8 MHz */
      UsbTrd = 0xAU;
 80055de:	230a      	movs	r3, #10
 80055e0:	617b      	str	r3, [r7, #20]
 80055e2:	e02b      	b.n	800563c <USB_SetTurnaroundTime+0xf0>
    }
    else if ((hclk >= 21800000U) && (hclk < 24000000U))
 80055e4:	68bb      	ldr	r3, [r7, #8]
 80055e6:	4a26      	ldr	r2, [pc, #152]	@ (8005680 <USB_SetTurnaroundTime+0x134>)
 80055e8:	4293      	cmp	r3, r2
 80055ea:	d906      	bls.n	80055fa <USB_SetTurnaroundTime+0xae>
 80055ec:	68bb      	ldr	r3, [r7, #8]
 80055ee:	4a25      	ldr	r2, [pc, #148]	@ (8005684 <USB_SetTurnaroundTime+0x138>)
 80055f0:	4293      	cmp	r3, r2
 80055f2:	d202      	bcs.n	80055fa <USB_SetTurnaroundTime+0xae>
    {
      /* hclk Clock Range between 21.8-24 MHz */
      UsbTrd = 0x9U;
 80055f4:	2309      	movs	r3, #9
 80055f6:	617b      	str	r3, [r7, #20]
 80055f8:	e020      	b.n	800563c <USB_SetTurnaroundTime+0xf0>
    }
    else if ((hclk >= 24000000U) && (hclk < 27700000U))
 80055fa:	68bb      	ldr	r3, [r7, #8]
 80055fc:	4a21      	ldr	r2, [pc, #132]	@ (8005684 <USB_SetTurnaroundTime+0x138>)
 80055fe:	4293      	cmp	r3, r2
 8005600:	d306      	bcc.n	8005610 <USB_SetTurnaroundTime+0xc4>
 8005602:	68bb      	ldr	r3, [r7, #8]
 8005604:	4a20      	ldr	r2, [pc, #128]	@ (8005688 <USB_SetTurnaroundTime+0x13c>)
 8005606:	4293      	cmp	r3, r2
 8005608:	d802      	bhi.n	8005610 <USB_SetTurnaroundTime+0xc4>
    {
      /* hclk Clock Range between 24-27.7 MHz */
      UsbTrd = 0x8U;
 800560a:	2308      	movs	r3, #8
 800560c:	617b      	str	r3, [r7, #20]
 800560e:	e015      	b.n	800563c <USB_SetTurnaroundTime+0xf0>
    }
    else if ((hclk >= 27700000U) && (hclk < 32000000U))
 8005610:	68bb      	ldr	r3, [r7, #8]
 8005612:	4a1d      	ldr	r2, [pc, #116]	@ (8005688 <USB_SetTurnaroundTime+0x13c>)
 8005614:	4293      	cmp	r3, r2
 8005616:	d906      	bls.n	8005626 <USB_SetTurnaroundTime+0xda>
 8005618:	68bb      	ldr	r3, [r7, #8]
 800561a:	4a1c      	ldr	r2, [pc, #112]	@ (800568c <USB_SetTurnaroundTime+0x140>)
 800561c:	4293      	cmp	r3, r2
 800561e:	d202      	bcs.n	8005626 <USB_SetTurnaroundTime+0xda>
    {
      /* hclk Clock Range between 27.7-32 MHz */
      UsbTrd = 0x7U;
 8005620:	2307      	movs	r3, #7
 8005622:	617b      	str	r3, [r7, #20]
 8005624:	e00a      	b.n	800563c <USB_SetTurnaroundTime+0xf0>
    }
    else /* if(hclk >= 32000000) */
    {
      /* hclk Clock Range between 32-200 MHz */
      UsbTrd = 0x6U;
 8005626:	2306      	movs	r3, #6
 8005628:	617b      	str	r3, [r7, #20]
 800562a:	e007      	b.n	800563c <USB_SetTurnaroundTime+0xf0>
    }
  }
  else if (speed == USBD_HS_SPEED)
 800562c:	79fb      	ldrb	r3, [r7, #7]
 800562e:	2b00      	cmp	r3, #0
 8005630:	d102      	bne.n	8005638 <USB_SetTurnaroundTime+0xec>
  {
    UsbTrd = USBD_HS_TRDT_VALUE;
 8005632:	2309      	movs	r3, #9
 8005634:	617b      	str	r3, [r7, #20]
 8005636:	e001      	b.n	800563c <USB_SetTurnaroundTime+0xf0>
  }
  else
  {
    UsbTrd = USBD_DEFAULT_TRDT_VALUE;
 8005638:	2309      	movs	r3, #9
 800563a:	617b      	str	r3, [r7, #20]
  }

  USBx->GUSBCFG &= ~USB_OTG_GUSBCFG_TRDT;
 800563c:	68fb      	ldr	r3, [r7, #12]
 800563e:	68db      	ldr	r3, [r3, #12]
 8005640:	f423 5270 	bic.w	r2, r3, #15360	@ 0x3c00
 8005644:	68fb      	ldr	r3, [r7, #12]
 8005646:	60da      	str	r2, [r3, #12]
  USBx->GUSBCFG |= (uint32_t)((UsbTrd << 10) & USB_OTG_GUSBCFG_TRDT);
 8005648:	68fb      	ldr	r3, [r7, #12]
 800564a:	68da      	ldr	r2, [r3, #12]
 800564c:	697b      	ldr	r3, [r7, #20]
 800564e:	029b      	lsls	r3, r3, #10
 8005650:	f403 5370 	and.w	r3, r3, #15360	@ 0x3c00
 8005654:	431a      	orrs	r2, r3
 8005656:	68fb      	ldr	r3, [r7, #12]
 8005658:	60da      	str	r2, [r3, #12]

  return HAL_OK;
 800565a:	2300      	movs	r3, #0
}
 800565c:	4618      	mov	r0, r3
 800565e:	371c      	adds	r7, #28
 8005660:	46bd      	mov	sp, r7
 8005662:	f85d 7b04 	ldr.w	r7, [sp], #4
 8005666:	4770      	bx	lr
 8005668:	00d8acbf 	.word	0x00d8acbf
 800566c:	00e4e1c0 	.word	0x00e4e1c0
 8005670:	00f42400 	.word	0x00f42400
 8005674:	01067380 	.word	0x01067380
 8005678:	011a499f 	.word	0x011a499f
 800567c:	01312cff 	.word	0x01312cff
 8005680:	014ca43f 	.word	0x014ca43f
 8005684:	016e3600 	.word	0x016e3600
 8005688:	01a6ab1f 	.word	0x01a6ab1f
 800568c:	01e84800 	.word	0x01e84800

08005690 <USB_EnableGlobalInt>:
  *         Enables the controller's Global Int in the AHB Config reg
  * @param  USBx  Selected device
  * @retval HAL status
  */
HAL_StatusTypeDef USB_EnableGlobalInt(USB_OTG_GlobalTypeDef *USBx)
{
 8005690:	b480      	push	{r7}
 8005692:	b083      	sub	sp, #12
 8005694:	af00      	add	r7, sp, #0
 8005696:	6078      	str	r0, [r7, #4]
  USBx->GAHBCFG |= USB_OTG_GAHBCFG_GINT;
 8005698:	687b      	ldr	r3, [r7, #4]
 800569a:	689b      	ldr	r3, [r3, #8]
 800569c:	f043 0201 	orr.w	r2, r3, #1
 80056a0:	687b      	ldr	r3, [r7, #4]
 80056a2:	609a      	str	r2, [r3, #8]
  return HAL_OK;
 80056a4:	2300      	movs	r3, #0
}
 80056a6:	4618      	mov	r0, r3
 80056a8:	370c      	adds	r7, #12
 80056aa:	46bd      	mov	sp, r7
 80056ac:	f85d 7b04 	ldr.w	r7, [sp], #4
 80056b0:	4770      	bx	lr

080056b2 <USB_DisableGlobalInt>:
  *         Disable the controller's Global Int in the AHB Config reg
  * @param  USBx  Selected device
  * @retval HAL status
  */
HAL_StatusTypeDef USB_DisableGlobalInt(USB_OTG_GlobalTypeDef *USBx)
{
 80056b2:	b480      	push	{r7}
 80056b4:	b083      	sub	sp, #12
 80056b6:	af00      	add	r7, sp, #0
 80056b8:	6078      	str	r0, [r7, #4]
  USBx->GAHBCFG &= ~USB_OTG_GAHBCFG_GINT;
 80056ba:	687b      	ldr	r3, [r7, #4]
 80056bc:	689b      	ldr	r3, [r3, #8]
 80056be:	f023 0201 	bic.w	r2, r3, #1
 80056c2:	687b      	ldr	r3, [r7, #4]
 80056c4:	609a      	str	r2, [r3, #8]
  return HAL_OK;
 80056c6:	2300      	movs	r3, #0
}
 80056c8:	4618      	mov	r0, r3
 80056ca:	370c      	adds	r7, #12
 80056cc:	46bd      	mov	sp, r7
 80056ce:	f85d 7b04 	ldr.w	r7, [sp], #4
 80056d2:	4770      	bx	lr

080056d4 <USB_SetCurrentMode>:
  *            @arg USB_DEVICE_MODE Peripheral mode
  *            @arg USB_HOST_MODE Host mode
  * @retval HAL status
  */
HAL_StatusTypeDef USB_SetCurrentMode(USB_OTG_GlobalTypeDef *USBx, USB_OTG_ModeTypeDef mode)
{
 80056d4:	b580      	push	{r7, lr}
 80056d6:	b084      	sub	sp, #16
 80056d8:	af00      	add	r7, sp, #0
 80056da:	6078      	str	r0, [r7, #4]
 80056dc:	460b      	mov	r3, r1
 80056de:	70fb      	strb	r3, [r7, #3]
  uint32_t ms = 0U;
 80056e0:	2300      	movs	r3, #0
 80056e2:	60fb      	str	r3, [r7, #12]

  USBx->GUSBCFG &= ~(USB_OTG_GUSBCFG_FHMOD | USB_OTG_GUSBCFG_FDMOD);
 80056e4:	687b      	ldr	r3, [r7, #4]
 80056e6:	68db      	ldr	r3, [r3, #12]
 80056e8:	f023 42c0 	bic.w	r2, r3, #1610612736	@ 0x60000000
 80056ec:	687b      	ldr	r3, [r7, #4]
 80056ee:	60da      	str	r2, [r3, #12]

  if (mode == USB_HOST_MODE)
 80056f0:	78fb      	ldrb	r3, [r7, #3]
 80056f2:	2b01      	cmp	r3, #1
 80056f4:	d115      	bne.n	8005722 <USB_SetCurrentMode+0x4e>
  {
    USBx->GUSBCFG |= USB_OTG_GUSBCFG_FHMOD;
 80056f6:	687b      	ldr	r3, [r7, #4]
 80056f8:	68db      	ldr	r3, [r3, #12]
 80056fa:	f043 5200 	orr.w	r2, r3, #536870912	@ 0x20000000
 80056fe:	687b      	ldr	r3, [r7, #4]
 8005700:	60da      	str	r2, [r3, #12]

    do
    {
      HAL_Delay(10U);
 8005702:	200a      	movs	r0, #10
 8005704:	f7fb fdf8 	bl	80012f8 <HAL_Delay>
      ms += 10U;
 8005708:	68fb      	ldr	r3, [r7, #12]
 800570a:	330a      	adds	r3, #10
 800570c:	60fb      	str	r3, [r7, #12]
    } while ((USB_GetMode(USBx) != (uint32_t)USB_HOST_MODE) && (ms < HAL_USB_CURRENT_MODE_MAX_DELAY_MS));
 800570e:	6878      	ldr	r0, [r7, #4]
 8005710:	f001 f93f 	bl	8006992 <USB_GetMode>
 8005714:	4603      	mov	r3, r0
 8005716:	2b01      	cmp	r3, #1
 8005718:	d01e      	beq.n	8005758 <USB_SetCurrentMode+0x84>
 800571a:	68fb      	ldr	r3, [r7, #12]
 800571c:	2bc7      	cmp	r3, #199	@ 0xc7
 800571e:	d9f0      	bls.n	8005702 <USB_SetCurrentMode+0x2e>
 8005720:	e01a      	b.n	8005758 <USB_SetCurrentMode+0x84>
  }
  else if (mode == USB_DEVICE_MODE)
 8005722:	78fb      	ldrb	r3, [r7, #3]
 8005724:	2b00      	cmp	r3, #0
 8005726:	d115      	bne.n	8005754 <USB_SetCurrentMode+0x80>
  {
    USBx->GUSBCFG |= USB_OTG_GUSBCFG_FDMOD;
 8005728:	687b      	ldr	r3, [r7, #4]
 800572a:	68db      	ldr	r3, [r3, #12]
 800572c:	f043 4280 	orr.w	r2, r3, #1073741824	@ 0x40000000
 8005730:	687b      	ldr	r3, [r7, #4]
 8005732:	60da      	str	r2, [r3, #12]

    do
    {
      HAL_Delay(10U);
 8005734:	200a      	movs	r0, #10
 8005736:	f7fb fddf 	bl	80012f8 <HAL_Delay>
      ms += 10U;
 800573a:	68fb      	ldr	r3, [r7, #12]
 800573c:	330a      	adds	r3, #10
 800573e:	60fb      	str	r3, [r7, #12]
    } while ((USB_GetMode(USBx) != (uint32_t)USB_DEVICE_MODE) && (ms < HAL_USB_CURRENT_MODE_MAX_DELAY_MS));
 8005740:	6878      	ldr	r0, [r7, #4]
 8005742:	f001 f926 	bl	8006992 <USB_GetMode>
 8005746:	4603      	mov	r3, r0
 8005748:	2b00      	cmp	r3, #0
 800574a:	d005      	beq.n	8005758 <USB_SetCurrentMode+0x84>
 800574c:	68fb      	ldr	r3, [r7, #12]
 800574e:	2bc7      	cmp	r3, #199	@ 0xc7
 8005750:	d9f0      	bls.n	8005734 <USB_SetCurrentMode+0x60>
 8005752:	e001      	b.n	8005758 <USB_SetCurrentMode+0x84>
  }
  else
  {
    return HAL_ERROR;
 8005754:	2301      	movs	r3, #1
 8005756:	e005      	b.n	8005764 <USB_SetCurrentMode+0x90>
  }

  if (ms == HAL_USB_CURRENT_MODE_MAX_DELAY_MS)
 8005758:	68fb      	ldr	r3, [r7, #12]
 800575a:	2bc8      	cmp	r3, #200	@ 0xc8
 800575c:	d101      	bne.n	8005762 <USB_SetCurrentMode+0x8e>
  {
    return HAL_ERROR;
 800575e:	2301      	movs	r3, #1
 8005760:	e000      	b.n	8005764 <USB_SetCurrentMode+0x90>
  }

  return HAL_OK;
 8005762:	2300      	movs	r3, #0
}
 8005764:	4618      	mov	r0, r3
 8005766:	3710      	adds	r7, #16
 8005768:	46bd      	mov	sp, r7
 800576a:	bd80      	pop	{r7, pc}

0800576c <USB_DevInit>:
  * @param  cfg   pointer to a USB_OTG_CfgTypeDef structure that contains
  *         the configuration information for the specified USBx peripheral.
  * @retval HAL status
  */
HAL_StatusTypeDef USB_DevInit(USB_OTG_GlobalTypeDef *USBx, USB_OTG_CfgTypeDef cfg)
{
 800576c:	b084      	sub	sp, #16
 800576e:	b580      	push	{r7, lr}
 8005770:	b086      	sub	sp, #24
 8005772:	af00      	add	r7, sp, #0
 8005774:	6078      	str	r0, [r7, #4]
 8005776:	f107 0024 	add.w	r0, r7, #36	@ 0x24
 800577a:	e880 000e 	stmia.w	r0, {r1, r2, r3}
  HAL_StatusTypeDef ret = HAL_OK;
 800577e:	2300      	movs	r3, #0
 8005780:	75fb      	strb	r3, [r7, #23]
  uint32_t USBx_BASE = (uint32_t)USBx;
 8005782:	687b      	ldr	r3, [r7, #4]
 8005784:	60fb      	str	r3, [r7, #12]
  uint32_t i;

  for (i = 0U; i < 15U; i++)
 8005786:	2300      	movs	r3, #0
 8005788:	613b      	str	r3, [r7, #16]
 800578a:	e009      	b.n	80057a0 <USB_DevInit+0x34>
  {
    USBx->DIEPTXF[i] = 0U;
 800578c:	687a      	ldr	r2, [r7, #4]
 800578e:	693b      	ldr	r3, [r7, #16]
 8005790:	3340      	adds	r3, #64	@ 0x40
 8005792:	009b      	lsls	r3, r3, #2
 8005794:	4413      	add	r3, r2
 8005796:	2200      	movs	r2, #0
 8005798:	605a      	str	r2, [r3, #4]
  for (i = 0U; i < 15U; i++)
 800579a:	693b      	ldr	r3, [r7, #16]
 800579c:	3301      	adds	r3, #1
 800579e:	613b      	str	r3, [r7, #16]
 80057a0:	693b      	ldr	r3, [r7, #16]
 80057a2:	2b0e      	cmp	r3, #14
 80057a4:	d9f2      	bls.n	800578c <USB_DevInit+0x20>
    /* Enable HW VBUS sensing */
    USBx->GCCFG |= USB_OTG_GCCFG_VBDEN;
  }
#else
  /* VBUS Sensing setup */
  if (cfg.vbus_sensing_enable == 0U)
 80057a6:	f897 302e 	ldrb.w	r3, [r7, #46]	@ 0x2e
 80057aa:	2b00      	cmp	r3, #0
 80057ac:	d11c      	bne.n	80057e8 <USB_DevInit+0x7c>
  {
    /*
     * Disable HW VBUS sensing. VBUS is internally considered to be always
     * at VBUS-Valid level (5V).
     */
    USBx_DEVICE->DCTL |= USB_OTG_DCTL_SDIS;
 80057ae:	68fb      	ldr	r3, [r7, #12]
 80057b0:	f503 6300 	add.w	r3, r3, #2048	@ 0x800
 80057b4:	685b      	ldr	r3, [r3, #4]
 80057b6:	68fa      	ldr	r2, [r7, #12]
 80057b8:	f502 6200 	add.w	r2, r2, #2048	@ 0x800
 80057bc:	f043 0302 	orr.w	r3, r3, #2
 80057c0:	6053      	str	r3, [r2, #4]
    USBx->GCCFG |= USB_OTG_GCCFG_NOVBUSSENS;
 80057c2:	687b      	ldr	r3, [r7, #4]
 80057c4:	6b9b      	ldr	r3, [r3, #56]	@ 0x38
 80057c6:	f443 1200 	orr.w	r2, r3, #2097152	@ 0x200000
 80057ca:	687b      	ldr	r3, [r7, #4]
 80057cc:	639a      	str	r2, [r3, #56]	@ 0x38
    USBx->GCCFG &= ~USB_OTG_GCCFG_VBUSBSEN;
 80057ce:	687b      	ldr	r3, [r7, #4]
 80057d0:	6b9b      	ldr	r3, [r3, #56]	@ 0x38
 80057d2:	f423 2200 	bic.w	r2, r3, #524288	@ 0x80000
 80057d6:	687b      	ldr	r3, [r7, #4]
 80057d8:	639a      	str	r2, [r3, #56]	@ 0x38
    USBx->GCCFG &= ~USB_OTG_GCCFG_VBUSASEN;
 80057da:	687b      	ldr	r3, [r7, #4]
 80057dc:	6b9b      	ldr	r3, [r3, #56]	@ 0x38
 80057de:	f423 2280 	bic.w	r2, r3, #262144	@ 0x40000
 80057e2:	687b      	ldr	r3, [r7, #4]
 80057e4:	639a      	str	r2, [r3, #56]	@ 0x38
 80057e6:	e00b      	b.n	8005800 <USB_DevInit+0x94>
  }
  else
  {
    /* Enable HW VBUS sensing */
    USBx->GCCFG &= ~USB_OTG_GCCFG_NOVBUSSENS;
 80057e8:	687b      	ldr	r3, [r7, #4]
 80057ea:	6b9b      	ldr	r3, [r3, #56]	@ 0x38
 80057ec:	f423 1200 	bic.w	r2, r3, #2097152	@ 0x200000
 80057f0:	687b      	ldr	r3, [r7, #4]
 80057f2:	639a      	str	r2, [r3, #56]	@ 0x38
    USBx->GCCFG |= USB_OTG_GCCFG_VBUSBSEN;
 80057f4:	687b      	ldr	r3, [r7, #4]
 80057f6:	6b9b      	ldr	r3, [r3, #56]	@ 0x38
 80057f8:	f443 2200 	orr.w	r2, r3, #524288	@ 0x80000
 80057fc:	687b      	ldr	r3, [r7, #4]
 80057fe:	639a      	str	r2, [r3, #56]	@ 0x38
#endif /* defined(STM32F446xx) || defined(STM32F469xx) || defined(STM32F479xx) || defined(STM32F412Zx) ||
          defined(STM32F412Vx) || defined(STM32F412Rx) || defined(STM32F412Cx) || defined(STM32F413xx) ||
          defined(STM32F423xx) */

  /* Restart the Phy Clock */
  USBx_PCGCCTL = 0U;
 8005800:	68fb      	ldr	r3, [r7, #12]
 8005802:	f503 6360 	add.w	r3, r3, #3584	@ 0xe00
 8005806:	461a      	mov	r2, r3
 8005808:	2300      	movs	r3, #0
 800580a:	6013      	str	r3, [r2, #0]

  if (cfg.phy_itface == USB_OTG_ULPI_PHY)
 800580c:	f897 3029 	ldrb.w	r3, [r7, #41]	@ 0x29
 8005810:	2b01      	cmp	r3, #1
 8005812:	d10d      	bne.n	8005830 <USB_DevInit+0xc4>
  {
    if (cfg.speed == USBD_HS_SPEED)
 8005814:	f897 3027 	ldrb.w	r3, [r7, #39]	@ 0x27
 8005818:	2b00      	cmp	r3, #0
 800581a:	d104      	bne.n	8005826 <USB_DevInit+0xba>
    {
      /* Set Core speed to High speed mode */
      (void)USB_SetDevSpeed(USBx, USB_OTG_SPEED_HIGH);
 800581c:	2100      	movs	r1, #0
 800581e:	6878      	ldr	r0, [r7, #4]
 8005820:	f000 f968 	bl	8005af4 <USB_SetDevSpeed>
 8005824:	e008      	b.n	8005838 <USB_DevInit+0xcc>
    }
    else
    {
      /* Set Core speed to Full speed mode */
      (void)USB_SetDevSpeed(USBx, USB_OTG_SPEED_HIGH_IN_FULL);
 8005826:	2101      	movs	r1, #1
 8005828:	6878      	ldr	r0, [r7, #4]
 800582a:	f000 f963 	bl	8005af4 <USB_SetDevSpeed>
 800582e:	e003      	b.n	8005838 <USB_DevInit+0xcc>
    }
  }
  else
  {
    /* Set Core speed to Full speed mode */
    (void)USB_SetDevSpeed(USBx, USB_OTG_SPEED_FULL);
 8005830:	2103      	movs	r1, #3
 8005832:	6878      	ldr	r0, [r7, #4]
 8005834:	f000 f95e 	bl	8005af4 <USB_SetDevSpeed>
  }

  /* Flush the FIFOs */
  if (USB_FlushTxFifo(USBx, 0x10U) != HAL_OK) /* all Tx FIFOs */
 8005838:	2110      	movs	r1, #16
 800583a:	6878      	ldr	r0, [r7, #4]
 800583c:	f000 f8fa 	bl	8005a34 <USB_FlushTxFifo>
 8005840:	4603      	mov	r3, r0
 8005842:	2b00      	cmp	r3, #0
 8005844:	d001      	beq.n	800584a <USB_DevInit+0xde>
  {
    ret = HAL_ERROR;
 8005846:	2301      	movs	r3, #1
 8005848:	75fb      	strb	r3, [r7, #23]
  }

  if (USB_FlushRxFifo(USBx) != HAL_OK)
 800584a:	6878      	ldr	r0, [r7, #4]
 800584c:	f000 f924 	bl	8005a98 <USB_FlushRxFifo>
 8005850:	4603      	mov	r3, r0
 8005852:	2b00      	cmp	r3, #0
 8005854:	d001      	beq.n	800585a <USB_DevInit+0xee>
  {
    ret = HAL_ERROR;
 8005856:	2301      	movs	r3, #1
 8005858:	75fb      	strb	r3, [r7, #23]
  }

  /* Clear all pending Device Interrupts */
  USBx_DEVICE->DIEPMSK = 0U;
 800585a:	68fb      	ldr	r3, [r7, #12]
 800585c:	f503 6300 	add.w	r3, r3, #2048	@ 0x800
 8005860:	461a      	mov	r2, r3
 8005862:	2300      	movs	r3, #0
 8005864:	6113      	str	r3, [r2, #16]
  USBx_DEVICE->DOEPMSK = 0U;
 8005866:	68fb      	ldr	r3, [r7, #12]
 8005868:	f503 6300 	add.w	r3, r3, #2048	@ 0x800
 800586c:	461a      	mov	r2, r3
 800586e:	2300      	movs	r3, #0
 8005870:	6153      	str	r3, [r2, #20]
  USBx_DEVICE->DAINTMSK = 0U;
 8005872:	68fb      	ldr	r3, [r7, #12]
 8005874:	f503 6300 	add.w	r3, r3, #2048	@ 0x800
 8005878:	461a      	mov	r2, r3
 800587a:	2300      	movs	r3, #0
 800587c:	61d3      	str	r3, [r2, #28]

  for (i = 0U; i < cfg.dev_endpoints; i++)
 800587e:	2300      	movs	r3, #0
 8005880:	613b      	str	r3, [r7, #16]
 8005882:	e043      	b.n	800590c <USB_DevInit+0x1a0>
  {
    if ((USBx_INEP(i)->DIEPCTL & USB_OTG_DIEPCTL_EPENA) == USB_OTG_DIEPCTL_EPENA)
 8005884:	693b      	ldr	r3, [r7, #16]
 8005886:	015a      	lsls	r2, r3, #5
 8005888:	68fb      	ldr	r3, [r7, #12]
 800588a:	4413      	add	r3, r2
 800588c:	f503 6310 	add.w	r3, r3, #2304	@ 0x900
 8005890:	681b      	ldr	r3, [r3, #0]
 8005892:	f003 4300 	and.w	r3, r3, #2147483648	@ 0x80000000
 8005896:	f1b3 4f00 	cmp.w	r3, #2147483648	@ 0x80000000
 800589a:	d118      	bne.n	80058ce <USB_DevInit+0x162>
    {
      if (i == 0U)
 800589c:	693b      	ldr	r3, [r7, #16]
 800589e:	2b00      	cmp	r3, #0
 80058a0:	d10a      	bne.n	80058b8 <USB_DevInit+0x14c>
      {
        USBx_INEP(i)->DIEPCTL = USB_OTG_DIEPCTL_SNAK;
 80058a2:	693b      	ldr	r3, [r7, #16]
 80058a4:	015a      	lsls	r2, r3, #5
 80058a6:	68fb      	ldr	r3, [r7, #12]
 80058a8:	4413      	add	r3, r2
 80058aa:	f503 6310 	add.w	r3, r3, #2304	@ 0x900
 80058ae:	461a      	mov	r2, r3
 80058b0:	f04f 6300 	mov.w	r3, #134217728	@ 0x8000000
 80058b4:	6013      	str	r3, [r2, #0]
 80058b6:	e013      	b.n	80058e0 <USB_DevInit+0x174>
      }
      else
      {
        USBx_INEP(i)->DIEPCTL = USB_OTG_DIEPCTL_EPDIS | USB_OTG_DIEPCTL_SNAK;
 80058b8:	693b      	ldr	r3, [r7, #16]
 80058ba:	015a      	lsls	r2, r3, #5
 80058bc:	68fb      	ldr	r3, [r7, #12]
 80058be:	4413      	add	r3, r2
 80058c0:	f503 6310 	add.w	r3, r3, #2304	@ 0x900
 80058c4:	461a      	mov	r2, r3
 80058c6:	f04f 4390 	mov.w	r3, #1207959552	@ 0x48000000
 80058ca:	6013      	str	r3, [r2, #0]
 80058cc:	e008      	b.n	80058e0 <USB_DevInit+0x174>
      }
    }
    else
    {
      USBx_INEP(i)->DIEPCTL = 0U;
 80058ce:	693b      	ldr	r3, [r7, #16]
 80058d0:	015a      	lsls	r2, r3, #5
 80058d2:	68fb      	ldr	r3, [r7, #12]
 80058d4:	4413      	add	r3, r2
 80058d6:	f503 6310 	add.w	r3, r3, #2304	@ 0x900
 80058da:	461a      	mov	r2, r3
 80058dc:	2300      	movs	r3, #0
 80058de:	6013      	str	r3, [r2, #0]
    }

    USBx_INEP(i)->DIEPTSIZ = 0U;
 80058e0:	693b      	ldr	r3, [r7, #16]
 80058e2:	015a      	lsls	r2, r3, #5
 80058e4:	68fb      	ldr	r3, [r7, #12]
 80058e6:	4413      	add	r3, r2
 80058e8:	f503 6310 	add.w	r3, r3, #2304	@ 0x900
 80058ec:	461a      	mov	r2, r3
 80058ee:	2300      	movs	r3, #0
 80058f0:	6113      	str	r3, [r2, #16]
    USBx_INEP(i)->DIEPINT  = 0xFB7FU;
 80058f2:	693b      	ldr	r3, [r7, #16]
 80058f4:	015a      	lsls	r2, r3, #5
 80058f6:	68fb      	ldr	r3, [r7, #12]
 80058f8:	4413      	add	r3, r2
 80058fa:	f503 6310 	add.w	r3, r3, #2304	@ 0x900
 80058fe:	461a      	mov	r2, r3
 8005900:	f64f 337f 	movw	r3, #64383	@ 0xfb7f
 8005904:	6093      	str	r3, [r2, #8]
  for (i = 0U; i < cfg.dev_endpoints; i++)
 8005906:	693b      	ldr	r3, [r7, #16]
 8005908:	3301      	adds	r3, #1
 800590a:	613b      	str	r3, [r7, #16]
 800590c:	f897 3024 	ldrb.w	r3, [r7, #36]	@ 0x24
 8005910:	461a      	mov	r2, r3
 8005912:	693b      	ldr	r3, [r7, #16]
 8005914:	4293      	cmp	r3, r2
 8005916:	d3b5      	bcc.n	8005884 <USB_DevInit+0x118>
  }

  for (i = 0U; i < cfg.dev_endpoints; i++)
 8005918:	2300      	movs	r3, #0
 800591a:	613b      	str	r3, [r7, #16]
 800591c:	e043      	b.n	80059a6 <USB_DevInit+0x23a>
  {
    if ((USBx_OUTEP(i)->DOEPCTL & USB_OTG_DOEPCTL_EPENA) == USB_OTG_DOEPCTL_EPENA)
 800591e:	693b      	ldr	r3, [r7, #16]
 8005920:	015a      	lsls	r2, r3, #5
 8005922:	68fb      	ldr	r3, [r7, #12]
 8005924:	4413      	add	r3, r2
 8005926:	f503 6330 	add.w	r3, r3, #2816	@ 0xb00
 800592a:	681b      	ldr	r3, [r3, #0]
 800592c:	f003 4300 	and.w	r3, r3, #2147483648	@ 0x80000000
 8005930:	f1b3 4f00 	cmp.w	r3, #2147483648	@ 0x80000000
 8005934:	d118      	bne.n	8005968 <USB_DevInit+0x1fc>
    {
      if (i == 0U)
 8005936:	693b      	ldr	r3, [r7, #16]
 8005938:	2b00      	cmp	r3, #0
 800593a:	d10a      	bne.n	8005952 <USB_DevInit+0x1e6>
      {
        USBx_OUTEP(i)->DOEPCTL = USB_OTG_DOEPCTL_SNAK;
 800593c:	693b      	ldr	r3, [r7, #16]
 800593e:	015a      	lsls	r2, r3, #5
 8005940:	68fb      	ldr	r3, [r7, #12]
 8005942:	4413      	add	r3, r2
 8005944:	f503 6330 	add.w	r3, r3, #2816	@ 0xb00
 8005948:	461a      	mov	r2, r3
 800594a:	f04f 6300 	mov.w	r3, #134217728	@ 0x8000000
 800594e:	6013      	str	r3, [r2, #0]
 8005950:	e013      	b.n	800597a <USB_DevInit+0x20e>
      }
      else
      {
        USBx_OUTEP(i)->DOEPCTL = USB_OTG_DOEPCTL_EPDIS | USB_OTG_DOEPCTL_SNAK;
 8005952:	693b      	ldr	r3, [r7, #16]
 8005954:	015a      	lsls	r2, r3, #5
 8005956:	68fb      	ldr	r3, [r7, #12]
 8005958:	4413      	add	r3, r2
 800595a:	f503 6330 	add.w	r3, r3, #2816	@ 0xb00
 800595e:	461a      	mov	r2, r3
 8005960:	f04f 4390 	mov.w	r3, #1207959552	@ 0x48000000
 8005964:	6013      	str	r3, [r2, #0]
 8005966:	e008      	b.n	800597a <USB_DevInit+0x20e>
      }
    }
    else
    {
      USBx_OUTEP(i)->DOEPCTL = 0U;
 8005968:	693b      	ldr	r3, [r7, #16]
 800596a:	015a      	lsls	r2, r3, #5
 800596c:	68fb      	ldr	r3, [r7, #12]
 800596e:	4413      	add	r3, r2
 8005970:	f503 6330 	add.w	r3, r3, #2816	@ 0xb00
 8005974:	461a      	mov	r2, r3
 8005976:	2300      	movs	r3, #0
 8005978:	6013      	str	r3, [r2, #0]
    }

    USBx_OUTEP(i)->DOEPTSIZ = 0U;
 800597a:	693b      	ldr	r3, [r7, #16]
 800597c:	015a      	lsls	r2, r3, #5
 800597e:	68fb      	ldr	r3, [r7, #12]
 8005980:	4413      	add	r3, r2
 8005982:	f503 6330 	add.w	r3, r3, #2816	@ 0xb00
 8005986:	461a      	mov	r2, r3
 8005988:	2300      	movs	r3, #0
 800598a:	6113      	str	r3, [r2, #16]
    USBx_OUTEP(i)->DOEPINT  = 0xFB7FU;
 800598c:	693b      	ldr	r3, [r7, #16]
 800598e:	015a      	lsls	r2, r3, #5
 8005990:	68fb      	ldr	r3, [r7, #12]
 8005992:	4413      	add	r3, r2
 8005994:	f503 6330 	add.w	r3, r3, #2816	@ 0xb00
 8005998:	461a      	mov	r2, r3
 800599a:	f64f 337f 	movw	r3, #64383	@ 0xfb7f
 800599e:	6093      	str	r3, [r2, #8]
  for (i = 0U; i < cfg.dev_endpoints; i++)
 80059a0:	693b      	ldr	r3, [r7, #16]
 80059a2:	3301      	adds	r3, #1
 80059a4:	613b      	str	r3, [r7, #16]
 80059a6:	f897 3024 	ldrb.w	r3, [r7, #36]	@ 0x24
 80059aa:	461a      	mov	r2, r3
 80059ac:	693b      	ldr	r3, [r7, #16]
 80059ae:	4293      	cmp	r3, r2
 80059b0:	d3b5      	bcc.n	800591e <USB_DevInit+0x1b2>
  }

  USBx_DEVICE->DIEPMSK &= ~(USB_OTG_DIEPMSK_TXFURM);
 80059b2:	68fb      	ldr	r3, [r7, #12]
 80059b4:	f503 6300 	add.w	r3, r3, #2048	@ 0x800
 80059b8:	691b      	ldr	r3, [r3, #16]
 80059ba:	68fa      	ldr	r2, [r7, #12]
 80059bc:	f502 6200 	add.w	r2, r2, #2048	@ 0x800
 80059c0:	f423 7380 	bic.w	r3, r3, #256	@ 0x100
 80059c4:	6113      	str	r3, [r2, #16]

  /* Disable all interrupts. */
  USBx->GINTMSK = 0U;
 80059c6:	687b      	ldr	r3, [r7, #4]
 80059c8:	2200      	movs	r2, #0
 80059ca:	619a      	str	r2, [r3, #24]

  /* Clear any pending interrupts */
  USBx->GINTSTS = 0xBFFFFFFFU;
 80059cc:	687b      	ldr	r3, [r7, #4]
 80059ce:	f06f 4280 	mvn.w	r2, #1073741824	@ 0x40000000
 80059d2:	615a      	str	r2, [r3, #20]

  /* Enable the common interrupts */
  if (cfg.dma_enable == 0U)
 80059d4:	f897 3026 	ldrb.w	r3, [r7, #38]	@ 0x26
 80059d8:	2b00      	cmp	r3, #0
 80059da:	d105      	bne.n	80059e8 <USB_DevInit+0x27c>
  {
    USBx->GINTMSK |= USB_OTG_GINTMSK_RXFLVLM;
 80059dc:	687b      	ldr	r3, [r7, #4]
 80059de:	699b      	ldr	r3, [r3, #24]
 80059e0:	f043 0210 	orr.w	r2, r3, #16
 80059e4:	687b      	ldr	r3, [r7, #4]
 80059e6:	619a      	str	r2, [r3, #24]
  }

  /* Enable interrupts matching to the Device mode ONLY */
  USBx->GINTMSK |= USB_OTG_GINTMSK_USBSUSPM | USB_OTG_GINTMSK_USBRST |
 80059e8:	687b      	ldr	r3, [r7, #4]
 80059ea:	699a      	ldr	r2, [r3, #24]
 80059ec:	4b10      	ldr	r3, [pc, #64]	@ (8005a30 <USB_DevInit+0x2c4>)
 80059ee:	4313      	orrs	r3, r2
 80059f0:	687a      	ldr	r2, [r7, #4]
 80059f2:	6193      	str	r3, [r2, #24]
                   USB_OTG_GINTMSK_ENUMDNEM | USB_OTG_GINTMSK_IEPINT |
                   USB_OTG_GINTMSK_OEPINT   | USB_OTG_GINTMSK_IISOIXFRM |
                   USB_OTG_GINTMSK_PXFRM_IISOOXFRM | USB_OTG_GINTMSK_WUIM;

  if (cfg.Sof_enable != 0U)
 80059f4:	f897 302a 	ldrb.w	r3, [r7, #42]	@ 0x2a
 80059f8:	2b00      	cmp	r3, #0
 80059fa:	d005      	beq.n	8005a08 <USB_DevInit+0x29c>
  {
    USBx->GINTMSK |= USB_OTG_GINTMSK_SOFM;
 80059fc:	687b      	ldr	r3, [r7, #4]
 80059fe:	699b      	ldr	r3, [r3, #24]
 8005a00:	f043 0208 	orr.w	r2, r3, #8
 8005a04:	687b      	ldr	r3, [r7, #4]
 8005a06:	619a      	str	r2, [r3, #24]
  }

  if (cfg.vbus_sensing_enable == 1U)
 8005a08:	f897 302e 	ldrb.w	r3, [r7, #46]	@ 0x2e
 8005a0c:	2b01      	cmp	r3, #1
 8005a0e:	d107      	bne.n	8005a20 <USB_DevInit+0x2b4>
  {
    USBx->GINTMSK |= (USB_OTG_GINTMSK_SRQIM | USB_OTG_GINTMSK_OTGINT);
 8005a10:	687b      	ldr	r3, [r7, #4]
 8005a12:	699b      	ldr	r3, [r3, #24]
 8005a14:	f043 4380 	orr.w	r3, r3, #1073741824	@ 0x40000000
 8005a18:	f043 0304 	orr.w	r3, r3, #4
 8005a1c:	687a      	ldr	r2, [r7, #4]
 8005a1e:	6193      	str	r3, [r2, #24]
  }

  return ret;
 8005a20:	7dfb      	ldrb	r3, [r7, #23]
}
 8005a22:	4618      	mov	r0, r3
 8005a24:	3718      	adds	r7, #24
 8005a26:	46bd      	mov	sp, r7
 8005a28:	e8bd 4080 	ldmia.w	sp!, {r7, lr}
 8005a2c:	b004      	add	sp, #16
 8005a2e:	4770      	bx	lr
 8005a30:	803c3800 	.word	0x803c3800

08005a34 <USB_FlushTxFifo>:
  *         This parameter can be a value from 1 to 15
            15 means Flush all Tx FIFOs
  * @retval HAL status
  */
HAL_StatusTypeDef USB_FlushTxFifo(USB_OTG_GlobalTypeDef *USBx, uint32_t num)
{
 8005a34:	b480      	push	{r7}
 8005a36:	b085      	sub	sp, #20
 8005a38:	af00      	add	r7, sp, #0
 8005a3a:	6078      	str	r0, [r7, #4]
 8005a3c:	6039      	str	r1, [r7, #0]
  __IO uint32_t count = 0U;
 8005a3e:	2300      	movs	r3, #0
 8005a40:	60fb      	str	r3, [r7, #12]

  /* Wait for AHB master IDLE state. */
  do
  {
    count++;
 8005a42:	68fb      	ldr	r3, [r7, #12]
 8005a44:	3301      	adds	r3, #1
 8005a46:	60fb      	str	r3, [r7, #12]

    if (count > HAL_USB_TIMEOUT)
 8005a48:	68fb      	ldr	r3, [r7, #12]
 8005a4a:	f1b3 6f70 	cmp.w	r3, #251658240	@ 0xf000000
 8005a4e:	d901      	bls.n	8005a54 <USB_FlushTxFifo+0x20>
    {
      return HAL_TIMEOUT;
 8005a50:	2303      	movs	r3, #3
 8005a52:	e01b      	b.n	8005a8c <USB_FlushTxFifo+0x58>
    }
  } while ((USBx->GRSTCTL & USB_OTG_GRSTCTL_AHBIDL) == 0U);
 8005a54:	687b      	ldr	r3, [r7, #4]
 8005a56:	691b      	ldr	r3, [r3, #16]
 8005a58:	2b00      	cmp	r3, #0
 8005a5a:	daf2      	bge.n	8005a42 <USB_FlushTxFifo+0xe>

  /* Flush TX Fifo */
  count = 0U;
 8005a5c:	2300      	movs	r3, #0
 8005a5e:	60fb      	str	r3, [r7, #12]
  USBx->GRSTCTL = (USB_OTG_GRSTCTL_TXFFLSH | (num << 6));
 8005a60:	683b      	ldr	r3, [r7, #0]
 8005a62:	019b      	lsls	r3, r3, #6
 8005a64:	f043 0220 	orr.w	r2, r3, #32
 8005a68:	687b      	ldr	r3, [r7, #4]
 8005a6a:	611a      	str	r2, [r3, #16]

  do
  {
    count++;
 8005a6c:	68fb      	ldr	r3, [r7, #12]
 8005a6e:	3301      	adds	r3, #1
 8005a70:	60fb      	str	r3, [r7, #12]

    if (count > HAL_USB_TIMEOUT)
 8005a72:	68fb      	ldr	r3, [r7, #12]
 8005a74:	f1b3 6f70 	cmp.w	r3, #251658240	@ 0xf000000
 8005a78:	d901      	bls.n	8005a7e <USB_FlushTxFifo+0x4a>
    {
      return HAL_TIMEOUT;
 8005a7a:	2303      	movs	r3, #3
 8005a7c:	e006      	b.n	8005a8c <USB_FlushTxFifo+0x58>
    }
  } while ((USBx->GRSTCTL & USB_OTG_GRSTCTL_TXFFLSH) == USB_OTG_GRSTCTL_TXFFLSH);
 8005a7e:	687b      	ldr	r3, [r7, #4]
 8005a80:	691b      	ldr	r3, [r3, #16]
 8005a82:	f003 0320 	and.w	r3, r3, #32
 8005a86:	2b20      	cmp	r3, #32
 8005a88:	d0f0      	beq.n	8005a6c <USB_FlushTxFifo+0x38>

  return HAL_OK;
 8005a8a:	2300      	movs	r3, #0
}
 8005a8c:	4618      	mov	r0, r3
 8005a8e:	3714      	adds	r7, #20
 8005a90:	46bd      	mov	sp, r7
 8005a92:	f85d 7b04 	ldr.w	r7, [sp], #4
 8005a96:	4770      	bx	lr

08005a98 <USB_FlushRxFifo>:
  * @brief  USB_FlushRxFifo  Flush Rx FIFO
  * @param  USBx  Selected device
  * @retval HAL status
  */
HAL_StatusTypeDef USB_FlushRxFifo(USB_OTG_GlobalTypeDef *USBx)
{
 8005a98:	b480      	push	{r7}
 8005a9a:	b085      	sub	sp, #20
 8005a9c:	af00      	add	r7, sp, #0
 8005a9e:	6078      	str	r0, [r7, #4]
  __IO uint32_t count = 0U;
 8005aa0:	2300      	movs	r3, #0
 8005aa2:	60fb      	str	r3, [r7, #12]

  /* Wait for AHB master IDLE state. */
  do
  {
    count++;
 8005aa4:	68fb      	ldr	r3, [r7, #12]
 8005aa6:	3301      	adds	r3, #1
 8005aa8:	60fb      	str	r3, [r7, #12]

    if (count > HAL_USB_TIMEOUT)
 8005aaa:	68fb      	ldr	r3, [r7, #12]
 8005aac:	f1b3 6f70 	cmp.w	r3, #251658240	@ 0xf000000
 8005ab0:	d901      	bls.n	8005ab6 <USB_FlushRxFifo+0x1e>
    {
      return HAL_TIMEOUT;
 8005ab2:	2303      	movs	r3, #3
 8005ab4:	e018      	b.n	8005ae8 <USB_FlushRxFifo+0x50>
    }
  } while ((USBx->GRSTCTL & USB_OTG_GRSTCTL_AHBIDL) == 0U);
 8005ab6:	687b      	ldr	r3, [r7, #4]
 8005ab8:	691b      	ldr	r3, [r3, #16]
 8005aba:	2b00      	cmp	r3, #0
 8005abc:	daf2      	bge.n	8005aa4 <USB_FlushRxFifo+0xc>

  /* Flush RX Fifo */
  count = 0U;
 8005abe:	2300      	movs	r3, #0
 8005ac0:	60fb      	str	r3, [r7, #12]
  USBx->GRSTCTL = USB_OTG_GRSTCTL_RXFFLSH;
 8005ac2:	687b      	ldr	r3, [r7, #4]
 8005ac4:	2210      	movs	r2, #16
 8005ac6:	611a      	str	r2, [r3, #16]

  do
  {
    count++;
 8005ac8:	68fb      	ldr	r3, [r7, #12]
 8005aca:	3301      	adds	r3, #1
 8005acc:	60fb      	str	r3, [r7, #12]

    if (count > HAL_USB_TIMEOUT)
 8005ace:	68fb      	ldr	r3, [r7, #12]
 8005ad0:	f1b3 6f70 	cmp.w	r3, #251658240	@ 0xf000000
 8005ad4:	d901      	bls.n	8005ada <USB_FlushRxFifo+0x42>
    {
      return HAL_TIMEOUT;
 8005ad6:	2303      	movs	r3, #3
 8005ad8:	e006      	b.n	8005ae8 <USB_FlushRxFifo+0x50>
    }
  } while ((USBx->GRSTCTL & USB_OTG_GRSTCTL_RXFFLSH) == USB_OTG_GRSTCTL_RXFFLSH);
 8005ada:	687b      	ldr	r3, [r7, #4]
 8005adc:	691b      	ldr	r3, [r3, #16]
 8005ade:	f003 0310 	and.w	r3, r3, #16
 8005ae2:	2b10      	cmp	r3, #16
 8005ae4:	d0f0      	beq.n	8005ac8 <USB_FlushRxFifo+0x30>

  return HAL_OK;
 8005ae6:	2300      	movs	r3, #0
}
 8005ae8:	4618      	mov	r0, r3
 8005aea:	3714      	adds	r7, #20
 8005aec:	46bd      	mov	sp, r7
 8005aee:	f85d 7b04 	ldr.w	r7, [sp], #4
 8005af2:	4770      	bx	lr

08005af4 <USB_SetDevSpeed>:
  *            @arg USB_OTG_SPEED_HIGH_IN_FULL: High speed core in Full Speed mode
  *            @arg USB_OTG_SPEED_FULL: Full speed mode
  * @retval  Hal status
  */
HAL_StatusTypeDef USB_SetDevSpeed(const USB_OTG_GlobalTypeDef *USBx, uint8_t speed)
{
 8005af4:	b480      	push	{r7}
 8005af6:	b085      	sub	sp, #20
 8005af8:	af00      	add	r7, sp, #0
 8005afa:	6078      	str	r0, [r7, #4]
 8005afc:	460b      	mov	r3, r1
 8005afe:	70fb      	strb	r3, [r7, #3]
  uint32_t USBx_BASE = (uint32_t)USBx;
 8005b00:	687b      	ldr	r3, [r7, #4]
 8005b02:	60fb      	str	r3, [r7, #12]

  USBx_DEVICE->DCFG |= speed;
 8005b04:	68fb      	ldr	r3, [r7, #12]
 8005b06:	f503 6300 	add.w	r3, r3, #2048	@ 0x800
 8005b0a:	681a      	ldr	r2, [r3, #0]
 8005b0c:	78fb      	ldrb	r3, [r7, #3]
 8005b0e:	68f9      	ldr	r1, [r7, #12]
 8005b10:	f501 6100 	add.w	r1, r1, #2048	@ 0x800
 8005b14:	4313      	orrs	r3, r2
 8005b16:	600b      	str	r3, [r1, #0]
  return HAL_OK;
 8005b18:	2300      	movs	r3, #0
}
 8005b1a:	4618      	mov	r0, r3
 8005b1c:	3714      	adds	r7, #20
 8005b1e:	46bd      	mov	sp, r7
 8005b20:	f85d 7b04 	ldr.w	r7, [sp], #4
 8005b24:	4770      	bx	lr

08005b26 <USB_GetDevSpeed>:
  *          This parameter can be one of these values:
  *            @arg USBD_HS_SPEED: High speed mode
  *            @arg USBD_FS_SPEED: Full speed mode
  */
uint8_t USB_GetDevSpeed(const USB_OTG_GlobalTypeDef *USBx)
{
 8005b26:	b480      	push	{r7}
 8005b28:	b087      	sub	sp, #28
 8005b2a:	af00      	add	r7, sp, #0
 8005b2c:	6078      	str	r0, [r7, #4]
  uint32_t USBx_BASE = (uint32_t)USBx;
 8005b2e:	687b      	ldr	r3, [r7, #4]
 8005b30:	613b      	str	r3, [r7, #16]
  uint8_t speed;
  uint32_t DevEnumSpeed = USBx_DEVICE->DSTS & USB_OTG_DSTS_ENUMSPD;
 8005b32:	693b      	ldr	r3, [r7, #16]
 8005b34:	f503 6300 	add.w	r3, r3, #2048	@ 0x800
 8005b38:	689b      	ldr	r3, [r3, #8]
 8005b3a:	f003 0306 	and.w	r3, r3, #6
 8005b3e:	60fb      	str	r3, [r7, #12]

  if (DevEnumSpeed == DSTS_ENUMSPD_HS_PHY_30MHZ_OR_60MHZ)
 8005b40:	68fb      	ldr	r3, [r7, #12]
 8005b42:	2b00      	cmp	r3, #0
 8005b44:	d102      	bne.n	8005b4c <USB_GetDevSpeed+0x26>
  {
    speed = USBD_HS_SPEED;
 8005b46:	2300      	movs	r3, #0
 8005b48:	75fb      	strb	r3, [r7, #23]
 8005b4a:	e00a      	b.n	8005b62 <USB_GetDevSpeed+0x3c>
  }
  else if ((DevEnumSpeed == DSTS_ENUMSPD_FS_PHY_30MHZ_OR_60MHZ) ||
 8005b4c:	68fb      	ldr	r3, [r7, #12]
 8005b4e:	2b02      	cmp	r3, #2
 8005b50:	d002      	beq.n	8005b58 <USB_GetDevSpeed+0x32>
 8005b52:	68fb      	ldr	r3, [r7, #12]
 8005b54:	2b06      	cmp	r3, #6
 8005b56:	d102      	bne.n	8005b5e <USB_GetDevSpeed+0x38>
           (DevEnumSpeed == DSTS_ENUMSPD_FS_PHY_48MHZ))
  {
    speed = USBD_FS_SPEED;
 8005b58:	2302      	movs	r3, #2
 8005b5a:	75fb      	strb	r3, [r7, #23]
 8005b5c:	e001      	b.n	8005b62 <USB_GetDevSpeed+0x3c>
  }
  else
  {
    speed = 0xFU;
 8005b5e:	230f      	movs	r3, #15
 8005b60:	75fb      	strb	r3, [r7, #23]
  }

  return speed;
 8005b62:	7dfb      	ldrb	r3, [r7, #23]
}
 8005b64:	4618      	mov	r0, r3
 8005b66:	371c      	adds	r7, #28
 8005b68:	46bd      	mov	sp, r7
 8005b6a:	f85d 7b04 	ldr.w	r7, [sp], #4
 8005b6e:	4770      	bx	lr

08005b70 <USB_ActivateEndpoint>:
  * @param  USBx  Selected device
  * @param  ep pointer to endpoint structure
  * @retval HAL status
  */
HAL_StatusTypeDef USB_ActivateEndpoint(const USB_OTG_GlobalTypeDef *USBx, const USB_OTG_EPTypeDef *ep)
{
 8005b70:	b480      	push	{r7}
 8005b72:	b085      	sub	sp, #20
 8005b74:	af00      	add	r7, sp, #0
 8005b76:	6078      	str	r0, [r7, #4]
 8005b78:	6039      	str	r1, [r7, #0]
  uint32_t USBx_BASE = (uint32_t)USBx;
 8005b7a:	687b      	ldr	r3, [r7, #4]
 8005b7c:	60fb      	str	r3, [r7, #12]
  uint32_t epnum = (uint32_t)ep->num;
 8005b7e:	683b      	ldr	r3, [r7, #0]
 8005b80:	781b      	ldrb	r3, [r3, #0]
 8005b82:	60bb      	str	r3, [r7, #8]

  if (ep->is_in == 1U)
 8005b84:	683b      	ldr	r3, [r7, #0]
 8005b86:	785b      	ldrb	r3, [r3, #1]
 8005b88:	2b01      	cmp	r3, #1
 8005b8a:	d13a      	bne.n	8005c02 <USB_ActivateEndpoint+0x92>
  {
    USBx_DEVICE->DAINTMSK |= USB_OTG_DAINTMSK_IEPM & (uint32_t)(1UL << (ep->num & EP_ADDR_MSK));
 8005b8c:	68fb      	ldr	r3, [r7, #12]
 8005b8e:	f503 6300 	add.w	r3, r3, #2048	@ 0x800
 8005b92:	69da      	ldr	r2, [r3, #28]
 8005b94:	683b      	ldr	r3, [r7, #0]
 8005b96:	781b      	ldrb	r3, [r3, #0]
 8005b98:	f003 030f 	and.w	r3, r3, #15
 8005b9c:	2101      	movs	r1, #1
 8005b9e:	fa01 f303 	lsl.w	r3, r1, r3
 8005ba2:	b29b      	uxth	r3, r3
 8005ba4:	68f9      	ldr	r1, [r7, #12]
 8005ba6:	f501 6100 	add.w	r1, r1, #2048	@ 0x800
 8005baa:	4313      	orrs	r3, r2
 8005bac:	61cb      	str	r3, [r1, #28]

    if ((USBx_INEP(epnum)->DIEPCTL & USB_OTG_DIEPCTL_USBAEP) == 0U)
 8005bae:	68bb      	ldr	r3, [r7, #8]
 8005bb0:	015a      	lsls	r2, r3, #5
 8005bb2:	68fb      	ldr	r3, [r7, #12]
 8005bb4:	4413      	add	r3, r2
 8005bb6:	f503 6310 	add.w	r3, r3, #2304	@ 0x900
 8005bba:	681b      	ldr	r3, [r3, #0]
 8005bbc:	f403 4300 	and.w	r3, r3, #32768	@ 0x8000
 8005bc0:	2b00      	cmp	r3, #0
 8005bc2:	d155      	bne.n	8005c70 <USB_ActivateEndpoint+0x100>
    {
      USBx_INEP(epnum)->DIEPCTL |= (ep->maxpacket & USB_OTG_DIEPCTL_MPSIZ) |
 8005bc4:	68bb      	ldr	r3, [r7, #8]
 8005bc6:	015a      	lsls	r2, r3, #5
 8005bc8:	68fb      	ldr	r3, [r7, #12]
 8005bca:	4413      	add	r3, r2
 8005bcc:	f503 6310 	add.w	r3, r3, #2304	@ 0x900
 8005bd0:	681a      	ldr	r2, [r3, #0]
 8005bd2:	683b      	ldr	r3, [r7, #0]
 8005bd4:	689b      	ldr	r3, [r3, #8]
 8005bd6:	f3c3 010a 	ubfx	r1, r3, #0, #11
                                   ((uint32_t)ep->type << 18) | (epnum << 22) |
 8005bda:	683b      	ldr	r3, [r7, #0]
 8005bdc:	791b      	ldrb	r3, [r3, #4]
 8005bde:	049b      	lsls	r3, r3, #18
      USBx_INEP(epnum)->DIEPCTL |= (ep->maxpacket & USB_OTG_DIEPCTL_MPSIZ) |
 8005be0:	4319      	orrs	r1, r3
                                   ((uint32_t)ep->type << 18) | (epnum << 22) |
 8005be2:	68bb      	ldr	r3, [r7, #8]
 8005be4:	059b      	lsls	r3, r3, #22
 8005be6:	430b      	orrs	r3, r1
      USBx_INEP(epnum)->DIEPCTL |= (ep->maxpacket & USB_OTG_DIEPCTL_MPSIZ) |
 8005be8:	4313      	orrs	r3, r2
 8005bea:	68ba      	ldr	r2, [r7, #8]
 8005bec:	0151      	lsls	r1, r2, #5
 8005bee:	68fa      	ldr	r2, [r7, #12]
 8005bf0:	440a      	add	r2, r1
 8005bf2:	f502 6210 	add.w	r2, r2, #2304	@ 0x900
 8005bf6:	f043 5380 	orr.w	r3, r3, #268435456	@ 0x10000000
 8005bfa:	f443 4300 	orr.w	r3, r3, #32768	@ 0x8000
 8005bfe:	6013      	str	r3, [r2, #0]
 8005c00:	e036      	b.n	8005c70 <USB_ActivateEndpoint+0x100>
                                   USB_OTG_DIEPCTL_USBAEP;
    }
  }
  else
  {
    USBx_DEVICE->DAINTMSK |= USB_OTG_DAINTMSK_OEPM & ((uint32_t)(1UL << (ep->num & EP_ADDR_MSK)) << 16);
 8005c02:	68fb      	ldr	r3, [r7, #12]
 8005c04:	f503 6300 	add.w	r3, r3, #2048	@ 0x800
 8005c08:	69da      	ldr	r2, [r3, #28]
 8005c0a:	683b      	ldr	r3, [r7, #0]
 8005c0c:	781b      	ldrb	r3, [r3, #0]
 8005c0e:	f003 030f 	and.w	r3, r3, #15
 8005c12:	2101      	movs	r1, #1
 8005c14:	fa01 f303 	lsl.w	r3, r1, r3
 8005c18:	041b      	lsls	r3, r3, #16
 8005c1a:	68f9      	ldr	r1, [r7, #12]
 8005c1c:	f501 6100 	add.w	r1, r1, #2048	@ 0x800
 8005c20:	4313      	orrs	r3, r2
 8005c22:	61cb      	str	r3, [r1, #28]

    if (((USBx_OUTEP(epnum)->DOEPCTL) & USB_OTG_DOEPCTL_USBAEP) == 0U)
 8005c24:	68bb      	ldr	r3, [r7, #8]
 8005c26:	015a      	lsls	r2, r3, #5
 8005c28:	68fb      	ldr	r3, [r7, #12]
 8005c2a:	4413      	add	r3, r2
 8005c2c:	f503 6330 	add.w	r3, r3, #2816	@ 0xb00
 8005c30:	681b      	ldr	r3, [r3, #0]
 8005c32:	f403 4300 	and.w	r3, r3, #32768	@ 0x8000
 8005c36:	2b00      	cmp	r3, #0
 8005c38:	d11a      	bne.n	8005c70 <USB_ActivateEndpoint+0x100>
    {
      USBx_OUTEP(epnum)->DOEPCTL |= (ep->maxpacket & USB_OTG_DOEPCTL_MPSIZ) |
 8005c3a:	68bb      	ldr	r3, [r7, #8]
 8005c3c:	015a      	lsls	r2, r3, #5
 8005c3e:	68fb      	ldr	r3, [r7, #12]
 8005c40:	4413      	add	r3, r2
 8005c42:	f503 6330 	add.w	r3, r3, #2816	@ 0xb00
 8005c46:	681a      	ldr	r2, [r3, #0]
 8005c48:	683b      	ldr	r3, [r7, #0]
 8005c4a:	689b      	ldr	r3, [r3, #8]
 8005c4c:	f3c3 010a 	ubfx	r1, r3, #0, #11
                                    ((uint32_t)ep->type << 18) |
 8005c50:	683b      	ldr	r3, [r7, #0]
 8005c52:	791b      	ldrb	r3, [r3, #4]
 8005c54:	049b      	lsls	r3, r3, #18
      USBx_OUTEP(epnum)->DOEPCTL |= (ep->maxpacket & USB_OTG_DOEPCTL_MPSIZ) |
 8005c56:	430b      	orrs	r3, r1
 8005c58:	4313      	orrs	r3, r2
 8005c5a:	68ba      	ldr	r2, [r7, #8]
 8005c5c:	0151      	lsls	r1, r2, #5
 8005c5e:	68fa      	ldr	r2, [r7, #12]
 8005c60:	440a      	add	r2, r1
 8005c62:	f502 6230 	add.w	r2, r2, #2816	@ 0xb00
 8005c66:	f043 5380 	orr.w	r3, r3, #268435456	@ 0x10000000
 8005c6a:	f443 4300 	orr.w	r3, r3, #32768	@ 0x8000
 8005c6e:	6013      	str	r3, [r2, #0]
                                    USB_OTG_DIEPCTL_SD0PID_SEVNFRM |
                                    USB_OTG_DOEPCTL_USBAEP;
    }
  }
  return HAL_OK;
 8005c70:	2300      	movs	r3, #0
}
 8005c72:	4618      	mov	r0, r3
 8005c74:	3714      	adds	r7, #20
 8005c76:	46bd      	mov	sp, r7
 8005c78:	f85d 7b04 	ldr.w	r7, [sp], #4
 8005c7c:	4770      	bx	lr
	...

08005c80 <USB_DeactivateEndpoint>:
  * @param  USBx  Selected device
  * @param  ep pointer to endpoint structure
  * @retval HAL status
  */
HAL_StatusTypeDef USB_DeactivateEndpoint(const USB_OTG_GlobalTypeDef *USBx, const USB_OTG_EPTypeDef *ep)
{
 8005c80:	b480      	push	{r7}
 8005c82:	b085      	sub	sp, #20
 8005c84:	af00      	add	r7, sp, #0
 8005c86:	6078      	str	r0, [r7, #4]
 8005c88:	6039      	str	r1, [r7, #0]
  uint32_t USBx_BASE = (uint32_t)USBx;
 8005c8a:	687b      	ldr	r3, [r7, #4]
 8005c8c:	60fb      	str	r3, [r7, #12]
  uint32_t epnum = (uint32_t)ep->num;
 8005c8e:	683b      	ldr	r3, [r7, #0]
 8005c90:	781b      	ldrb	r3, [r3, #0]
 8005c92:	60bb      	str	r3, [r7, #8]

  /* Read DEPCTLn register */
  if (ep->is_in == 1U)
 8005c94:	683b      	ldr	r3, [r7, #0]
 8005c96:	785b      	ldrb	r3, [r3, #1]
 8005c98:	2b01      	cmp	r3, #1
 8005c9a:	d161      	bne.n	8005d60 <USB_DeactivateEndpoint+0xe0>
  {
    if ((USBx_INEP(epnum)->DIEPCTL & USB_OTG_DIEPCTL_EPENA) == USB_OTG_DIEPCTL_EPENA)
 8005c9c:	68bb      	ldr	r3, [r7, #8]
 8005c9e:	015a      	lsls	r2, r3, #5
 8005ca0:	68fb      	ldr	r3, [r7, #12]
 8005ca2:	4413      	add	r3, r2
 8005ca4:	f503 6310 	add.w	r3, r3, #2304	@ 0x900
 8005ca8:	681b      	ldr	r3, [r3, #0]
 8005caa:	f003 4300 	and.w	r3, r3, #2147483648	@ 0x80000000
 8005cae:	f1b3 4f00 	cmp.w	r3, #2147483648	@ 0x80000000
 8005cb2:	d11f      	bne.n	8005cf4 <USB_DeactivateEndpoint+0x74>
    {
      USBx_INEP(epnum)->DIEPCTL |= USB_OTG_DIEPCTL_SNAK;
 8005cb4:	68bb      	ldr	r3, [r7, #8]
 8005cb6:	015a      	lsls	r2, r3, #5
 8005cb8:	68fb      	ldr	r3, [r7, #12]
 8005cba:	4413      	add	r3, r2
 8005cbc:	f503 6310 	add.w	r3, r3, #2304	@ 0x900
 8005cc0:	681b      	ldr	r3, [r3, #0]
 8005cc2:	68ba      	ldr	r2, [r7, #8]
 8005cc4:	0151      	lsls	r1, r2, #5
 8005cc6:	68fa      	ldr	r2, [r7, #12]
 8005cc8:	440a      	add	r2, r1
 8005cca:	f502 6210 	add.w	r2, r2, #2304	@ 0x900
 8005cce:	f043 6300 	orr.w	r3, r3, #134217728	@ 0x8000000
 8005cd2:	6013      	str	r3, [r2, #0]
      USBx_INEP(epnum)->DIEPCTL |= USB_OTG_DIEPCTL_EPDIS;
 8005cd4:	68bb      	ldr	r3, [r7, #8]
 8005cd6:	015a      	lsls	r2, r3, #5
 8005cd8:	68fb      	ldr	r3, [r7, #12]
 8005cda:	4413      	add	r3, r2
 8005cdc:	f503 6310 	add.w	r3, r3, #2304	@ 0x900
 8005ce0:	681b      	ldr	r3, [r3, #0]
 8005ce2:	68ba      	ldr	r2, [r7, #8]
 8005ce4:	0151      	lsls	r1, r2, #5
 8005ce6:	68fa      	ldr	r2, [r7, #12]
 8005ce8:	440a      	add	r2, r1
 8005cea:	f502 6210 	add.w	r2, r2, #2304	@ 0x900
 8005cee:	f043 4380 	orr.w	r3, r3, #1073741824	@ 0x40000000
 8005cf2:	6013      	str	r3, [r2, #0]
    }

    USBx_DEVICE->DEACHMSK &= ~(USB_OTG_DAINTMSK_IEPM & (uint32_t)(1UL << (ep->num & EP_ADDR_MSK)));
 8005cf4:	68fb      	ldr	r3, [r7, #12]
 8005cf6:	f503 6300 	add.w	r3, r3, #2048	@ 0x800
 8005cfa:	6bda      	ldr	r2, [r3, #60]	@ 0x3c
 8005cfc:	683b      	ldr	r3, [r7, #0]
 8005cfe:	781b      	ldrb	r3, [r3, #0]
 8005d00:	f003 030f 	and.w	r3, r3, #15
 8005d04:	2101      	movs	r1, #1
 8005d06:	fa01 f303 	lsl.w	r3, r1, r3
 8005d0a:	b29b      	uxth	r3, r3
 8005d0c:	43db      	mvns	r3, r3
 8005d0e:	68f9      	ldr	r1, [r7, #12]
 8005d10:	f501 6100 	add.w	r1, r1, #2048	@ 0x800
 8005d14:	4013      	ands	r3, r2
 8005d16:	63cb      	str	r3, [r1, #60]	@ 0x3c
    USBx_DEVICE->DAINTMSK &= ~(USB_OTG_DAINTMSK_IEPM & (uint32_t)(1UL << (ep->num & EP_ADDR_MSK)));
 8005d18:	68fb      	ldr	r3, [r7, #12]
 8005d1a:	f503 6300 	add.w	r3, r3, #2048	@ 0x800
 8005d1e:	69da      	ldr	r2, [r3, #28]
 8005d20:	683b      	ldr	r3, [r7, #0]
 8005d22:	781b      	ldrb	r3, [r3, #0]
 8005d24:	f003 030f 	and.w	r3, r3, #15
 8005d28:	2101      	movs	r1, #1
 8005d2a:	fa01 f303 	lsl.w	r3, r1, r3
 8005d2e:	b29b      	uxth	r3, r3
 8005d30:	43db      	mvns	r3, r3
 8005d32:	68f9      	ldr	r1, [r7, #12]
 8005d34:	f501 6100 	add.w	r1, r1, #2048	@ 0x800
 8005d38:	4013      	ands	r3, r2
 8005d3a:	61cb      	str	r3, [r1, #28]
    USBx_INEP(epnum)->DIEPCTL &= ~(USB_OTG_DIEPCTL_USBAEP |
 8005d3c:	68bb      	ldr	r3, [r7, #8]
 8005d3e:	015a      	lsls	r2, r3, #5
 8005d40:	68fb      	ldr	r3, [r7, #12]
 8005d42:	4413      	add	r3, r2
 8005d44:	f503 6310 	add.w	r3, r3, #2304	@ 0x900
 8005d48:	681a      	ldr	r2, [r3, #0]
 8005d4a:	68bb      	ldr	r3, [r7, #8]
 8005d4c:	0159      	lsls	r1, r3, #5
 8005d4e:	68fb      	ldr	r3, [r7, #12]
 8005d50:	440b      	add	r3, r1
 8005d52:	f503 6310 	add.w	r3, r3, #2304	@ 0x900
 8005d56:	4619      	mov	r1, r3
 8005d58:	4b35      	ldr	r3, [pc, #212]	@ (8005e30 <USB_DeactivateEndpoint+0x1b0>)
 8005d5a:	4013      	ands	r3, r2
 8005d5c:	600b      	str	r3, [r1, #0]
 8005d5e:	e060      	b.n	8005e22 <USB_DeactivateEndpoint+0x1a2>
                                   USB_OTG_DIEPCTL_SD0PID_SEVNFRM |
                                   USB_OTG_DIEPCTL_EPTYP);
  }
  else
  {
    if ((USBx_OUTEP(epnum)->DOEPCTL & USB_OTG_DOEPCTL_EPENA) == USB_OTG_DOEPCTL_EPENA)
 8005d60:	68bb      	ldr	r3, [r7, #8]
 8005d62:	015a      	lsls	r2, r3, #5
 8005d64:	68fb      	ldr	r3, [r7, #12]
 8005d66:	4413      	add	r3, r2
 8005d68:	f503 6330 	add.w	r3, r3, #2816	@ 0xb00
 8005d6c:	681b      	ldr	r3, [r3, #0]
 8005d6e:	f003 4300 	and.w	r3, r3, #2147483648	@ 0x80000000
 8005d72:	f1b3 4f00 	cmp.w	r3, #2147483648	@ 0x80000000
 8005d76:	d11f      	bne.n	8005db8 <USB_DeactivateEndpoint+0x138>
    {
      USBx_OUTEP(epnum)->DOEPCTL |= USB_OTG_DOEPCTL_SNAK;
 8005d78:	68bb      	ldr	r3, [r7, #8]
 8005d7a:	015a      	lsls	r2, r3, #5
 8005d7c:	68fb      	ldr	r3, [r7, #12]
 8005d7e:	4413      	add	r3, r2
 8005d80:	f503 6330 	add.w	r3, r3, #2816	@ 0xb00
 8005d84:	681b      	ldr	r3, [r3, #0]
 8005d86:	68ba      	ldr	r2, [r7, #8]
 8005d88:	0151      	lsls	r1, r2, #5
 8005d8a:	68fa      	ldr	r2, [r7, #12]
 8005d8c:	440a      	add	r2, r1
 8005d8e:	f502 6230 	add.w	r2, r2, #2816	@ 0xb00
 8005d92:	f043 6300 	orr.w	r3, r3, #134217728	@ 0x8000000
 8005d96:	6013      	str	r3, [r2, #0]
      USBx_OUTEP(epnum)->DOEPCTL |= USB_OTG_DOEPCTL_EPDIS;
 8005d98:	68bb      	ldr	r3, [r7, #8]
 8005d9a:	015a      	lsls	r2, r3, #5
 8005d9c:	68fb      	ldr	r3, [r7, #12]
 8005d9e:	4413      	add	r3, r2
 8005da0:	f503 6330 	add.w	r3, r3, #2816	@ 0xb00
 8005da4:	681b      	ldr	r3, [r3, #0]
 8005da6:	68ba      	ldr	r2, [r7, #8]
 8005da8:	0151      	lsls	r1, r2, #5
 8005daa:	68fa      	ldr	r2, [r7, #12]
 8005dac:	440a      	add	r2, r1
 8005dae:	f502 6230 	add.w	r2, r2, #2816	@ 0xb00
 8005db2:	f043 4380 	orr.w	r3, r3, #1073741824	@ 0x40000000
 8005db6:	6013      	str	r3, [r2, #0]
    }

    USBx_DEVICE->DEACHMSK &= ~(USB_OTG_DAINTMSK_OEPM & ((uint32_t)(1UL << (ep->num & EP_ADDR_MSK)) << 16));
 8005db8:	68fb      	ldr	r3, [r7, #12]
 8005dba:	f503 6300 	add.w	r3, r3, #2048	@ 0x800
 8005dbe:	6bda      	ldr	r2, [r3, #60]	@ 0x3c
 8005dc0:	683b      	ldr	r3, [r7, #0]
 8005dc2:	781b      	ldrb	r3, [r3, #0]
 8005dc4:	f003 030f 	and.w	r3, r3, #15
 8005dc8:	2101      	movs	r1, #1
 8005dca:	fa01 f303 	lsl.w	r3, r1, r3
 8005dce:	041b      	lsls	r3, r3, #16
 8005dd0:	43db      	mvns	r3, r3
 8005dd2:	68f9      	ldr	r1, [r7, #12]
 8005dd4:	f501 6100 	add.w	r1, r1, #2048	@ 0x800
 8005dd8:	4013      	ands	r3, r2
 8005dda:	63cb      	str	r3, [r1, #60]	@ 0x3c
    USBx_DEVICE->DAINTMSK &= ~(USB_OTG_DAINTMSK_OEPM & ((uint32_t)(1UL << (ep->num & EP_ADDR_MSK)) << 16));
 8005ddc:	68fb      	ldr	r3, [r7, #12]
 8005dde:	f503 6300 	add.w	r3, r3, #2048	@ 0x800
 8005de2:	69da      	ldr	r2, [r3, #28]
 8005de4:	683b      	ldr	r3, [r7, #0]
 8005de6:	781b      	ldrb	r3, [r3, #0]
 8005de8:	f003 030f 	and.w	r3, r3, #15
 8005dec:	2101      	movs	r1, #1
 8005dee:	fa01 f303 	lsl.w	r3, r1, r3
 8005df2:	041b      	lsls	r3, r3, #16
 8005df4:	43db      	mvns	r3, r3
 8005df6:	68f9      	ldr	r1, [r7, #12]
 8005df8:	f501 6100 	add.w	r1, r1, #2048	@ 0x800
 8005dfc:	4013      	ands	r3, r2
 8005dfe:	61cb      	str	r3, [r1, #28]
    USBx_OUTEP(epnum)->DOEPCTL &= ~(USB_OTG_DOEPCTL_USBAEP |
 8005e00:	68bb      	ldr	r3, [r7, #8]
 8005e02:	015a      	lsls	r2, r3, #5
 8005e04:	68fb      	ldr	r3, [r7, #12]
 8005e06:	4413      	add	r3, r2
 8005e08:	f503 6330 	add.w	r3, r3, #2816	@ 0xb00
 8005e0c:	681a      	ldr	r2, [r3, #0]
 8005e0e:	68bb      	ldr	r3, [r7, #8]
 8005e10:	0159      	lsls	r1, r3, #5
 8005e12:	68fb      	ldr	r3, [r7, #12]
 8005e14:	440b      	add	r3, r1
 8005e16:	f503 6330 	add.w	r3, r3, #2816	@ 0xb00
 8005e1a:	4619      	mov	r1, r3
 8005e1c:	4b05      	ldr	r3, [pc, #20]	@ (8005e34 <USB_DeactivateEndpoint+0x1b4>)
 8005e1e:	4013      	ands	r3, r2
 8005e20:	600b      	str	r3, [r1, #0]
                                    USB_OTG_DOEPCTL_MPSIZ |
                                    USB_OTG_DOEPCTL_SD0PID_SEVNFRM |
                                    USB_OTG_DOEPCTL_EPTYP);
  }

  return HAL_OK;
 8005e22:	2300      	movs	r3, #0
}
 8005e24:	4618      	mov	r0, r3
 8005e26:	3714      	adds	r7, #20
 8005e28:	46bd      	mov	sp, r7
 8005e2a:	f85d 7b04 	ldr.w	r7, [sp], #4
 8005e2e:	4770      	bx	lr
 8005e30:	ec337800 	.word	0xec337800
 8005e34:	eff37800 	.word	0xeff37800

08005e38 <USB_EPStartXfer>:
  *           0 : DMA feature not used
  *           1 : DMA feature used
  * @retval HAL status
  */
HAL_StatusTypeDef USB_EPStartXfer(USB_OTG_GlobalTypeDef *USBx, USB_OTG_EPTypeDef *ep, uint8_t dma)
{
 8005e38:	b580      	push	{r7, lr}
 8005e3a:	b08a      	sub	sp, #40	@ 0x28
 8005e3c:	af02      	add	r7, sp, #8
 8005e3e:	60f8      	str	r0, [r7, #12]
 8005e40:	60b9      	str	r1, [r7, #8]
 8005e42:	4613      	mov	r3, r2
 8005e44:	71fb      	strb	r3, [r7, #7]
  uint32_t USBx_BASE = (uint32_t)USBx;
 8005e46:	68fb      	ldr	r3, [r7, #12]
 8005e48:	61fb      	str	r3, [r7, #28]
  uint32_t epnum = (uint32_t)ep->num;
 8005e4a:	68bb      	ldr	r3, [r7, #8]
 8005e4c:	781b      	ldrb	r3, [r3, #0]
 8005e4e:	61bb      	str	r3, [r7, #24]
  uint16_t pktcnt;

  /* IN endpoint */
  if (ep->is_in == 1U)
 8005e50:	68bb      	ldr	r3, [r7, #8]
 8005e52:	785b      	ldrb	r3, [r3, #1]
 8005e54:	2b01      	cmp	r3, #1
 8005e56:	f040 817f 	bne.w	8006158 <USB_EPStartXfer+0x320>
  {
    /* Zero Length Packet? */
    if (ep->xfer_len == 0U)
 8005e5a:	68bb      	ldr	r3, [r7, #8]
 8005e5c:	691b      	ldr	r3, [r3, #16]
 8005e5e:	2b00      	cmp	r3, #0
 8005e60:	d132      	bne.n	8005ec8 <USB_EPStartXfer+0x90>
    {
      USBx_INEP(epnum)->DIEPTSIZ &= ~(USB_OTG_DIEPTSIZ_PKTCNT);
 8005e62:	69bb      	ldr	r3, [r7, #24]
 8005e64:	015a      	lsls	r2, r3, #5
 8005e66:	69fb      	ldr	r3, [r7, #28]
 8005e68:	4413      	add	r3, r2
 8005e6a:	f503 6310 	add.w	r3, r3, #2304	@ 0x900
 8005e6e:	691b      	ldr	r3, [r3, #16]
 8005e70:	69ba      	ldr	r2, [r7, #24]
 8005e72:	0151      	lsls	r1, r2, #5
 8005e74:	69fa      	ldr	r2, [r7, #28]
 8005e76:	440a      	add	r2, r1
 8005e78:	f502 6210 	add.w	r2, r2, #2304	@ 0x900
 8005e7c:	f023 53ff 	bic.w	r3, r3, #534773760	@ 0x1fe00000
 8005e80:	f423 13c0 	bic.w	r3, r3, #1572864	@ 0x180000
 8005e84:	6113      	str	r3, [r2, #16]
      USBx_INEP(epnum)->DIEPTSIZ |= (USB_OTG_DIEPTSIZ_PKTCNT & (1U << 19));
 8005e86:	69bb      	ldr	r3, [r7, #24]
 8005e88:	015a      	lsls	r2, r3, #5
 8005e8a:	69fb      	ldr	r3, [r7, #28]
 8005e8c:	4413      	add	r3, r2
 8005e8e:	f503 6310 	add.w	r3, r3, #2304	@ 0x900
 8005e92:	691b      	ldr	r3, [r3, #16]
 8005e94:	69ba      	ldr	r2, [r7, #24]
 8005e96:	0151      	lsls	r1, r2, #5
 8005e98:	69fa      	ldr	r2, [r7, #28]
 8005e9a:	440a      	add	r2, r1
 8005e9c:	f502 6210 	add.w	r2, r2, #2304	@ 0x900
 8005ea0:	f443 2300 	orr.w	r3, r3, #524288	@ 0x80000
 8005ea4:	6113      	str	r3, [r2, #16]
      USBx_INEP(epnum)->DIEPTSIZ &= ~(USB_OTG_DIEPTSIZ_XFRSIZ);
 8005ea6:	69bb      	ldr	r3, [r7, #24]
 8005ea8:	015a      	lsls	r2, r3, #5
 8005eaa:	69fb      	ldr	r3, [r7, #28]
 8005eac:	4413      	add	r3, r2
 8005eae:	f503 6310 	add.w	r3, r3, #2304	@ 0x900
 8005eb2:	691b      	ldr	r3, [r3, #16]
 8005eb4:	69ba      	ldr	r2, [r7, #24]
 8005eb6:	0151      	lsls	r1, r2, #5
 8005eb8:	69fa      	ldr	r2, [r7, #28]
 8005eba:	440a      	add	r2, r1
 8005ebc:	f502 6210 	add.w	r2, r2, #2304	@ 0x900
 8005ec0:	0cdb      	lsrs	r3, r3, #19
 8005ec2:	04db      	lsls	r3, r3, #19
 8005ec4:	6113      	str	r3, [r2, #16]
 8005ec6:	e097      	b.n	8005ff8 <USB_EPStartXfer+0x1c0>
      /* Program the transfer size and packet count
      * as follows: xfersize = N * maxpacket +
      * short_packet pktcnt = N + (short_packet
      * exist ? 1 : 0)
      */
      USBx_INEP(epnum)->DIEPTSIZ &= ~(USB_OTG_DIEPTSIZ_XFRSIZ);
 8005ec8:	69bb      	ldr	r3, [r7, #24]
 8005eca:	015a      	lsls	r2, r3, #5
 8005ecc:	69fb      	ldr	r3, [r7, #28]
 8005ece:	4413      	add	r3, r2
 8005ed0:	f503 6310 	add.w	r3, r3, #2304	@ 0x900
 8005ed4:	691b      	ldr	r3, [r3, #16]
 8005ed6:	69ba      	ldr	r2, [r7, #24]
 8005ed8:	0151      	lsls	r1, r2, #5
 8005eda:	69fa      	ldr	r2, [r7, #28]
 8005edc:	440a      	add	r2, r1
 8005ede:	f502 6210 	add.w	r2, r2, #2304	@ 0x900
 8005ee2:	0cdb      	lsrs	r3, r3, #19
 8005ee4:	04db      	lsls	r3, r3, #19
 8005ee6:	6113      	str	r3, [r2, #16]
      USBx_INEP(epnum)->DIEPTSIZ &= ~(USB_OTG_DIEPTSIZ_PKTCNT);
 8005ee8:	69bb      	ldr	r3, [r7, #24]
 8005eea:	015a      	lsls	r2, r3, #5
 8005eec:	69fb      	ldr	r3, [r7, #28]
 8005eee:	4413      	add	r3, r2
 8005ef0:	f503 6310 	add.w	r3, r3, #2304	@ 0x900
 8005ef4:	691b      	ldr	r3, [r3, #16]
 8005ef6:	69ba      	ldr	r2, [r7, #24]
 8005ef8:	0151      	lsls	r1, r2, #5
 8005efa:	69fa      	ldr	r2, [r7, #28]
 8005efc:	440a      	add	r2, r1
 8005efe:	f502 6210 	add.w	r2, r2, #2304	@ 0x900
 8005f02:	f023 53ff 	bic.w	r3, r3, #534773760	@ 0x1fe00000
 8005f06:	f423 13c0 	bic.w	r3, r3, #1572864	@ 0x180000
 8005f0a:	6113      	str	r3, [r2, #16]

      if (epnum == 0U)
 8005f0c:	69bb      	ldr	r3, [r7, #24]
 8005f0e:	2b00      	cmp	r3, #0
 8005f10:	d11a      	bne.n	8005f48 <USB_EPStartXfer+0x110>
      {
        if (ep->xfer_len > ep->maxpacket)
 8005f12:	68bb      	ldr	r3, [r7, #8]
 8005f14:	691a      	ldr	r2, [r3, #16]
 8005f16:	68bb      	ldr	r3, [r7, #8]
 8005f18:	689b      	ldr	r3, [r3, #8]
 8005f1a:	429a      	cmp	r2, r3
 8005f1c:	d903      	bls.n	8005f26 <USB_EPStartXfer+0xee>
        {
          ep->xfer_len = ep->maxpacket;
 8005f1e:	68bb      	ldr	r3, [r7, #8]
 8005f20:	689a      	ldr	r2, [r3, #8]
 8005f22:	68bb      	ldr	r3, [r7, #8]
 8005f24:	611a      	str	r2, [r3, #16]
        }

        USBx_INEP(epnum)->DIEPTSIZ |= (USB_OTG_DIEPTSIZ_PKTCNT & (1U << 19));
 8005f26:	69bb      	ldr	r3, [r7, #24]
 8005f28:	015a      	lsls	r2, r3, #5
 8005f2a:	69fb      	ldr	r3, [r7, #28]
 8005f2c:	4413      	add	r3, r2
 8005f2e:	f503 6310 	add.w	r3, r3, #2304	@ 0x900
 8005f32:	691b      	ldr	r3, [r3, #16]
 8005f34:	69ba      	ldr	r2, [r7, #24]
 8005f36:	0151      	lsls	r1, r2, #5
 8005f38:	69fa      	ldr	r2, [r7, #28]
 8005f3a:	440a      	add	r2, r1
 8005f3c:	f502 6210 	add.w	r2, r2, #2304	@ 0x900
 8005f40:	f443 2300 	orr.w	r3, r3, #524288	@ 0x80000
 8005f44:	6113      	str	r3, [r2, #16]
 8005f46:	e044      	b.n	8005fd2 <USB_EPStartXfer+0x19a>
      }
      else
      {
        pktcnt = (uint16_t)((ep->xfer_len + ep->maxpacket - 1U) / ep->maxpacket);
 8005f48:	68bb      	ldr	r3, [r7, #8]
 8005f4a:	691a      	ldr	r2, [r3, #16]
 8005f4c:	68bb      	ldr	r3, [r7, #8]
 8005f4e:	689b      	ldr	r3, [r3, #8]
 8005f50:	4413      	add	r3, r2
 8005f52:	1e5a      	subs	r2, r3, #1
 8005f54:	68bb      	ldr	r3, [r7, #8]
 8005f56:	689b      	ldr	r3, [r3, #8]
 8005f58:	fbb2 f3f3 	udiv	r3, r2, r3
 8005f5c:	82fb      	strh	r3, [r7, #22]
        USBx_INEP(epnum)->DIEPTSIZ |= (USB_OTG_DIEPTSIZ_PKTCNT & ((uint32_t)pktcnt << 19));
 8005f5e:	69bb      	ldr	r3, [r7, #24]
 8005f60:	015a      	lsls	r2, r3, #5
 8005f62:	69fb      	ldr	r3, [r7, #28]
 8005f64:	4413      	add	r3, r2
 8005f66:	f503 6310 	add.w	r3, r3, #2304	@ 0x900
 8005f6a:	691a      	ldr	r2, [r3, #16]
 8005f6c:	8afb      	ldrh	r3, [r7, #22]
 8005f6e:	04d9      	lsls	r1, r3, #19
 8005f70:	4ba4      	ldr	r3, [pc, #656]	@ (8006204 <USB_EPStartXfer+0x3cc>)
 8005f72:	400b      	ands	r3, r1
 8005f74:	69b9      	ldr	r1, [r7, #24]
 8005f76:	0148      	lsls	r0, r1, #5
 8005f78:	69f9      	ldr	r1, [r7, #28]
 8005f7a:	4401      	add	r1, r0
 8005f7c:	f501 6110 	add.w	r1, r1, #2304	@ 0x900
 8005f80:	4313      	orrs	r3, r2
 8005f82:	610b      	str	r3, [r1, #16]

        if (ep->type == EP_TYPE_ISOC)
 8005f84:	68bb      	ldr	r3, [r7, #8]
 8005f86:	791b      	ldrb	r3, [r3, #4]
 8005f88:	2b01      	cmp	r3, #1
 8005f8a:	d122      	bne.n	8005fd2 <USB_EPStartXfer+0x19a>
        {
          USBx_INEP(epnum)->DIEPTSIZ &= ~(USB_OTG_DIEPTSIZ_MULCNT);
 8005f8c:	69bb      	ldr	r3, [r7, #24]
 8005f8e:	015a      	lsls	r2, r3, #5
 8005f90:	69fb      	ldr	r3, [r7, #28]
 8005f92:	4413      	add	r3, r2
 8005f94:	f503 6310 	add.w	r3, r3, #2304	@ 0x900
 8005f98:	691b      	ldr	r3, [r3, #16]
 8005f9a:	69ba      	ldr	r2, [r7, #24]
 8005f9c:	0151      	lsls	r1, r2, #5
 8005f9e:	69fa      	ldr	r2, [r7, #28]
 8005fa0:	440a      	add	r2, r1
 8005fa2:	f502 6210 	add.w	r2, r2, #2304	@ 0x900
 8005fa6:	f023 43c0 	bic.w	r3, r3, #1610612736	@ 0x60000000
 8005faa:	6113      	str	r3, [r2, #16]
          USBx_INEP(epnum)->DIEPTSIZ |= (USB_OTG_DIEPTSIZ_MULCNT & ((uint32_t)pktcnt << 29));
 8005fac:	69bb      	ldr	r3, [r7, #24]
 8005fae:	015a      	lsls	r2, r3, #5
 8005fb0:	69fb      	ldr	r3, [r7, #28]
 8005fb2:	4413      	add	r3, r2
 8005fb4:	f503 6310 	add.w	r3, r3, #2304	@ 0x900
 8005fb8:	691a      	ldr	r2, [r3, #16]
 8005fba:	8afb      	ldrh	r3, [r7, #22]
 8005fbc:	075b      	lsls	r3, r3, #29
 8005fbe:	f003 43c0 	and.w	r3, r3, #1610612736	@ 0x60000000
 8005fc2:	69b9      	ldr	r1, [r7, #24]
 8005fc4:	0148      	lsls	r0, r1, #5
 8005fc6:	69f9      	ldr	r1, [r7, #28]
 8005fc8:	4401      	add	r1, r0
 8005fca:	f501 6110 	add.w	r1, r1, #2304	@ 0x900
 8005fce:	4313      	orrs	r3, r2
 8005fd0:	610b      	str	r3, [r1, #16]
        }
      }

      USBx_INEP(epnum)->DIEPTSIZ |= (USB_OTG_DIEPTSIZ_XFRSIZ & ep->xfer_len);
 8005fd2:	69bb      	ldr	r3, [r7, #24]
 8005fd4:	015a      	lsls	r2, r3, #5
 8005fd6:	69fb      	ldr	r3, [r7, #28]
 8005fd8:	4413      	add	r3, r2
 8005fda:	f503 6310 	add.w	r3, r3, #2304	@ 0x900
 8005fde:	691a      	ldr	r2, [r3, #16]
 8005fe0:	68bb      	ldr	r3, [r7, #8]
 8005fe2:	691b      	ldr	r3, [r3, #16]
 8005fe4:	f3c3 0312 	ubfx	r3, r3, #0, #19
 8005fe8:	69b9      	ldr	r1, [r7, #24]
 8005fea:	0148      	lsls	r0, r1, #5
 8005fec:	69f9      	ldr	r1, [r7, #28]
 8005fee:	4401      	add	r1, r0
 8005ff0:	f501 6110 	add.w	r1, r1, #2304	@ 0x900
 8005ff4:	4313      	orrs	r3, r2
 8005ff6:	610b      	str	r3, [r1, #16]
    }

    if (dma == 1U)
 8005ff8:	79fb      	ldrb	r3, [r7, #7]
 8005ffa:	2b01      	cmp	r3, #1
 8005ffc:	d14b      	bne.n	8006096 <USB_EPStartXfer+0x25e>
    {
      if ((uint32_t)ep->dma_addr != 0U)
 8005ffe:	68bb      	ldr	r3, [r7, #8]
 8006000:	69db      	ldr	r3, [r3, #28]
 8006002:	2b00      	cmp	r3, #0
 8006004:	d009      	beq.n	800601a <USB_EPStartXfer+0x1e2>
      {
        USBx_INEP(epnum)->DIEPDMA = (uint32_t)(ep->dma_addr);
 8006006:	69bb      	ldr	r3, [r7, #24]
 8006008:	015a      	lsls	r2, r3, #5
 800600a:	69fb      	ldr	r3, [r7, #28]
 800600c:	4413      	add	r3, r2
 800600e:	f503 6310 	add.w	r3, r3, #2304	@ 0x900
 8006012:	461a      	mov	r2, r3
 8006014:	68bb      	ldr	r3, [r7, #8]
 8006016:	69db      	ldr	r3, [r3, #28]
 8006018:	6153      	str	r3, [r2, #20]
      }

      if (ep->type == EP_TYPE_ISOC)
 800601a:	68bb      	ldr	r3, [r7, #8]
 800601c:	791b      	ldrb	r3, [r3, #4]
 800601e:	2b01      	cmp	r3, #1
 8006020:	d128      	bne.n	8006074 <USB_EPStartXfer+0x23c>
      {
        if ((USBx_DEVICE->DSTS & (1U << 8)) == 0U)
 8006022:	69fb      	ldr	r3, [r7, #28]
 8006024:	f503 6300 	add.w	r3, r3, #2048	@ 0x800
 8006028:	689b      	ldr	r3, [r3, #8]
 800602a:	f403 7380 	and.w	r3, r3, #256	@ 0x100
 800602e:	2b00      	cmp	r3, #0
 8006030:	d110      	bne.n	8006054 <USB_EPStartXfer+0x21c>
        {
          USBx_INEP(epnum)->DIEPCTL |= USB_OTG_DIEPCTL_SODDFRM;
 8006032:	69bb      	ldr	r3, [r7, #24]
 8006034:	015a      	lsls	r2, r3, #5
 8006036:	69fb      	ldr	r3, [r7, #28]
 8006038:	4413      	add	r3, r2
 800603a:	f503 6310 	add.w	r3, r3, #2304	@ 0x900
 800603e:	681b      	ldr	r3, [r3, #0]
 8006040:	69ba      	ldr	r2, [r7, #24]
 8006042:	0151      	lsls	r1, r2, #5
 8006044:	69fa      	ldr	r2, [r7, #28]
 8006046:	440a      	add	r2, r1
 8006048:	f502 6210 	add.w	r2, r2, #2304	@ 0x900
 800604c:	f043 5300 	orr.w	r3, r3, #536870912	@ 0x20000000
 8006050:	6013      	str	r3, [r2, #0]
 8006052:	e00f      	b.n	8006074 <USB_EPStartXfer+0x23c>
        }
        else
        {
          USBx_INEP(epnum)->DIEPCTL |= USB_OTG_DIEPCTL_SD0PID_SEVNFRM;
 8006054:	69bb      	ldr	r3, [r7, #24]
 8006056:	015a      	lsls	r2, r3, #5
 8006058:	69fb      	ldr	r3, [r7, #28]
 800605a:	4413      	add	r3, r2
 800605c:	f503 6310 	add.w	r3, r3, #2304	@ 0x900
 8006060:	681b      	ldr	r3, [r3, #0]
 8006062:	69ba      	ldr	r2, [r7, #24]
 8006064:	0151      	lsls	r1, r2, #5
 8006066:	69fa      	ldr	r2, [r7, #28]
 8006068:	440a      	add	r2, r1
 800606a:	f502 6210 	add.w	r2, r2, #2304	@ 0x900
 800606e:	f043 5380 	orr.w	r3, r3, #268435456	@ 0x10000000
 8006072:	6013      	str	r3, [r2, #0]
        }
      }

      /* EP enable, IN data in FIFO */
      USBx_INEP(epnum)->DIEPCTL |= (USB_OTG_DIEPCTL_CNAK | USB_OTG_DIEPCTL_EPENA);
 8006074:	69bb      	ldr	r3, [r7, #24]
 8006076:	015a      	lsls	r2, r3, #5
 8006078:	69fb      	ldr	r3, [r7, #28]
 800607a:	4413      	add	r3, r2
 800607c:	f503 6310 	add.w	r3, r3, #2304	@ 0x900
 8006080:	681b      	ldr	r3, [r3, #0]
 8006082:	69ba      	ldr	r2, [r7, #24]
 8006084:	0151      	lsls	r1, r2, #5
 8006086:	69fa      	ldr	r2, [r7, #28]
 8006088:	440a      	add	r2, r1
 800608a:	f502 6210 	add.w	r2, r2, #2304	@ 0x900
 800608e:	f043 4304 	orr.w	r3, r3, #2214592512	@ 0x84000000
 8006092:	6013      	str	r3, [r2, #0]
 8006094:	e166      	b.n	8006364 <USB_EPStartXfer+0x52c>
    }
    else
    {
      /* EP enable, IN data in FIFO */
      USBx_INEP(epnum)->DIEPCTL |= (USB_OTG_DIEPCTL_CNAK | USB_OTG_DIEPCTL_EPENA);
 8006096:	69bb      	ldr	r3, [r7, #24]
 8006098:	015a      	lsls	r2, r3, #5
 800609a:	69fb      	ldr	r3, [r7, #28]
 800609c:	4413      	add	r3, r2
 800609e:	f503 6310 	add.w	r3, r3, #2304	@ 0x900
 80060a2:	681b      	ldr	r3, [r3, #0]
 80060a4:	69ba      	ldr	r2, [r7, #24]
 80060a6:	0151      	lsls	r1, r2, #5
 80060a8:	69fa      	ldr	r2, [r7, #28]
 80060aa:	440a      	add	r2, r1
 80060ac:	f502 6210 	add.w	r2, r2, #2304	@ 0x900
 80060b0:	f043 4304 	orr.w	r3, r3, #2214592512	@ 0x84000000
 80060b4:	6013      	str	r3, [r2, #0]

      if (ep->type != EP_TYPE_ISOC)
 80060b6:	68bb      	ldr	r3, [r7, #8]
 80060b8:	791b      	ldrb	r3, [r3, #4]
 80060ba:	2b01      	cmp	r3, #1
 80060bc:	d015      	beq.n	80060ea <USB_EPStartXfer+0x2b2>
      {
        /* Enable the Tx FIFO Empty Interrupt for this EP */
        if (ep->xfer_len > 0U)
 80060be:	68bb      	ldr	r3, [r7, #8]
 80060c0:	691b      	ldr	r3, [r3, #16]
 80060c2:	2b00      	cmp	r3, #0
 80060c4:	f000 814e 	beq.w	8006364 <USB_EPStartXfer+0x52c>
        {
          USBx_DEVICE->DIEPEMPMSK |= 1UL << (ep->num & EP_ADDR_MSK);
 80060c8:	69fb      	ldr	r3, [r7, #28]
 80060ca:	f503 6300 	add.w	r3, r3, #2048	@ 0x800
 80060ce:	6b5a      	ldr	r2, [r3, #52]	@ 0x34
 80060d0:	68bb      	ldr	r3, [r7, #8]
 80060d2:	781b      	ldrb	r3, [r3, #0]
 80060d4:	f003 030f 	and.w	r3, r3, #15
 80060d8:	2101      	movs	r1, #1
 80060da:	fa01 f303 	lsl.w	r3, r1, r3
 80060de:	69f9      	ldr	r1, [r7, #28]
 80060e0:	f501 6100 	add.w	r1, r1, #2048	@ 0x800
 80060e4:	4313      	orrs	r3, r2
 80060e6:	634b      	str	r3, [r1, #52]	@ 0x34
 80060e8:	e13c      	b.n	8006364 <USB_EPStartXfer+0x52c>
        }
      }
      else
      {
        if ((USBx_DEVICE->DSTS & (1U << 8)) == 0U)
 80060ea:	69fb      	ldr	r3, [r7, #28]
 80060ec:	f503 6300 	add.w	r3, r3, #2048	@ 0x800
 80060f0:	689b      	ldr	r3, [r3, #8]
 80060f2:	f403 7380 	and.w	r3, r3, #256	@ 0x100
 80060f6:	2b00      	cmp	r3, #0
 80060f8:	d110      	bne.n	800611c <USB_EPStartXfer+0x2e4>
        {
          USBx_INEP(epnum)->DIEPCTL |= USB_OTG_DIEPCTL_SODDFRM;
 80060fa:	69bb      	ldr	r3, [r7, #24]
 80060fc:	015a      	lsls	r2, r3, #5
 80060fe:	69fb      	ldr	r3, [r7, #28]
 8006100:	4413      	add	r3, r2
 8006102:	f503 6310 	add.w	r3, r3, #2304	@ 0x900
 8006106:	681b      	ldr	r3, [r3, #0]
 8006108:	69ba      	ldr	r2, [r7, #24]
 800610a:	0151      	lsls	r1, r2, #5
 800610c:	69fa      	ldr	r2, [r7, #28]
 800610e:	440a      	add	r2, r1
 8006110:	f502 6210 	add.w	r2, r2, #2304	@ 0x900
 8006114:	f043 5300 	orr.w	r3, r3, #536870912	@ 0x20000000
 8006118:	6013      	str	r3, [r2, #0]
 800611a:	e00f      	b.n	800613c <USB_EPStartXfer+0x304>
        }
        else
        {
          USBx_INEP(epnum)->DIEPCTL |= USB_OTG_DIEPCTL_SD0PID_SEVNFRM;
 800611c:	69bb      	ldr	r3, [r7, #24]
 800611e:	015a      	lsls	r2, r3, #5
 8006120:	69fb      	ldr	r3, [r7, #28]
 8006122:	4413      	add	r3, r2
 8006124:	f503 6310 	add.w	r3, r3, #2304	@ 0x900
 8006128:	681b      	ldr	r3, [r3, #0]
 800612a:	69ba      	ldr	r2, [r7, #24]
 800612c:	0151      	lsls	r1, r2, #5
 800612e:	69fa      	ldr	r2, [r7, #28]
 8006130:	440a      	add	r2, r1
 8006132:	f502 6210 	add.w	r2, r2, #2304	@ 0x900
 8006136:	f043 5380 	orr.w	r3, r3, #268435456	@ 0x10000000
 800613a:	6013      	str	r3, [r2, #0]
        }

        (void)USB_WritePacket(USBx, ep->xfer_buff, ep->num, (uint16_t)ep->xfer_len, dma);
 800613c:	68bb      	ldr	r3, [r7, #8]
 800613e:	68d9      	ldr	r1, [r3, #12]
 8006140:	68bb      	ldr	r3, [r7, #8]
 8006142:	781a      	ldrb	r2, [r3, #0]
 8006144:	68bb      	ldr	r3, [r7, #8]
 8006146:	691b      	ldr	r3, [r3, #16]
 8006148:	b298      	uxth	r0, r3
 800614a:	79fb      	ldrb	r3, [r7, #7]
 800614c:	9300      	str	r3, [sp, #0]
 800614e:	4603      	mov	r3, r0
 8006150:	68f8      	ldr	r0, [r7, #12]
 8006152:	f000 f9b9 	bl	80064c8 <USB_WritePacket>
 8006156:	e105      	b.n	8006364 <USB_EPStartXfer+0x52c>
  {
    /* Program the transfer size and packet count as follows:
    * pktcnt = N
    * xfersize = N * maxpacket
    */
    USBx_OUTEP(epnum)->DOEPTSIZ &= ~(USB_OTG_DOEPTSIZ_XFRSIZ);
 8006158:	69bb      	ldr	r3, [r7, #24]
 800615a:	015a      	lsls	r2, r3, #5
 800615c:	69fb      	ldr	r3, [r7, #28]
 800615e:	4413      	add	r3, r2
 8006160:	f503 6330 	add.w	r3, r3, #2816	@ 0xb00
 8006164:	691b      	ldr	r3, [r3, #16]
 8006166:	69ba      	ldr	r2, [r7, #24]
 8006168:	0151      	lsls	r1, r2, #5
 800616a:	69fa      	ldr	r2, [r7, #28]
 800616c:	440a      	add	r2, r1
 800616e:	f502 6230 	add.w	r2, r2, #2816	@ 0xb00
 8006172:	0cdb      	lsrs	r3, r3, #19
 8006174:	04db      	lsls	r3, r3, #19
 8006176:	6113      	str	r3, [r2, #16]
    USBx_OUTEP(epnum)->DOEPTSIZ &= ~(USB_OTG_DOEPTSIZ_PKTCNT);
 8006178:	69bb      	ldr	r3, [r7, #24]
 800617a:	015a      	lsls	r2, r3, #5
 800617c:	69fb      	ldr	r3, [r7, #28]
 800617e:	4413      	add	r3, r2
 8006180:	f503 6330 	add.w	r3, r3, #2816	@ 0xb00
 8006184:	691b      	ldr	r3, [r3, #16]
 8006186:	69ba      	ldr	r2, [r7, #24]
 8006188:	0151      	lsls	r1, r2, #5
 800618a:	69fa      	ldr	r2, [r7, #28]
 800618c:	440a      	add	r2, r1
 800618e:	f502 6230 	add.w	r2, r2, #2816	@ 0xb00
 8006192:	f023 53ff 	bic.w	r3, r3, #534773760	@ 0x1fe00000
 8006196:	f423 13c0 	bic.w	r3, r3, #1572864	@ 0x180000
 800619a:	6113      	str	r3, [r2, #16]

    if (epnum == 0U)
 800619c:	69bb      	ldr	r3, [r7, #24]
 800619e:	2b00      	cmp	r3, #0
 80061a0:	d132      	bne.n	8006208 <USB_EPStartXfer+0x3d0>
    {
      if (ep->xfer_len > 0U)
 80061a2:	68bb      	ldr	r3, [r7, #8]
 80061a4:	691b      	ldr	r3, [r3, #16]
 80061a6:	2b00      	cmp	r3, #0
 80061a8:	d003      	beq.n	80061b2 <USB_EPStartXfer+0x37a>
      {
        ep->xfer_len = ep->maxpacket;
 80061aa:	68bb      	ldr	r3, [r7, #8]
 80061ac:	689a      	ldr	r2, [r3, #8]
 80061ae:	68bb      	ldr	r3, [r7, #8]
 80061b0:	611a      	str	r2, [r3, #16]
      }

      /* Store transfer size, for EP0 this is equal to endpoint max packet size */
      ep->xfer_size = ep->maxpacket;
 80061b2:	68bb      	ldr	r3, [r7, #8]
 80061b4:	689a      	ldr	r2, [r3, #8]
 80061b6:	68bb      	ldr	r3, [r7, #8]
 80061b8:	621a      	str	r2, [r3, #32]

      USBx_OUTEP(epnum)->DOEPTSIZ |= (USB_OTG_DOEPTSIZ_XFRSIZ & ep->xfer_size);
 80061ba:	69bb      	ldr	r3, [r7, #24]
 80061bc:	015a      	lsls	r2, r3, #5
 80061be:	69fb      	ldr	r3, [r7, #28]
 80061c0:	4413      	add	r3, r2
 80061c2:	f503 6330 	add.w	r3, r3, #2816	@ 0xb00
 80061c6:	691a      	ldr	r2, [r3, #16]
 80061c8:	68bb      	ldr	r3, [r7, #8]
 80061ca:	6a1b      	ldr	r3, [r3, #32]
 80061cc:	f3c3 0312 	ubfx	r3, r3, #0, #19
 80061d0:	69b9      	ldr	r1, [r7, #24]
 80061d2:	0148      	lsls	r0, r1, #5
 80061d4:	69f9      	ldr	r1, [r7, #28]
 80061d6:	4401      	add	r1, r0
 80061d8:	f501 6130 	add.w	r1, r1, #2816	@ 0xb00
 80061dc:	4313      	orrs	r3, r2
 80061de:	610b      	str	r3, [r1, #16]
      USBx_OUTEP(epnum)->DOEPTSIZ |= (USB_OTG_DOEPTSIZ_PKTCNT & (1U << 19));
 80061e0:	69bb      	ldr	r3, [r7, #24]
 80061e2:	015a      	lsls	r2, r3, #5
 80061e4:	69fb      	ldr	r3, [r7, #28]
 80061e6:	4413      	add	r3, r2
 80061e8:	f503 6330 	add.w	r3, r3, #2816	@ 0xb00
 80061ec:	691b      	ldr	r3, [r3, #16]
 80061ee:	69ba      	ldr	r2, [r7, #24]
 80061f0:	0151      	lsls	r1, r2, #5
 80061f2:	69fa      	ldr	r2, [r7, #28]
 80061f4:	440a      	add	r2, r1
 80061f6:	f502 6230 	add.w	r2, r2, #2816	@ 0xb00
 80061fa:	f443 2300 	orr.w	r3, r3, #524288	@ 0x80000
 80061fe:	6113      	str	r3, [r2, #16]
 8006200:	e062      	b.n	80062c8 <USB_EPStartXfer+0x490>
 8006202:	bf00      	nop
 8006204:	1ff80000 	.word	0x1ff80000
    }
    else
    {
      if (ep->xfer_len == 0U)
 8006208:	68bb      	ldr	r3, [r7, #8]
 800620a:	691b      	ldr	r3, [r3, #16]
 800620c:	2b00      	cmp	r3, #0
 800620e:	d123      	bne.n	8006258 <USB_EPStartXfer+0x420>
      {
        USBx_OUTEP(epnum)->DOEPTSIZ |= (USB_OTG_DOEPTSIZ_XFRSIZ & ep->maxpacket);
 8006210:	69bb      	ldr	r3, [r7, #24]
 8006212:	015a      	lsls	r2, r3, #5
 8006214:	69fb      	ldr	r3, [r7, #28]
 8006216:	4413      	add	r3, r2
 8006218:	f503 6330 	add.w	r3, r3, #2816	@ 0xb00
 800621c:	691a      	ldr	r2, [r3, #16]
 800621e:	68bb      	ldr	r3, [r7, #8]
 8006220:	689b      	ldr	r3, [r3, #8]
 8006222:	f3c3 0312 	ubfx	r3, r3, #0, #19
 8006226:	69b9      	ldr	r1, [r7, #24]
 8006228:	0148      	lsls	r0, r1, #5
 800622a:	69f9      	ldr	r1, [r7, #28]
 800622c:	4401      	add	r1, r0
 800622e:	f501 6130 	add.w	r1, r1, #2816	@ 0xb00
 8006232:	4313      	orrs	r3, r2
 8006234:	610b      	str	r3, [r1, #16]
        USBx_OUTEP(epnum)->DOEPTSIZ |= (USB_OTG_DOEPTSIZ_PKTCNT & (1U << 19));
 8006236:	69bb      	ldr	r3, [r7, #24]
 8006238:	015a      	lsls	r2, r3, #5
 800623a:	69fb      	ldr	r3, [r7, #28]
 800623c:	4413      	add	r3, r2
 800623e:	f503 6330 	add.w	r3, r3, #2816	@ 0xb00
 8006242:	691b      	ldr	r3, [r3, #16]
 8006244:	69ba      	ldr	r2, [r7, #24]
 8006246:	0151      	lsls	r1, r2, #5
 8006248:	69fa      	ldr	r2, [r7, #28]
 800624a:	440a      	add	r2, r1
 800624c:	f502 6230 	add.w	r2, r2, #2816	@ 0xb00
 8006250:	f443 2300 	orr.w	r3, r3, #524288	@ 0x80000
 8006254:	6113      	str	r3, [r2, #16]
 8006256:	e037      	b.n	80062c8 <USB_EPStartXfer+0x490>
      }
      else
      {
        pktcnt = (uint16_t)((ep->xfer_len + ep->maxpacket - 1U) / ep->maxpacket);
 8006258:	68bb      	ldr	r3, [r7, #8]
 800625a:	691a      	ldr	r2, [r3, #16]
 800625c:	68bb      	ldr	r3, [r7, #8]
 800625e:	689b      	ldr	r3, [r3, #8]
 8006260:	4413      	add	r3, r2
 8006262:	1e5a      	subs	r2, r3, #1
 8006264:	68bb      	ldr	r3, [r7, #8]
 8006266:	689b      	ldr	r3, [r3, #8]
 8006268:	fbb2 f3f3 	udiv	r3, r2, r3
 800626c:	82fb      	strh	r3, [r7, #22]
        ep->xfer_size = ep->maxpacket * pktcnt;
 800626e:	68bb      	ldr	r3, [r7, #8]
 8006270:	689b      	ldr	r3, [r3, #8]
 8006272:	8afa      	ldrh	r2, [r7, #22]
 8006274:	fb03 f202 	mul.w	r2, r3, r2
 8006278:	68bb      	ldr	r3, [r7, #8]
 800627a:	621a      	str	r2, [r3, #32]

        USBx_OUTEP(epnum)->DOEPTSIZ |= USB_OTG_DOEPTSIZ_PKTCNT & ((uint32_t)pktcnt << 19);
 800627c:	69bb      	ldr	r3, [r7, #24]
 800627e:	015a      	lsls	r2, r3, #5
 8006280:	69fb      	ldr	r3, [r7, #28]
 8006282:	4413      	add	r3, r2
 8006284:	f503 6330 	add.w	r3, r3, #2816	@ 0xb00
 8006288:	691a      	ldr	r2, [r3, #16]
 800628a:	8afb      	ldrh	r3, [r7, #22]
 800628c:	04d9      	lsls	r1, r3, #19
 800628e:	4b38      	ldr	r3, [pc, #224]	@ (8006370 <USB_EPStartXfer+0x538>)
 8006290:	400b      	ands	r3, r1
 8006292:	69b9      	ldr	r1, [r7, #24]
 8006294:	0148      	lsls	r0, r1, #5
 8006296:	69f9      	ldr	r1, [r7, #28]
 8006298:	4401      	add	r1, r0
 800629a:	f501 6130 	add.w	r1, r1, #2816	@ 0xb00
 800629e:	4313      	orrs	r3, r2
 80062a0:	610b      	str	r3, [r1, #16]
        USBx_OUTEP(epnum)->DOEPTSIZ |= USB_OTG_DOEPTSIZ_XFRSIZ & ep->xfer_size;
 80062a2:	69bb      	ldr	r3, [r7, #24]
 80062a4:	015a      	lsls	r2, r3, #5
 80062a6:	69fb      	ldr	r3, [r7, #28]
 80062a8:	4413      	add	r3, r2
 80062aa:	f503 6330 	add.w	r3, r3, #2816	@ 0xb00
 80062ae:	691a      	ldr	r2, [r3, #16]
 80062b0:	68bb      	ldr	r3, [r7, #8]
 80062b2:	6a1b      	ldr	r3, [r3, #32]
 80062b4:	f3c3 0312 	ubfx	r3, r3, #0, #19
 80062b8:	69b9      	ldr	r1, [r7, #24]
 80062ba:	0148      	lsls	r0, r1, #5
 80062bc:	69f9      	ldr	r1, [r7, #28]
 80062be:	4401      	add	r1, r0
 80062c0:	f501 6130 	add.w	r1, r1, #2816	@ 0xb00
 80062c4:	4313      	orrs	r3, r2
 80062c6:	610b      	str	r3, [r1, #16]
      }
    }

    if (dma == 1U)
 80062c8:	79fb      	ldrb	r3, [r7, #7]
 80062ca:	2b01      	cmp	r3, #1
 80062cc:	d10d      	bne.n	80062ea <USB_EPStartXfer+0x4b2>
    {
      if ((uint32_t)ep->xfer_buff != 0U)
 80062ce:	68bb      	ldr	r3, [r7, #8]
 80062d0:	68db      	ldr	r3, [r3, #12]
 80062d2:	2b00      	cmp	r3, #0
 80062d4:	d009      	beq.n	80062ea <USB_EPStartXfer+0x4b2>
      {
        USBx_OUTEP(epnum)->DOEPDMA = (uint32_t)(ep->xfer_buff);
 80062d6:	68bb      	ldr	r3, [r7, #8]
 80062d8:	68d9      	ldr	r1, [r3, #12]
 80062da:	69bb      	ldr	r3, [r7, #24]
 80062dc:	015a      	lsls	r2, r3, #5
 80062de:	69fb      	ldr	r3, [r7, #28]
 80062e0:	4413      	add	r3, r2
 80062e2:	f503 6330 	add.w	r3, r3, #2816	@ 0xb00
 80062e6:	460a      	mov	r2, r1
 80062e8:	615a      	str	r2, [r3, #20]
      }
    }

    if (ep->type == EP_TYPE_ISOC)
 80062ea:	68bb      	ldr	r3, [r7, #8]
 80062ec:	791b      	ldrb	r3, [r3, #4]
 80062ee:	2b01      	cmp	r3, #1
 80062f0:	d128      	bne.n	8006344 <USB_EPStartXfer+0x50c>
    {
      if ((USBx_DEVICE->DSTS & (1U << 8)) == 0U)
 80062f2:	69fb      	ldr	r3, [r7, #28]
 80062f4:	f503 6300 	add.w	r3, r3, #2048	@ 0x800
 80062f8:	689b      	ldr	r3, [r3, #8]
 80062fa:	f403 7380 	and.w	r3, r3, #256	@ 0x100
 80062fe:	2b00      	cmp	r3, #0
 8006300:	d110      	bne.n	8006324 <USB_EPStartXfer+0x4ec>
      {
        USBx_OUTEP(epnum)->DOEPCTL |= USB_OTG_DOEPCTL_SODDFRM;
 8006302:	69bb      	ldr	r3, [r7, #24]
 8006304:	015a      	lsls	r2, r3, #5
 8006306:	69fb      	ldr	r3, [r7, #28]
 8006308:	4413      	add	r3, r2
 800630a:	f503 6330 	add.w	r3, r3, #2816	@ 0xb00
 800630e:	681b      	ldr	r3, [r3, #0]
 8006310:	69ba      	ldr	r2, [r7, #24]
 8006312:	0151      	lsls	r1, r2, #5
 8006314:	69fa      	ldr	r2, [r7, #28]
 8006316:	440a      	add	r2, r1
 8006318:	f502 6230 	add.w	r2, r2, #2816	@ 0xb00
 800631c:	f043 5300 	orr.w	r3, r3, #536870912	@ 0x20000000
 8006320:	6013      	str	r3, [r2, #0]
 8006322:	e00f      	b.n	8006344 <USB_EPStartXfer+0x50c>
      }
      else
      {
        USBx_OUTEP(epnum)->DOEPCTL |= USB_OTG_DOEPCTL_SD0PID_SEVNFRM;
 8006324:	69bb      	ldr	r3, [r7, #24]
 8006326:	015a      	lsls	r2, r3, #5
 8006328:	69fb      	ldr	r3, [r7, #28]
 800632a:	4413      	add	r3, r2
 800632c:	f503 6330 	add.w	r3, r3, #2816	@ 0xb00
 8006330:	681b      	ldr	r3, [r3, #0]
 8006332:	69ba      	ldr	r2, [r7, #24]
 8006334:	0151      	lsls	r1, r2, #5
 8006336:	69fa      	ldr	r2, [r7, #28]
 8006338:	440a      	add	r2, r1
 800633a:	f502 6230 	add.w	r2, r2, #2816	@ 0xb00
 800633e:	f043 5380 	orr.w	r3, r3, #268435456	@ 0x10000000
 8006342:	6013      	str	r3, [r2, #0]
      }
    }
    /* EP enable */
    USBx_OUTEP(epnum)->DOEPCTL |= (USB_OTG_DOEPCTL_CNAK | USB_OTG_DOEPCTL_EPENA);
 8006344:	69bb      	ldr	r3, [r7, #24]
 8006346:	015a      	lsls	r2, r3, #5
 8006348:	69fb      	ldr	r3, [r7, #28]
 800634a:	4413      	add	r3, r2
 800634c:	f503 6330 	add.w	r3, r3, #2816	@ 0xb00
 8006350:	681b      	ldr	r3, [r3, #0]
 8006352:	69ba      	ldr	r2, [r7, #24]
 8006354:	0151      	lsls	r1, r2, #5
 8006356:	69fa      	ldr	r2, [r7, #28]
 8006358:	440a      	add	r2, r1
 800635a:	f502 6230 	add.w	r2, r2, #2816	@ 0xb00
 800635e:	f043 4304 	orr.w	r3, r3, #2214592512	@ 0x84000000
 8006362:	6013      	str	r3, [r2, #0]
  }

  return HAL_OK;
 8006364:	2300      	movs	r3, #0
}
 8006366:	4618      	mov	r0, r3
 8006368:	3720      	adds	r7, #32
 800636a:	46bd      	mov	sp, r7
 800636c:	bd80      	pop	{r7, pc}
 800636e:	bf00      	nop
 8006370:	1ff80000 	.word	0x1ff80000

08006374 <USB_EPStopXfer>:
   * @param  USBx  usb device instance
   * @param  ep pointer to endpoint structure
   * @retval HAL status
   */
HAL_StatusTypeDef USB_EPStopXfer(const USB_OTG_GlobalTypeDef *USBx, USB_OTG_EPTypeDef *ep)
{
 8006374:	b480      	push	{r7}
 8006376:	b087      	sub	sp, #28
 8006378:	af00      	add	r7, sp, #0
 800637a:	6078      	str	r0, [r7, #4]
 800637c:	6039      	str	r1, [r7, #0]
  __IO uint32_t count = 0U;
 800637e:	2300      	movs	r3, #0
 8006380:	60fb      	str	r3, [r7, #12]
  HAL_StatusTypeDef ret = HAL_OK;
 8006382:	2300      	movs	r3, #0
 8006384:	75fb      	strb	r3, [r7, #23]
  uint32_t USBx_BASE = (uint32_t)USBx;
 8006386:	687b      	ldr	r3, [r7, #4]
 8006388:	613b      	str	r3, [r7, #16]

  /* IN endpoint */
  if (ep->is_in == 1U)
 800638a:	683b      	ldr	r3, [r7, #0]
 800638c:	785b      	ldrb	r3, [r3, #1]
 800638e:	2b01      	cmp	r3, #1
 8006390:	d14a      	bne.n	8006428 <USB_EPStopXfer+0xb4>
  {
    /* EP enable, IN data in FIFO */
    if (((USBx_INEP(ep->num)->DIEPCTL) & USB_OTG_DIEPCTL_EPENA) == USB_OTG_DIEPCTL_EPENA)
 8006392:	683b      	ldr	r3, [r7, #0]
 8006394:	781b      	ldrb	r3, [r3, #0]
 8006396:	015a      	lsls	r2, r3, #5
 8006398:	693b      	ldr	r3, [r7, #16]
 800639a:	4413      	add	r3, r2
 800639c:	f503 6310 	add.w	r3, r3, #2304	@ 0x900
 80063a0:	681b      	ldr	r3, [r3, #0]
 80063a2:	f003 4300 	and.w	r3, r3, #2147483648	@ 0x80000000
 80063a6:	f1b3 4f00 	cmp.w	r3, #2147483648	@ 0x80000000
 80063aa:	f040 8086 	bne.w	80064ba <USB_EPStopXfer+0x146>
    {
      USBx_INEP(ep->num)->DIEPCTL |= (USB_OTG_DIEPCTL_SNAK);
 80063ae:	683b      	ldr	r3, [r7, #0]
 80063b0:	781b      	ldrb	r3, [r3, #0]
 80063b2:	015a      	lsls	r2, r3, #5
 80063b4:	693b      	ldr	r3, [r7, #16]
 80063b6:	4413      	add	r3, r2
 80063b8:	f503 6310 	add.w	r3, r3, #2304	@ 0x900
 80063bc:	681b      	ldr	r3, [r3, #0]
 80063be:	683a      	ldr	r2, [r7, #0]
 80063c0:	7812      	ldrb	r2, [r2, #0]
 80063c2:	0151      	lsls	r1, r2, #5
 80063c4:	693a      	ldr	r2, [r7, #16]
 80063c6:	440a      	add	r2, r1
 80063c8:	f502 6210 	add.w	r2, r2, #2304	@ 0x900
 80063cc:	f043 6300 	orr.w	r3, r3, #134217728	@ 0x8000000
 80063d0:	6013      	str	r3, [r2, #0]
      USBx_INEP(ep->num)->DIEPCTL |= (USB_OTG_DIEPCTL_EPDIS);
 80063d2:	683b      	ldr	r3, [r7, #0]
 80063d4:	781b      	ldrb	r3, [r3, #0]
 80063d6:	015a      	lsls	r2, r3, #5
 80063d8:	693b      	ldr	r3, [r7, #16]
 80063da:	4413      	add	r3, r2
 80063dc:	f503 6310 	add.w	r3, r3, #2304	@ 0x900
 80063e0:	681b      	ldr	r3, [r3, #0]
 80063e2:	683a      	ldr	r2, [r7, #0]
 80063e4:	7812      	ldrb	r2, [r2, #0]
 80063e6:	0151      	lsls	r1, r2, #5
 80063e8:	693a      	ldr	r2, [r7, #16]
 80063ea:	440a      	add	r2, r1
 80063ec:	f502 6210 	add.w	r2, r2, #2304	@ 0x900
 80063f0:	f043 4380 	orr.w	r3, r3, #1073741824	@ 0x40000000
 80063f4:	6013      	str	r3, [r2, #0]

      do
      {
        count++;
 80063f6:	68fb      	ldr	r3, [r7, #12]
 80063f8:	3301      	adds	r3, #1
 80063fa:	60fb      	str	r3, [r7, #12]

        if (count > 10000U)
 80063fc:	68fb      	ldr	r3, [r7, #12]
 80063fe:	f242 7210 	movw	r2, #10000	@ 0x2710
 8006402:	4293      	cmp	r3, r2
 8006404:	d902      	bls.n	800640c <USB_EPStopXfer+0x98>
        {
          ret = HAL_ERROR;
 8006406:	2301      	movs	r3, #1
 8006408:	75fb      	strb	r3, [r7, #23]
          break;
 800640a:	e056      	b.n	80064ba <USB_EPStopXfer+0x146>
        }
      } while (((USBx_INEP(ep->num)->DIEPCTL) & USB_OTG_DIEPCTL_EPENA) ==  USB_OTG_DIEPCTL_EPENA);
 800640c:	683b      	ldr	r3, [r7, #0]
 800640e:	781b      	ldrb	r3, [r3, #0]
 8006410:	015a      	lsls	r2, r3, #5
 8006412:	693b      	ldr	r3, [r7, #16]
 8006414:	4413      	add	r3, r2
 8006416:	f503 6310 	add.w	r3, r3, #2304	@ 0x900
 800641a:	681b      	ldr	r3, [r3, #0]
 800641c:	f003 4300 	and.w	r3, r3, #2147483648	@ 0x80000000
 8006420:	f1b3 4f00 	cmp.w	r3, #2147483648	@ 0x80000000
 8006424:	d0e7      	beq.n	80063f6 <USB_EPStopXfer+0x82>
 8006426:	e048      	b.n	80064ba <USB_EPStopXfer+0x146>
    }
  }
  else /* OUT endpoint */
  {
    if (((USBx_OUTEP(ep->num)->DOEPCTL) & USB_OTG_DOEPCTL_EPENA) == USB_OTG_DOEPCTL_EPENA)
 8006428:	683b      	ldr	r3, [r7, #0]
 800642a:	781b      	ldrb	r3, [r3, #0]
 800642c:	015a      	lsls	r2, r3, #5
 800642e:	693b      	ldr	r3, [r7, #16]
 8006430:	4413      	add	r3, r2
 8006432:	f503 6330 	add.w	r3, r3, #2816	@ 0xb00
 8006436:	681b      	ldr	r3, [r3, #0]
 8006438:	f003 4300 	and.w	r3, r3, #2147483648	@ 0x80000000
 800643c:	f1b3 4f00 	cmp.w	r3, #2147483648	@ 0x80000000
 8006440:	d13b      	bne.n	80064ba <USB_EPStopXfer+0x146>
    {
      USBx_OUTEP(ep->num)->DOEPCTL |= (USB_OTG_DOEPCTL_SNAK);
 8006442:	683b      	ldr	r3, [r7, #0]
 8006444:	781b      	ldrb	r3, [r3, #0]
 8006446:	015a      	lsls	r2, r3, #5
 8006448:	693b      	ldr	r3, [r7, #16]
 800644a:	4413      	add	r3, r2
 800644c:	f503 6330 	add.w	r3, r3, #2816	@ 0xb00
 8006450:	681b      	ldr	r3, [r3, #0]
 8006452:	683a      	ldr	r2, [r7, #0]
 8006454:	7812      	ldrb	r2, [r2, #0]
 8006456:	0151      	lsls	r1, r2, #5
 8006458:	693a      	ldr	r2, [r7, #16]
 800645a:	440a      	add	r2, r1
 800645c:	f502 6230 	add.w	r2, r2, #2816	@ 0xb00
 8006460:	f043 6300 	orr.w	r3, r3, #134217728	@ 0x8000000
 8006464:	6013      	str	r3, [r2, #0]
      USBx_OUTEP(ep->num)->DOEPCTL |= (USB_OTG_DOEPCTL_EPDIS);
 8006466:	683b      	ldr	r3, [r7, #0]
 8006468:	781b      	ldrb	r3, [r3, #0]
 800646a:	015a      	lsls	r2, r3, #5
 800646c:	693b      	ldr	r3, [r7, #16]
 800646e:	4413      	add	r3, r2
 8006470:	f503 6330 	add.w	r3, r3, #2816	@ 0xb00
 8006474:	681b      	ldr	r3, [r3, #0]
 8006476:	683a      	ldr	r2, [r7, #0]
 8006478:	7812      	ldrb	r2, [r2, #0]
 800647a:	0151      	lsls	r1, r2, #5
 800647c:	693a      	ldr	r2, [r7, #16]
 800647e:	440a      	add	r2, r1
 8006480:	f502 6230 	add.w	r2, r2, #2816	@ 0xb00
 8006484:	f043 4380 	orr.w	r3, r3, #1073741824	@ 0x40000000
 8006488:	6013      	str	r3, [r2, #0]

      do
      {
        count++;
 800648a:	68fb      	ldr	r3, [r7, #12]
 800648c:	3301      	adds	r3, #1
 800648e:	60fb      	str	r3, [r7, #12]

        if (count > 10000U)
 8006490:	68fb      	ldr	r3, [r7, #12]
 8006492:	f242 7210 	movw	r2, #10000	@ 0x2710
 8006496:	4293      	cmp	r3, r2
 8006498:	d902      	bls.n	80064a0 <USB_EPStopXfer+0x12c>
        {
          ret = HAL_ERROR;
 800649a:	2301      	movs	r3, #1
 800649c:	75fb      	strb	r3, [r7, #23]
          break;
 800649e:	e00c      	b.n	80064ba <USB_EPStopXfer+0x146>
        }
      } while (((USBx_OUTEP(ep->num)->DOEPCTL) & USB_OTG_DOEPCTL_EPENA) ==  USB_OTG_DOEPCTL_EPENA);
 80064a0:	683b      	ldr	r3, [r7, #0]
 80064a2:	781b      	ldrb	r3, [r3, #0]
 80064a4:	015a      	lsls	r2, r3, #5
 80064a6:	693b      	ldr	r3, [r7, #16]
 80064a8:	4413      	add	r3, r2
 80064aa:	f503 6330 	add.w	r3, r3, #2816	@ 0xb00
 80064ae:	681b      	ldr	r3, [r3, #0]
 80064b0:	f003 4300 	and.w	r3, r3, #2147483648	@ 0x80000000
 80064b4:	f1b3 4f00 	cmp.w	r3, #2147483648	@ 0x80000000
 80064b8:	d0e7      	beq.n	800648a <USB_EPStopXfer+0x116>
    }
  }

  return ret;
 80064ba:	7dfb      	ldrb	r3, [r7, #23]
}
 80064bc:	4618      	mov	r0, r3
 80064be:	371c      	adds	r7, #28
 80064c0:	46bd      	mov	sp, r7
 80064c2:	f85d 7b04 	ldr.w	r7, [sp], #4
 80064c6:	4770      	bx	lr

080064c8 <USB_WritePacket>:
  *           1 : DMA feature used
  * @retval HAL status
  */
HAL_StatusTypeDef USB_WritePacket(const USB_OTG_GlobalTypeDef *USBx, uint8_t *src,
                                  uint8_t ch_ep_num, uint16_t len, uint8_t dma)
{
 80064c8:	b480      	push	{r7}
 80064ca:	b089      	sub	sp, #36	@ 0x24
 80064cc:	af00      	add	r7, sp, #0
 80064ce:	60f8      	str	r0, [r7, #12]
 80064d0:	60b9      	str	r1, [r7, #8]
 80064d2:	4611      	mov	r1, r2
 80064d4:	461a      	mov	r2, r3
 80064d6:	460b      	mov	r3, r1
 80064d8:	71fb      	strb	r3, [r7, #7]
 80064da:	4613      	mov	r3, r2
 80064dc:	80bb      	strh	r3, [r7, #4]
  uint32_t USBx_BASE = (uint32_t)USBx;
 80064de:	68fb      	ldr	r3, [r7, #12]
 80064e0:	617b      	str	r3, [r7, #20]
  uint8_t *pSrc = src;
 80064e2:	68bb      	ldr	r3, [r7, #8]
 80064e4:	61fb      	str	r3, [r7, #28]
  uint32_t count32b;
  uint32_t i;

  if (dma == 0U)
 80064e6:	f897 3028 	ldrb.w	r3, [r7, #40]	@ 0x28
 80064ea:	2b00      	cmp	r3, #0
 80064ec:	d123      	bne.n	8006536 <USB_WritePacket+0x6e>
  {
    count32b = ((uint32_t)len + 3U) / 4U;
 80064ee:	88bb      	ldrh	r3, [r7, #4]
 80064f0:	3303      	adds	r3, #3
 80064f2:	089b      	lsrs	r3, r3, #2
 80064f4:	613b      	str	r3, [r7, #16]
    for (i = 0U; i < count32b; i++)
 80064f6:	2300      	movs	r3, #0
 80064f8:	61bb      	str	r3, [r7, #24]
 80064fa:	e018      	b.n	800652e <USB_WritePacket+0x66>
    {
      USBx_DFIFO((uint32_t)ch_ep_num) = __UNALIGNED_UINT32_READ(pSrc);
 80064fc:	79fb      	ldrb	r3, [r7, #7]
 80064fe:	031a      	lsls	r2, r3, #12
 8006500:	697b      	ldr	r3, [r7, #20]
 8006502:	4413      	add	r3, r2
 8006504:	f503 5380 	add.w	r3, r3, #4096	@ 0x1000
 8006508:	461a      	mov	r2, r3
 800650a:	69fb      	ldr	r3, [r7, #28]
 800650c:	681b      	ldr	r3, [r3, #0]
 800650e:	6013      	str	r3, [r2, #0]
      pSrc++;
 8006510:	69fb      	ldr	r3, [r7, #28]
 8006512:	3301      	adds	r3, #1
 8006514:	61fb      	str	r3, [r7, #28]
      pSrc++;
 8006516:	69fb      	ldr	r3, [r7, #28]
 8006518:	3301      	adds	r3, #1
 800651a:	61fb      	str	r3, [r7, #28]
      pSrc++;
 800651c:	69fb      	ldr	r3, [r7, #28]
 800651e:	3301      	adds	r3, #1
 8006520:	61fb      	str	r3, [r7, #28]
      pSrc++;
 8006522:	69fb      	ldr	r3, [r7, #28]
 8006524:	3301      	adds	r3, #1
 8006526:	61fb      	str	r3, [r7, #28]
    for (i = 0U; i < count32b; i++)
 8006528:	69bb      	ldr	r3, [r7, #24]
 800652a:	3301      	adds	r3, #1
 800652c:	61bb      	str	r3, [r7, #24]
 800652e:	69ba      	ldr	r2, [r7, #24]
 8006530:	693b      	ldr	r3, [r7, #16]
 8006532:	429a      	cmp	r2, r3
 8006534:	d3e2      	bcc.n	80064fc <USB_WritePacket+0x34>
    }
  }

  return HAL_OK;
 8006536:	2300      	movs	r3, #0
}
 8006538:	4618      	mov	r0, r3
 800653a:	3724      	adds	r7, #36	@ 0x24
 800653c:	46bd      	mov	sp, r7
 800653e:	f85d 7b04 	ldr.w	r7, [sp], #4
 8006542:	4770      	bx	lr

08006544 <USB_ReadPacket>:
  * @param  dest  source pointer
  * @param  len  Number of bytes to read
  * @retval pointer to destination buffer
  */
void *USB_ReadPacket(const USB_OTG_GlobalTypeDef *USBx, uint8_t *dest, uint16_t len)
{
 8006544:	b480      	push	{r7}
 8006546:	b08b      	sub	sp, #44	@ 0x2c
 8006548:	af00      	add	r7, sp, #0
 800654a:	60f8      	str	r0, [r7, #12]
 800654c:	60b9      	str	r1, [r7, #8]
 800654e:	4613      	mov	r3, r2
 8006550:	80fb      	strh	r3, [r7, #6]
  uint32_t USBx_BASE = (uint32_t)USBx;
 8006552:	68fb      	ldr	r3, [r7, #12]
 8006554:	61bb      	str	r3, [r7, #24]
  uint8_t *pDest = dest;
 8006556:	68bb      	ldr	r3, [r7, #8]
 8006558:	627b      	str	r3, [r7, #36]	@ 0x24
  uint32_t pData;
  uint32_t i;
  uint32_t count32b = (uint32_t)len >> 2U;
 800655a:	88fb      	ldrh	r3, [r7, #6]
 800655c:	089b      	lsrs	r3, r3, #2
 800655e:	b29b      	uxth	r3, r3
 8006560:	617b      	str	r3, [r7, #20]
  uint16_t remaining_bytes = len % 4U;
 8006562:	88fb      	ldrh	r3, [r7, #6]
 8006564:	f003 0303 	and.w	r3, r3, #3
 8006568:	83fb      	strh	r3, [r7, #30]

  for (i = 0U; i < count32b; i++)
 800656a:	2300      	movs	r3, #0
 800656c:	623b      	str	r3, [r7, #32]
 800656e:	e014      	b.n	800659a <USB_ReadPacket+0x56>
  {
    __UNALIGNED_UINT32_WRITE(pDest, USBx_DFIFO(0U));
 8006570:	69bb      	ldr	r3, [r7, #24]
 8006572:	f503 5380 	add.w	r3, r3, #4096	@ 0x1000
 8006576:	681a      	ldr	r2, [r3, #0]
 8006578:	6a7b      	ldr	r3, [r7, #36]	@ 0x24
 800657a:	601a      	str	r2, [r3, #0]
    pDest++;
 800657c:	6a7b      	ldr	r3, [r7, #36]	@ 0x24
 800657e:	3301      	adds	r3, #1
 8006580:	627b      	str	r3, [r7, #36]	@ 0x24
    pDest++;
 8006582:	6a7b      	ldr	r3, [r7, #36]	@ 0x24
 8006584:	3301      	adds	r3, #1
 8006586:	627b      	str	r3, [r7, #36]	@ 0x24
    pDest++;
 8006588:	6a7b      	ldr	r3, [r7, #36]	@ 0x24
 800658a:	3301      	adds	r3, #1
 800658c:	627b      	str	r3, [r7, #36]	@ 0x24
    pDest++;
 800658e:	6a7b      	ldr	r3, [r7, #36]	@ 0x24
 8006590:	3301      	adds	r3, #1
 8006592:	627b      	str	r3, [r7, #36]	@ 0x24
  for (i = 0U; i < count32b; i++)
 8006594:	6a3b      	ldr	r3, [r7, #32]
 8006596:	3301      	adds	r3, #1
 8006598:	623b      	str	r3, [r7, #32]
 800659a:	6a3a      	ldr	r2, [r7, #32]
 800659c:	697b      	ldr	r3, [r7, #20]
 800659e:	429a      	cmp	r2, r3
 80065a0:	d3e6      	bcc.n	8006570 <USB_ReadPacket+0x2c>
  }

  /* When Number of data is not word aligned, read the remaining byte */
  if (remaining_bytes != 0U)
 80065a2:	8bfb      	ldrh	r3, [r7, #30]
 80065a4:	2b00      	cmp	r3, #0
 80065a6:	d01e      	beq.n	80065e6 <USB_ReadPacket+0xa2>
  {
    i = 0U;
 80065a8:	2300      	movs	r3, #0
 80065aa:	623b      	str	r3, [r7, #32]
    __UNALIGNED_UINT32_WRITE(&pData, USBx_DFIFO(0U));
 80065ac:	69bb      	ldr	r3, [r7, #24]
 80065ae:	f503 5380 	add.w	r3, r3, #4096	@ 0x1000
 80065b2:	461a      	mov	r2, r3
 80065b4:	f107 0310 	add.w	r3, r7, #16
 80065b8:	6812      	ldr	r2, [r2, #0]
 80065ba:	601a      	str	r2, [r3, #0]

    do
    {
      *(uint8_t *)pDest = (uint8_t)(pData >> (8U * (uint8_t)(i)));
 80065bc:	693a      	ldr	r2, [r7, #16]
 80065be:	6a3b      	ldr	r3, [r7, #32]
 80065c0:	b2db      	uxtb	r3, r3
 80065c2:	00db      	lsls	r3, r3, #3
 80065c4:	fa22 f303 	lsr.w	r3, r2, r3
 80065c8:	b2da      	uxtb	r2, r3
 80065ca:	6a7b      	ldr	r3, [r7, #36]	@ 0x24
 80065cc:	701a      	strb	r2, [r3, #0]
      i++;
 80065ce:	6a3b      	ldr	r3, [r7, #32]
 80065d0:	3301      	adds	r3, #1
 80065d2:	623b      	str	r3, [r7, #32]
      pDest++;
 80065d4:	6a7b      	ldr	r3, [r7, #36]	@ 0x24
 80065d6:	3301      	adds	r3, #1
 80065d8:	627b      	str	r3, [r7, #36]	@ 0x24
      remaining_bytes--;
 80065da:	8bfb      	ldrh	r3, [r7, #30]
 80065dc:	3b01      	subs	r3, #1
 80065de:	83fb      	strh	r3, [r7, #30]
    } while (remaining_bytes != 0U);
 80065e0:	8bfb      	ldrh	r3, [r7, #30]
 80065e2:	2b00      	cmp	r3, #0
 80065e4:	d1ea      	bne.n	80065bc <USB_ReadPacket+0x78>
  }

  return ((void *)pDest);
 80065e6:	6a7b      	ldr	r3, [r7, #36]	@ 0x24
}
 80065e8:	4618      	mov	r0, r3
 80065ea:	372c      	adds	r7, #44	@ 0x2c
 80065ec:	46bd      	mov	sp, r7
 80065ee:	f85d 7b04 	ldr.w	r7, [sp], #4
 80065f2:	4770      	bx	lr

080065f4 <USB_EPSetStall>:
  * @param  USBx  Selected device
  * @param  ep pointer to endpoint structure
  * @retval HAL status
  */
HAL_StatusTypeDef USB_EPSetStall(const USB_OTG_GlobalTypeDef *USBx, const USB_OTG_EPTypeDef *ep)
{
 80065f4:	b480      	push	{r7}
 80065f6:	b085      	sub	sp, #20
 80065f8:	af00      	add	r7, sp, #0
 80065fa:	6078      	str	r0, [r7, #4]
 80065fc:	6039      	str	r1, [r7, #0]
  uint32_t USBx_BASE = (uint32_t)USBx;
 80065fe:	687b      	ldr	r3, [r7, #4]
 8006600:	60fb      	str	r3, [r7, #12]
  uint32_t epnum = (uint32_t)ep->num;
 8006602:	683b      	ldr	r3, [r7, #0]
 8006604:	781b      	ldrb	r3, [r3, #0]
 8006606:	60bb      	str	r3, [r7, #8]

  if (ep->is_in == 1U)
 8006608:	683b      	ldr	r3, [r7, #0]
 800660a:	785b      	ldrb	r3, [r3, #1]
 800660c:	2b01      	cmp	r3, #1
 800660e:	d12c      	bne.n	800666a <USB_EPSetStall+0x76>
  {
    if (((USBx_INEP(epnum)->DIEPCTL & USB_OTG_DIEPCTL_EPENA) == 0U) && (epnum != 0U))
 8006610:	68bb      	ldr	r3, [r7, #8]
 8006612:	015a      	lsls	r2, r3, #5
 8006614:	68fb      	ldr	r3, [r7, #12]
 8006616:	4413      	add	r3, r2
 8006618:	f503 6310 	add.w	r3, r3, #2304	@ 0x900
 800661c:	681b      	ldr	r3, [r3, #0]
 800661e:	2b00      	cmp	r3, #0
 8006620:	db12      	blt.n	8006648 <USB_EPSetStall+0x54>
 8006622:	68bb      	ldr	r3, [r7, #8]
 8006624:	2b00      	cmp	r3, #0
 8006626:	d00f      	beq.n	8006648 <USB_EPSetStall+0x54>
    {
      USBx_INEP(epnum)->DIEPCTL &= ~(USB_OTG_DIEPCTL_EPDIS);
 8006628:	68bb      	ldr	r3, [r7, #8]
 800662a:	015a      	lsls	r2, r3, #5
 800662c:	68fb      	ldr	r3, [r7, #12]
 800662e:	4413      	add	r3, r2
 8006630:	f503 6310 	add.w	r3, r3, #2304	@ 0x900
 8006634:	681b      	ldr	r3, [r3, #0]
 8006636:	68ba      	ldr	r2, [r7, #8]
 8006638:	0151      	lsls	r1, r2, #5
 800663a:	68fa      	ldr	r2, [r7, #12]
 800663c:	440a      	add	r2, r1
 800663e:	f502 6210 	add.w	r2, r2, #2304	@ 0x900
 8006642:	f023 4380 	bic.w	r3, r3, #1073741824	@ 0x40000000
 8006646:	6013      	str	r3, [r2, #0]
    }
    USBx_INEP(epnum)->DIEPCTL |= USB_OTG_DIEPCTL_STALL;
 8006648:	68bb      	ldr	r3, [r7, #8]
 800664a:	015a      	lsls	r2, r3, #5
 800664c:	68fb      	ldr	r3, [r7, #12]
 800664e:	4413      	add	r3, r2
 8006650:	f503 6310 	add.w	r3, r3, #2304	@ 0x900
 8006654:	681b      	ldr	r3, [r3, #0]
 8006656:	68ba      	ldr	r2, [r7, #8]
 8006658:	0151      	lsls	r1, r2, #5
 800665a:	68fa      	ldr	r2, [r7, #12]
 800665c:	440a      	add	r2, r1
 800665e:	f502 6210 	add.w	r2, r2, #2304	@ 0x900
 8006662:	f443 1300 	orr.w	r3, r3, #2097152	@ 0x200000
 8006666:	6013      	str	r3, [r2, #0]
 8006668:	e02b      	b.n	80066c2 <USB_EPSetStall+0xce>
  }
  else
  {
    if (((USBx_OUTEP(epnum)->DOEPCTL & USB_OTG_DOEPCTL_EPENA) == 0U) && (epnum != 0U))
 800666a:	68bb      	ldr	r3, [r7, #8]
 800666c:	015a      	lsls	r2, r3, #5
 800666e:	68fb      	ldr	r3, [r7, #12]
 8006670:	4413      	add	r3, r2
 8006672:	f503 6330 	add.w	r3, r3, #2816	@ 0xb00
 8006676:	681b      	ldr	r3, [r3, #0]
 8006678:	2b00      	cmp	r3, #0
 800667a:	db12      	blt.n	80066a2 <USB_EPSetStall+0xae>
 800667c:	68bb      	ldr	r3, [r7, #8]
 800667e:	2b00      	cmp	r3, #0
 8006680:	d00f      	beq.n	80066a2 <USB_EPSetStall+0xae>
    {
      USBx_OUTEP(epnum)->DOEPCTL &= ~(USB_OTG_DOEPCTL_EPDIS);
 8006682:	68bb      	ldr	r3, [r7, #8]
 8006684:	015a      	lsls	r2, r3, #5
 8006686:	68fb      	ldr	r3, [r7, #12]
 8006688:	4413      	add	r3, r2
 800668a:	f503 6330 	add.w	r3, r3, #2816	@ 0xb00
 800668e:	681b      	ldr	r3, [r3, #0]
 8006690:	68ba      	ldr	r2, [r7, #8]
 8006692:	0151      	lsls	r1, r2, #5
 8006694:	68fa      	ldr	r2, [r7, #12]
 8006696:	440a      	add	r2, r1
 8006698:	f502 6230 	add.w	r2, r2, #2816	@ 0xb00
 800669c:	f023 4380 	bic.w	r3, r3, #1073741824	@ 0x40000000
 80066a0:	6013      	str	r3, [r2, #0]
    }
    USBx_OUTEP(epnum)->DOEPCTL |= USB_OTG_DOEPCTL_STALL;
 80066a2:	68bb      	ldr	r3, [r7, #8]
 80066a4:	015a      	lsls	r2, r3, #5
 80066a6:	68fb      	ldr	r3, [r7, #12]
 80066a8:	4413      	add	r3, r2
 80066aa:	f503 6330 	add.w	r3, r3, #2816	@ 0xb00
 80066ae:	681b      	ldr	r3, [r3, #0]
 80066b0:	68ba      	ldr	r2, [r7, #8]
 80066b2:	0151      	lsls	r1, r2, #5
 80066b4:	68fa      	ldr	r2, [r7, #12]
 80066b6:	440a      	add	r2, r1
 80066b8:	f502 6230 	add.w	r2, r2, #2816	@ 0xb00
 80066bc:	f443 1300 	orr.w	r3, r3, #2097152	@ 0x200000
 80066c0:	6013      	str	r3, [r2, #0]
  }

  return HAL_OK;
 80066c2:	2300      	movs	r3, #0
}
 80066c4:	4618      	mov	r0, r3
 80066c6:	3714      	adds	r7, #20
 80066c8:	46bd      	mov	sp, r7
 80066ca:	f85d 7b04 	ldr.w	r7, [sp], #4
 80066ce:	4770      	bx	lr

080066d0 <USB_EPClearStall>:
  * @param  USBx  Selected device
  * @param  ep pointer to endpoint structure
  * @retval HAL status
  */
HAL_StatusTypeDef USB_EPClearStall(const USB_OTG_GlobalTypeDef *USBx, const USB_OTG_EPTypeDef *ep)
{
 80066d0:	b480      	push	{r7}
 80066d2:	b085      	sub	sp, #20
 80066d4:	af00      	add	r7, sp, #0
 80066d6:	6078      	str	r0, [r7, #4]
 80066d8:	6039      	str	r1, [r7, #0]
  uint32_t USBx_BASE = (uint32_t)USBx;
 80066da:	687b      	ldr	r3, [r7, #4]
 80066dc:	60fb      	str	r3, [r7, #12]
  uint32_t epnum = (uint32_t)ep->num;
 80066de:	683b      	ldr	r3, [r7, #0]
 80066e0:	781b      	ldrb	r3, [r3, #0]
 80066e2:	60bb      	str	r3, [r7, #8]

  if (ep->is_in == 1U)
 80066e4:	683b      	ldr	r3, [r7, #0]
 80066e6:	785b      	ldrb	r3, [r3, #1]
 80066e8:	2b01      	cmp	r3, #1
 80066ea:	d128      	bne.n	800673e <USB_EPClearStall+0x6e>
  {
    USBx_INEP(epnum)->DIEPCTL &= ~USB_OTG_DIEPCTL_STALL;
 80066ec:	68bb      	ldr	r3, [r7, #8]
 80066ee:	015a      	lsls	r2, r3, #5
 80066f0:	68fb      	ldr	r3, [r7, #12]
 80066f2:	4413      	add	r3, r2
 80066f4:	f503 6310 	add.w	r3, r3, #2304	@ 0x900
 80066f8:	681b      	ldr	r3, [r3, #0]
 80066fa:	68ba      	ldr	r2, [r7, #8]
 80066fc:	0151      	lsls	r1, r2, #5
 80066fe:	68fa      	ldr	r2, [r7, #12]
 8006700:	440a      	add	r2, r1
 8006702:	f502 6210 	add.w	r2, r2, #2304	@ 0x900
 8006706:	f423 1300 	bic.w	r3, r3, #2097152	@ 0x200000
 800670a:	6013      	str	r3, [r2, #0]
    if ((ep->type == EP_TYPE_INTR) || (ep->type == EP_TYPE_BULK))
 800670c:	683b      	ldr	r3, [r7, #0]
 800670e:	791b      	ldrb	r3, [r3, #4]
 8006710:	2b03      	cmp	r3, #3
 8006712:	d003      	beq.n	800671c <USB_EPClearStall+0x4c>
 8006714:	683b      	ldr	r3, [r7, #0]
 8006716:	791b      	ldrb	r3, [r3, #4]
 8006718:	2b02      	cmp	r3, #2
 800671a:	d138      	bne.n	800678e <USB_EPClearStall+0xbe>
    {
      USBx_INEP(epnum)->DIEPCTL |= USB_OTG_DIEPCTL_SD0PID_SEVNFRM; /* DATA0 */
 800671c:	68bb      	ldr	r3, [r7, #8]
 800671e:	015a      	lsls	r2, r3, #5
 8006720:	68fb      	ldr	r3, [r7, #12]
 8006722:	4413      	add	r3, r2
 8006724:	f503 6310 	add.w	r3, r3, #2304	@ 0x900
 8006728:	681b      	ldr	r3, [r3, #0]
 800672a:	68ba      	ldr	r2, [r7, #8]
 800672c:	0151      	lsls	r1, r2, #5
 800672e:	68fa      	ldr	r2, [r7, #12]
 8006730:	440a      	add	r2, r1
 8006732:	f502 6210 	add.w	r2, r2, #2304	@ 0x900
 8006736:	f043 5380 	orr.w	r3, r3, #268435456	@ 0x10000000
 800673a:	6013      	str	r3, [r2, #0]
 800673c:	e027      	b.n	800678e <USB_EPClearStall+0xbe>
    }
  }
  else
  {
    USBx_OUTEP(epnum)->DOEPCTL &= ~USB_OTG_DOEPCTL_STALL;
 800673e:	68bb      	ldr	r3, [r7, #8]
 8006740:	015a      	lsls	r2, r3, #5
 8006742:	68fb      	ldr	r3, [r7, #12]
 8006744:	4413      	add	r3, r2
 8006746:	f503 6330 	add.w	r3, r3, #2816	@ 0xb00
 800674a:	681b      	ldr	r3, [r3, #0]
 800674c:	68ba      	ldr	r2, [r7, #8]
 800674e:	0151      	lsls	r1, r2, #5
 8006750:	68fa      	ldr	r2, [r7, #12]
 8006752:	440a      	add	r2, r1
 8006754:	f502 6230 	add.w	r2, r2, #2816	@ 0xb00
 8006758:	f423 1300 	bic.w	r3, r3, #2097152	@ 0x200000
 800675c:	6013      	str	r3, [r2, #0]
    if ((ep->type == EP_TYPE_INTR) || (ep->type == EP_TYPE_BULK))
 800675e:	683b      	ldr	r3, [r7, #0]
 8006760:	791b      	ldrb	r3, [r3, #4]
 8006762:	2b03      	cmp	r3, #3
 8006764:	d003      	beq.n	800676e <USB_EPClearStall+0x9e>
 8006766:	683b      	ldr	r3, [r7, #0]
 8006768:	791b      	ldrb	r3, [r3, #4]
 800676a:	2b02      	cmp	r3, #2
 800676c:	d10f      	bne.n	800678e <USB_EPClearStall+0xbe>
    {
      USBx_OUTEP(epnum)->DOEPCTL |= USB_OTG_DOEPCTL_SD0PID_SEVNFRM; /* DATA0 */
 800676e:	68bb      	ldr	r3, [r7, #8]
 8006770:	015a      	lsls	r2, r3, #5
 8006772:	68fb      	ldr	r3, [r7, #12]
 8006774:	4413      	add	r3, r2
 8006776:	f503 6330 	add.w	r3, r3, #2816	@ 0xb00
 800677a:	681b      	ldr	r3, [r3, #0]
 800677c:	68ba      	ldr	r2, [r7, #8]
 800677e:	0151      	lsls	r1, r2, #5
 8006780:	68fa      	ldr	r2, [r7, #12]
 8006782:	440a      	add	r2, r1
 8006784:	f502 6230 	add.w	r2, r2, #2816	@ 0xb00
 8006788:	f043 5380 	orr.w	r3, r3, #268435456	@ 0x10000000
 800678c:	6013      	str	r3, [r2, #0]
    }
  }
  return HAL_OK;
 800678e:	2300      	movs	r3, #0
}
 8006790:	4618      	mov	r0, r3
 8006792:	3714      	adds	r7, #20
 8006794:	46bd      	mov	sp, r7
 8006796:	f85d 7b04 	ldr.w	r7, [sp], #4
 800679a:	4770      	bx	lr

0800679c <USB_SetDevAddress>:
  * @param  address  new device address to be assigned
  *          This parameter can be a value from 0 to 255
  * @retval HAL status
  */
HAL_StatusTypeDef USB_SetDevAddress(const USB_OTG_GlobalTypeDef *USBx, uint8_t address)
{
 800679c:	b480      	push	{r7}
 800679e:	b085      	sub	sp, #20
 80067a0:	af00      	add	r7, sp, #0
 80067a2:	6078      	str	r0, [r7, #4]
 80067a4:	460b      	mov	r3, r1
 80067a6:	70fb      	strb	r3, [r7, #3]
  uint32_t USBx_BASE = (uint32_t)USBx;
 80067a8:	687b      	ldr	r3, [r7, #4]
 80067aa:	60fb      	str	r3, [r7, #12]

  USBx_DEVICE->DCFG &= ~(USB_OTG_DCFG_DAD);
 80067ac:	68fb      	ldr	r3, [r7, #12]
 80067ae:	f503 6300 	add.w	r3, r3, #2048	@ 0x800
 80067b2:	681b      	ldr	r3, [r3, #0]
 80067b4:	68fa      	ldr	r2, [r7, #12]
 80067b6:	f502 6200 	add.w	r2, r2, #2048	@ 0x800
 80067ba:	f423 63fe 	bic.w	r3, r3, #2032	@ 0x7f0
 80067be:	6013      	str	r3, [r2, #0]
  USBx_DEVICE->DCFG |= ((uint32_t)address << 4) & USB_OTG_DCFG_DAD;
 80067c0:	68fb      	ldr	r3, [r7, #12]
 80067c2:	f503 6300 	add.w	r3, r3, #2048	@ 0x800
 80067c6:	681a      	ldr	r2, [r3, #0]
 80067c8:	78fb      	ldrb	r3, [r7, #3]
 80067ca:	011b      	lsls	r3, r3, #4
 80067cc:	f403 63fe 	and.w	r3, r3, #2032	@ 0x7f0
 80067d0:	68f9      	ldr	r1, [r7, #12]
 80067d2:	f501 6100 	add.w	r1, r1, #2048	@ 0x800
 80067d6:	4313      	orrs	r3, r2
 80067d8:	600b      	str	r3, [r1, #0]

  return HAL_OK;
 80067da:	2300      	movs	r3, #0
}
 80067dc:	4618      	mov	r0, r3
 80067de:	3714      	adds	r7, #20
 80067e0:	46bd      	mov	sp, r7
 80067e2:	f85d 7b04 	ldr.w	r7, [sp], #4
 80067e6:	4770      	bx	lr

080067e8 <USB_DevConnect>:
  * @brief  USB_DevConnect : Connect the USB device by enabling Rpu
  * @param  USBx  Selected device
  * @retval HAL status
  */
HAL_StatusTypeDef USB_DevConnect(const USB_OTG_GlobalTypeDef *USBx)
{
 80067e8:	b480      	push	{r7}
 80067ea:	b085      	sub	sp, #20
 80067ec:	af00      	add	r7, sp, #0
 80067ee:	6078      	str	r0, [r7, #4]
  uint32_t USBx_BASE = (uint32_t)USBx;
 80067f0:	687b      	ldr	r3, [r7, #4]
 80067f2:	60fb      	str	r3, [r7, #12]

  /* In case phy is stopped, ensure to ungate and restore the phy CLK */
  USBx_PCGCCTL &= ~(USB_OTG_PCGCCTL_STOPCLK | USB_OTG_PCGCCTL_GATECLK);
 80067f4:	68fb      	ldr	r3, [r7, #12]
 80067f6:	f503 6360 	add.w	r3, r3, #3584	@ 0xe00
 80067fa:	681b      	ldr	r3, [r3, #0]
 80067fc:	68fa      	ldr	r2, [r7, #12]
 80067fe:	f502 6260 	add.w	r2, r2, #3584	@ 0xe00
 8006802:	f023 0303 	bic.w	r3, r3, #3
 8006806:	6013      	str	r3, [r2, #0]

  USBx_DEVICE->DCTL &= ~USB_OTG_DCTL_SDIS;
 8006808:	68fb      	ldr	r3, [r7, #12]
 800680a:	f503 6300 	add.w	r3, r3, #2048	@ 0x800
 800680e:	685b      	ldr	r3, [r3, #4]
 8006810:	68fa      	ldr	r2, [r7, #12]
 8006812:	f502 6200 	add.w	r2, r2, #2048	@ 0x800
 8006816:	f023 0302 	bic.w	r3, r3, #2
 800681a:	6053      	str	r3, [r2, #4]

  return HAL_OK;
 800681c:	2300      	movs	r3, #0
}
 800681e:	4618      	mov	r0, r3
 8006820:	3714      	adds	r7, #20
 8006822:	46bd      	mov	sp, r7
 8006824:	f85d 7b04 	ldr.w	r7, [sp], #4
 8006828:	4770      	bx	lr

0800682a <USB_DevDisconnect>:
  * @brief  USB_DevDisconnect : Disconnect the USB device by disabling Rpu
  * @param  USBx  Selected device
  * @retval HAL status
  */
HAL_StatusTypeDef USB_DevDisconnect(const USB_OTG_GlobalTypeDef *USBx)
{
 800682a:	b480      	push	{r7}
 800682c:	b085      	sub	sp, #20
 800682e:	af00      	add	r7, sp, #0
 8006830:	6078      	str	r0, [r7, #4]
  uint32_t USBx_BASE = (uint32_t)USBx;
 8006832:	687b      	ldr	r3, [r7, #4]
 8006834:	60fb      	str	r3, [r7, #12]

  /* In case phy is stopped, ensure to ungate and restore the phy CLK */
  USBx_PCGCCTL &= ~(USB_OTG_PCGCCTL_STOPCLK | USB_OTG_PCGCCTL_GATECLK);
 8006836:	68fb      	ldr	r3, [r7, #12]
 8006838:	f503 6360 	add.w	r3, r3, #3584	@ 0xe00
 800683c:	681b      	ldr	r3, [r3, #0]
 800683e:	68fa      	ldr	r2, [r7, #12]
 8006840:	f502 6260 	add.w	r2, r2, #3584	@ 0xe00
 8006844:	f023 0303 	bic.w	r3, r3, #3
 8006848:	6013      	str	r3, [r2, #0]

  USBx_DEVICE->DCTL |= USB_OTG_DCTL_SDIS;
 800684a:	68fb      	ldr	r3, [r7, #12]
 800684c:	f503 6300 	add.w	r3, r3, #2048	@ 0x800
 8006850:	685b      	ldr	r3, [r3, #4]
 8006852:	68fa      	ldr	r2, [r7, #12]
 8006854:	f502 6200 	add.w	r2, r2, #2048	@ 0x800
 8006858:	f043 0302 	orr.w	r3, r3, #2
 800685c:	6053      	str	r3, [r2, #4]

  return HAL_OK;
 800685e:	2300      	movs	r3, #0
}
 8006860:	4618      	mov	r0, r3
 8006862:	3714      	adds	r7, #20
 8006864:	46bd      	mov	sp, r7
 8006866:	f85d 7b04 	ldr.w	r7, [sp], #4
 800686a:	4770      	bx	lr

0800686c <USB_ReadInterrupts>:
  * @brief  USB_ReadInterrupts: return the global USB interrupt status
  * @param  USBx  Selected device
  * @retval USB Global Interrupt status
  */
uint32_t USB_ReadInterrupts(USB_OTG_GlobalTypeDef const *USBx)
{
 800686c:	b480      	push	{r7}
 800686e:	b085      	sub	sp, #20
 8006870:	af00      	add	r7, sp, #0
 8006872:	6078      	str	r0, [r7, #4]
  uint32_t tmpreg;

  tmpreg = USBx->GINTSTS;
 8006874:	687b      	ldr	r3, [r7, #4]
 8006876:	695b      	ldr	r3, [r3, #20]
 8006878:	60fb      	str	r3, [r7, #12]
  tmpreg &= USBx->GINTMSK;
 800687a:	687b      	ldr	r3, [r7, #4]
 800687c:	699b      	ldr	r3, [r3, #24]
 800687e:	68fa      	ldr	r2, [r7, #12]
 8006880:	4013      	ands	r3, r2
 8006882:	60fb      	str	r3, [r7, #12]

  return tmpreg;
 8006884:	68fb      	ldr	r3, [r7, #12]
}
 8006886:	4618      	mov	r0, r3
 8006888:	3714      	adds	r7, #20
 800688a:	46bd      	mov	sp, r7
 800688c:	f85d 7b04 	ldr.w	r7, [sp], #4
 8006890:	4770      	bx	lr

08006892 <USB_ReadDevAllOutEpInterrupt>:
  * @brief  USB_ReadDevAllOutEpInterrupt: return the USB device OUT endpoints interrupt status
  * @param  USBx  Selected device
  * @retval USB Device OUT EP interrupt status
  */
uint32_t USB_ReadDevAllOutEpInterrupt(const USB_OTG_GlobalTypeDef *USBx)
{
 8006892:	b480      	push	{r7}
 8006894:	b085      	sub	sp, #20
 8006896:	af00      	add	r7, sp, #0
 8006898:	6078      	str	r0, [r7, #4]
  uint32_t USBx_BASE = (uint32_t)USBx;
 800689a:	687b      	ldr	r3, [r7, #4]
 800689c:	60fb      	str	r3, [r7, #12]
  uint32_t tmpreg;

  tmpreg  = USBx_DEVICE->DAINT;
 800689e:	68fb      	ldr	r3, [r7, #12]
 80068a0:	f503 6300 	add.w	r3, r3, #2048	@ 0x800
 80068a4:	699b      	ldr	r3, [r3, #24]
 80068a6:	60bb      	str	r3, [r7, #8]
  tmpreg &= USBx_DEVICE->DAINTMSK;
 80068a8:	68fb      	ldr	r3, [r7, #12]
 80068aa:	f503 6300 	add.w	r3, r3, #2048	@ 0x800
 80068ae:	69db      	ldr	r3, [r3, #28]
 80068b0:	68ba      	ldr	r2, [r7, #8]
 80068b2:	4013      	ands	r3, r2
 80068b4:	60bb      	str	r3, [r7, #8]

  return ((tmpreg & 0xffff0000U) >> 16);
 80068b6:	68bb      	ldr	r3, [r7, #8]
 80068b8:	0c1b      	lsrs	r3, r3, #16
}
 80068ba:	4618      	mov	r0, r3
 80068bc:	3714      	adds	r7, #20
 80068be:	46bd      	mov	sp, r7
 80068c0:	f85d 7b04 	ldr.w	r7, [sp], #4
 80068c4:	4770      	bx	lr

080068c6 <USB_ReadDevAllInEpInterrupt>:
  * @brief  USB_ReadDevAllInEpInterrupt: return the USB device IN endpoints interrupt status
  * @param  USBx  Selected device
  * @retval USB Device IN EP interrupt status
  */
uint32_t USB_ReadDevAllInEpInterrupt(const USB_OTG_GlobalTypeDef *USBx)
{
 80068c6:	b480      	push	{r7}
 80068c8:	b085      	sub	sp, #20
 80068ca:	af00      	add	r7, sp, #0
 80068cc:	6078      	str	r0, [r7, #4]
  uint32_t USBx_BASE = (uint32_t)USBx;
 80068ce:	687b      	ldr	r3, [r7, #4]
 80068d0:	60fb      	str	r3, [r7, #12]
  uint32_t tmpreg;

  tmpreg  = USBx_DEVICE->DAINT;
 80068d2:	68fb      	ldr	r3, [r7, #12]
 80068d4:	f503 6300 	add.w	r3, r3, #2048	@ 0x800
 80068d8:	699b      	ldr	r3, [r3, #24]
 80068da:	60bb      	str	r3, [r7, #8]
  tmpreg &= USBx_DEVICE->DAINTMSK;
 80068dc:	68fb      	ldr	r3, [r7, #12]
 80068de:	f503 6300 	add.w	r3, r3, #2048	@ 0x800
 80068e2:	69db      	ldr	r3, [r3, #28]
 80068e4:	68ba      	ldr	r2, [r7, #8]
 80068e6:	4013      	ands	r3, r2
 80068e8:	60bb      	str	r3, [r7, #8]

  return ((tmpreg & 0xFFFFU));
 80068ea:	68bb      	ldr	r3, [r7, #8]
 80068ec:	b29b      	uxth	r3, r3
}
 80068ee:	4618      	mov	r0, r3
 80068f0:	3714      	adds	r7, #20
 80068f2:	46bd      	mov	sp, r7
 80068f4:	f85d 7b04 	ldr.w	r7, [sp], #4
 80068f8:	4770      	bx	lr

080068fa <USB_ReadDevOutEPInterrupt>:
  * @param  epnum  endpoint number
  *          This parameter can be a value from 0 to 15
  * @retval Device OUT EP Interrupt register
  */
uint32_t USB_ReadDevOutEPInterrupt(const USB_OTG_GlobalTypeDef *USBx, uint8_t epnum)
{
 80068fa:	b480      	push	{r7}
 80068fc:	b085      	sub	sp, #20
 80068fe:	af00      	add	r7, sp, #0
 8006900:	6078      	str	r0, [r7, #4]
 8006902:	460b      	mov	r3, r1
 8006904:	70fb      	strb	r3, [r7, #3]
  uint32_t USBx_BASE = (uint32_t)USBx;
 8006906:	687b      	ldr	r3, [r7, #4]
 8006908:	60fb      	str	r3, [r7, #12]
  uint32_t tmpreg;

  tmpreg  = USBx_OUTEP((uint32_t)epnum)->DOEPINT;
 800690a:	78fb      	ldrb	r3, [r7, #3]
 800690c:	015a      	lsls	r2, r3, #5
 800690e:	68fb      	ldr	r3, [r7, #12]
 8006910:	4413      	add	r3, r2
 8006912:	f503 6330 	add.w	r3, r3, #2816	@ 0xb00
 8006916:	689b      	ldr	r3, [r3, #8]
 8006918:	60bb      	str	r3, [r7, #8]
  tmpreg &= USBx_DEVICE->DOEPMSK;
 800691a:	68fb      	ldr	r3, [r7, #12]
 800691c:	f503 6300 	add.w	r3, r3, #2048	@ 0x800
 8006920:	695b      	ldr	r3, [r3, #20]
 8006922:	68ba      	ldr	r2, [r7, #8]
 8006924:	4013      	ands	r3, r2
 8006926:	60bb      	str	r3, [r7, #8]

  return tmpreg;
 8006928:	68bb      	ldr	r3, [r7, #8]
}
 800692a:	4618      	mov	r0, r3
 800692c:	3714      	adds	r7, #20
 800692e:	46bd      	mov	sp, r7
 8006930:	f85d 7b04 	ldr.w	r7, [sp], #4
 8006934:	4770      	bx	lr

08006936 <USB_ReadDevInEPInterrupt>:
  * @param  epnum  endpoint number
  *          This parameter can be a value from 0 to 15
  * @retval Device IN EP Interrupt register
  */
uint32_t USB_ReadDevInEPInterrupt(const USB_OTG_GlobalTypeDef *USBx, uint8_t epnum)
{
 8006936:	b480      	push	{r7}
 8006938:	b087      	sub	sp, #28
 800693a:	af00      	add	r7, sp, #0
 800693c:	6078      	str	r0, [r7, #4]
 800693e:	460b      	mov	r3, r1
 8006940:	70fb      	strb	r3, [r7, #3]
  uint32_t USBx_BASE = (uint32_t)USBx;
 8006942:	687b      	ldr	r3, [r7, #4]
 8006944:	617b      	str	r3, [r7, #20]
  uint32_t tmpreg;
  uint32_t msk;
  uint32_t emp;

  msk = USBx_DEVICE->DIEPMSK;
 8006946:	697b      	ldr	r3, [r7, #20]
 8006948:	f503 6300 	add.w	r3, r3, #2048	@ 0x800
 800694c:	691b      	ldr	r3, [r3, #16]
 800694e:	613b      	str	r3, [r7, #16]
  emp = USBx_DEVICE->DIEPEMPMSK;
 8006950:	697b      	ldr	r3, [r7, #20]
 8006952:	f503 6300 	add.w	r3, r3, #2048	@ 0x800
 8006956:	6b5b      	ldr	r3, [r3, #52]	@ 0x34
 8006958:	60fb      	str	r3, [r7, #12]
  msk |= ((emp >> (epnum & EP_ADDR_MSK)) & 0x1U) << 7;
 800695a:	78fb      	ldrb	r3, [r7, #3]
 800695c:	f003 030f 	and.w	r3, r3, #15
 8006960:	68fa      	ldr	r2, [r7, #12]
 8006962:	fa22 f303 	lsr.w	r3, r2, r3
 8006966:	01db      	lsls	r3, r3, #7
 8006968:	b2db      	uxtb	r3, r3
 800696a:	693a      	ldr	r2, [r7, #16]
 800696c:	4313      	orrs	r3, r2
 800696e:	613b      	str	r3, [r7, #16]
  tmpreg = USBx_INEP((uint32_t)epnum)->DIEPINT & msk;
 8006970:	78fb      	ldrb	r3, [r7, #3]
 8006972:	015a      	lsls	r2, r3, #5
 8006974:	697b      	ldr	r3, [r7, #20]
 8006976:	4413      	add	r3, r2
 8006978:	f503 6310 	add.w	r3, r3, #2304	@ 0x900
 800697c:	689b      	ldr	r3, [r3, #8]
 800697e:	693a      	ldr	r2, [r7, #16]
 8006980:	4013      	ands	r3, r2
 8006982:	60bb      	str	r3, [r7, #8]

  return tmpreg;
 8006984:	68bb      	ldr	r3, [r7, #8]
}
 8006986:	4618      	mov	r0, r3
 8006988:	371c      	adds	r7, #28
 800698a:	46bd      	mov	sp, r7
 800698c:	f85d 7b04 	ldr.w	r7, [sp], #4
 8006990:	4770      	bx	lr

08006992 <USB_GetMode>:
  *          This parameter can be one of these values:
  *           1 : Host
  *           0 : Device
  */
uint32_t USB_GetMode(const USB_OTG_GlobalTypeDef *USBx)
{
 8006992:	b480      	push	{r7}
 8006994:	b083      	sub	sp, #12
 8006996:	af00      	add	r7, sp, #0
 8006998:	6078      	str	r0, [r7, #4]
  return ((USBx->GINTSTS) & 0x1U);
 800699a:	687b      	ldr	r3, [r7, #4]
 800699c:	695b      	ldr	r3, [r3, #20]
 800699e:	f003 0301 	and.w	r3, r3, #1
}
 80069a2:	4618      	mov	r0, r3
 80069a4:	370c      	adds	r7, #12
 80069a6:	46bd      	mov	sp, r7
 80069a8:	f85d 7b04 	ldr.w	r7, [sp], #4
 80069ac:	4770      	bx	lr

080069ae <USB_ActivateSetup>:
  * @brief  Activate EP0 for Setup transactions
  * @param  USBx  Selected device
  * @retval HAL status
  */
HAL_StatusTypeDef USB_ActivateSetup(const USB_OTG_GlobalTypeDef *USBx)
{
 80069ae:	b480      	push	{r7}
 80069b0:	b085      	sub	sp, #20
 80069b2:	af00      	add	r7, sp, #0
 80069b4:	6078      	str	r0, [r7, #4]
  uint32_t USBx_BASE = (uint32_t)USBx;
 80069b6:	687b      	ldr	r3, [r7, #4]
 80069b8:	60fb      	str	r3, [r7, #12]

  /* Set the MPS of the IN EP0 to 64 bytes */
  USBx_INEP(0U)->DIEPCTL &= ~USB_OTG_DIEPCTL_MPSIZ;
 80069ba:	68fb      	ldr	r3, [r7, #12]
 80069bc:	f503 6310 	add.w	r3, r3, #2304	@ 0x900
 80069c0:	681b      	ldr	r3, [r3, #0]
 80069c2:	68fa      	ldr	r2, [r7, #12]
 80069c4:	f502 6210 	add.w	r2, r2, #2304	@ 0x900
 80069c8:	f423 63ff 	bic.w	r3, r3, #2040	@ 0x7f8
 80069cc:	f023 0307 	bic.w	r3, r3, #7
 80069d0:	6013      	str	r3, [r2, #0]

  USBx_DEVICE->DCTL |= USB_OTG_DCTL_CGINAK;
 80069d2:	68fb      	ldr	r3, [r7, #12]
 80069d4:	f503 6300 	add.w	r3, r3, #2048	@ 0x800
 80069d8:	685b      	ldr	r3, [r3, #4]
 80069da:	68fa      	ldr	r2, [r7, #12]
 80069dc:	f502 6200 	add.w	r2, r2, #2048	@ 0x800
 80069e0:	f443 7380 	orr.w	r3, r3, #256	@ 0x100
 80069e4:	6053      	str	r3, [r2, #4]

  return HAL_OK;
 80069e6:	2300      	movs	r3, #0
}
 80069e8:	4618      	mov	r0, r3
 80069ea:	3714      	adds	r7, #20
 80069ec:	46bd      	mov	sp, r7
 80069ee:	f85d 7b04 	ldr.w	r7, [sp], #4
 80069f2:	4770      	bx	lr

080069f4 <USB_EP0_OutStart>:
  *           1 : DMA feature used
  * @param  psetup  pointer to setup packet
  * @retval HAL status
  */
HAL_StatusTypeDef USB_EP0_OutStart(const USB_OTG_GlobalTypeDef *USBx, uint8_t dma, const uint8_t *psetup)
{
 80069f4:	b480      	push	{r7}
 80069f6:	b087      	sub	sp, #28
 80069f8:	af00      	add	r7, sp, #0
 80069fa:	60f8      	str	r0, [r7, #12]
 80069fc:	460b      	mov	r3, r1
 80069fe:	607a      	str	r2, [r7, #4]
 8006a00:	72fb      	strb	r3, [r7, #11]
  uint32_t USBx_BASE = (uint32_t)USBx;
 8006a02:	68fb      	ldr	r3, [r7, #12]
 8006a04:	617b      	str	r3, [r7, #20]
  uint32_t gSNPSiD = *(__IO const uint32_t *)(&USBx->CID + 0x1U);
 8006a06:	68fb      	ldr	r3, [r7, #12]
 8006a08:	333c      	adds	r3, #60	@ 0x3c
 8006a0a:	3304      	adds	r3, #4
 8006a0c:	681b      	ldr	r3, [r3, #0]
 8006a0e:	613b      	str	r3, [r7, #16]

  if (gSNPSiD > USB_OTG_CORE_ID_300A)
 8006a10:	693b      	ldr	r3, [r7, #16]
 8006a12:	4a26      	ldr	r2, [pc, #152]	@ (8006aac <USB_EP0_OutStart+0xb8>)
 8006a14:	4293      	cmp	r3, r2
 8006a16:	d90a      	bls.n	8006a2e <USB_EP0_OutStart+0x3a>
  {
    if ((USBx_OUTEP(0U)->DOEPCTL & USB_OTG_DOEPCTL_EPENA) == USB_OTG_DOEPCTL_EPENA)
 8006a18:	697b      	ldr	r3, [r7, #20]
 8006a1a:	f503 6330 	add.w	r3, r3, #2816	@ 0xb00
 8006a1e:	681b      	ldr	r3, [r3, #0]
 8006a20:	f003 4300 	and.w	r3, r3, #2147483648	@ 0x80000000
 8006a24:	f1b3 4f00 	cmp.w	r3, #2147483648	@ 0x80000000
 8006a28:	d101      	bne.n	8006a2e <USB_EP0_OutStart+0x3a>
    {
      return HAL_OK;
 8006a2a:	2300      	movs	r3, #0
 8006a2c:	e037      	b.n	8006a9e <USB_EP0_OutStart+0xaa>
    }
  }

  USBx_OUTEP(0U)->DOEPTSIZ = 0U;
 8006a2e:	697b      	ldr	r3, [r7, #20]
 8006a30:	f503 6330 	add.w	r3, r3, #2816	@ 0xb00
 8006a34:	461a      	mov	r2, r3
 8006a36:	2300      	movs	r3, #0
 8006a38:	6113      	str	r3, [r2, #16]
  USBx_OUTEP(0U)->DOEPTSIZ |= (USB_OTG_DOEPTSIZ_PKTCNT & (1U << 19));
 8006a3a:	697b      	ldr	r3, [r7, #20]
 8006a3c:	f503 6330 	add.w	r3, r3, #2816	@ 0xb00
 8006a40:	691b      	ldr	r3, [r3, #16]
 8006a42:	697a      	ldr	r2, [r7, #20]
 8006a44:	f502 6230 	add.w	r2, r2, #2816	@ 0xb00
 8006a48:	f443 2300 	orr.w	r3, r3, #524288	@ 0x80000
 8006a4c:	6113      	str	r3, [r2, #16]
  USBx_OUTEP(0U)->DOEPTSIZ |= (3U * 8U);
 8006a4e:	697b      	ldr	r3, [r7, #20]
 8006a50:	f503 6330 	add.w	r3, r3, #2816	@ 0xb00
 8006a54:	691b      	ldr	r3, [r3, #16]
 8006a56:	697a      	ldr	r2, [r7, #20]
 8006a58:	f502 6230 	add.w	r2, r2, #2816	@ 0xb00
 8006a5c:	f043 0318 	orr.w	r3, r3, #24
 8006a60:	6113      	str	r3, [r2, #16]
  USBx_OUTEP(0U)->DOEPTSIZ |=  USB_OTG_DOEPTSIZ_STUPCNT;
 8006a62:	697b      	ldr	r3, [r7, #20]
 8006a64:	f503 6330 	add.w	r3, r3, #2816	@ 0xb00
 8006a68:	691b      	ldr	r3, [r3, #16]
 8006a6a:	697a      	ldr	r2, [r7, #20]
 8006a6c:	f502 6230 	add.w	r2, r2, #2816	@ 0xb00
 8006a70:	f043 43c0 	orr.w	r3, r3, #1610612736	@ 0x60000000
 8006a74:	6113      	str	r3, [r2, #16]

  if (dma == 1U)
 8006a76:	7afb      	ldrb	r3, [r7, #11]
 8006a78:	2b01      	cmp	r3, #1
 8006a7a:	d10f      	bne.n	8006a9c <USB_EP0_OutStart+0xa8>
  {
    USBx_OUTEP(0U)->DOEPDMA = (uint32_t)psetup;
 8006a7c:	697b      	ldr	r3, [r7, #20]
 8006a7e:	f503 6330 	add.w	r3, r3, #2816	@ 0xb00
 8006a82:	461a      	mov	r2, r3
 8006a84:	687b      	ldr	r3, [r7, #4]
 8006a86:	6153      	str	r3, [r2, #20]
    /* EP enable */
    USBx_OUTEP(0U)->DOEPCTL |= USB_OTG_DOEPCTL_EPENA | USB_OTG_DOEPCTL_USBAEP;
 8006a88:	697b      	ldr	r3, [r7, #20]
 8006a8a:	f503 6330 	add.w	r3, r3, #2816	@ 0xb00
 8006a8e:	681b      	ldr	r3, [r3, #0]
 8006a90:	697a      	ldr	r2, [r7, #20]
 8006a92:	f502 6230 	add.w	r2, r2, #2816	@ 0xb00
 8006a96:	f043 2380 	orr.w	r3, r3, #2147516416	@ 0x80008000
 8006a9a:	6013      	str	r3, [r2, #0]
  }

  return HAL_OK;
 8006a9c:	2300      	movs	r3, #0
}
 8006a9e:	4618      	mov	r0, r3
 8006aa0:	371c      	adds	r7, #28
 8006aa2:	46bd      	mov	sp, r7
 8006aa4:	f85d 7b04 	ldr.w	r7, [sp], #4
 8006aa8:	4770      	bx	lr
 8006aaa:	bf00      	nop
 8006aac:	4f54300a 	.word	0x4f54300a

08006ab0 <USB_CoreReset>:
  * @brief  Reset the USB Core (needed after USB clock settings change)
  * @param  USBx  Selected device
  * @retval HAL status
  */
static HAL_StatusTypeDef USB_CoreReset(USB_OTG_GlobalTypeDef *USBx)
{
 8006ab0:	b480      	push	{r7}
 8006ab2:	b085      	sub	sp, #20
 8006ab4:	af00      	add	r7, sp, #0
 8006ab6:	6078      	str	r0, [r7, #4]
  __IO uint32_t count = 0U;
 8006ab8:	2300      	movs	r3, #0
 8006aba:	60fb      	str	r3, [r7, #12]

  /* Wait for AHB master IDLE state. */
  do
  {
    count++;
 8006abc:	68fb      	ldr	r3, [r7, #12]
 8006abe:	3301      	adds	r3, #1
 8006ac0:	60fb      	str	r3, [r7, #12]

    if (count > HAL_USB_TIMEOUT)
 8006ac2:	68fb      	ldr	r3, [r7, #12]
 8006ac4:	f1b3 6f70 	cmp.w	r3, #251658240	@ 0xf000000
 8006ac8:	d901      	bls.n	8006ace <USB_CoreReset+0x1e>
    {
      return HAL_TIMEOUT;
 8006aca:	2303      	movs	r3, #3
 8006acc:	e022      	b.n	8006b14 <USB_CoreReset+0x64>
    }
  } while ((USBx->GRSTCTL & USB_OTG_GRSTCTL_AHBIDL) == 0U);
 8006ace:	687b      	ldr	r3, [r7, #4]
 8006ad0:	691b      	ldr	r3, [r3, #16]
 8006ad2:	2b00      	cmp	r3, #0
 8006ad4:	daf2      	bge.n	8006abc <USB_CoreReset+0xc>

  count = 10U;
 8006ad6:	230a      	movs	r3, #10
 8006ad8:	60fb      	str	r3, [r7, #12]

  /* few cycles before setting core reset */
  while (count > 0U)
 8006ada:	e002      	b.n	8006ae2 <USB_CoreReset+0x32>
  {
    count--;
 8006adc:	68fb      	ldr	r3, [r7, #12]
 8006ade:	3b01      	subs	r3, #1
 8006ae0:	60fb      	str	r3, [r7, #12]
  while (count > 0U)
 8006ae2:	68fb      	ldr	r3, [r7, #12]
 8006ae4:	2b00      	cmp	r3, #0
 8006ae6:	d1f9      	bne.n	8006adc <USB_CoreReset+0x2c>
  }

  /* Core Soft Reset */
  USBx->GRSTCTL |= USB_OTG_GRSTCTL_CSRST;
 8006ae8:	687b      	ldr	r3, [r7, #4]
 8006aea:	691b      	ldr	r3, [r3, #16]
 8006aec:	f043 0201 	orr.w	r2, r3, #1
 8006af0:	687b      	ldr	r3, [r7, #4]
 8006af2:	611a      	str	r2, [r3, #16]

  do
  {
    count++;
 8006af4:	68fb      	ldr	r3, [r7, #12]
 8006af6:	3301      	adds	r3, #1
 8006af8:	60fb      	str	r3, [r7, #12]

    if (count > HAL_USB_TIMEOUT)
 8006afa:	68fb      	ldr	r3, [r7, #12]
 8006afc:	f1b3 6f70 	cmp.w	r3, #251658240	@ 0xf000000
 8006b00:	d901      	bls.n	8006b06 <USB_CoreReset+0x56>
    {
      return HAL_TIMEOUT;
 8006b02:	2303      	movs	r3, #3
 8006b04:	e006      	b.n	8006b14 <USB_CoreReset+0x64>
    }
  } while ((USBx->GRSTCTL & USB_OTG_GRSTCTL_CSRST) == USB_OTG_GRSTCTL_CSRST);
 8006b06:	687b      	ldr	r3, [r7, #4]
 8006b08:	691b      	ldr	r3, [r3, #16]
 8006b0a:	f003 0301 	and.w	r3, r3, #1
 8006b0e:	2b01      	cmp	r3, #1
 8006b10:	d0f0      	beq.n	8006af4 <USB_CoreReset+0x44>

  return HAL_OK;
 8006b12:	2300      	movs	r3, #0
}
 8006b14:	4618      	mov	r0, r3
 8006b16:	3714      	adds	r7, #20
 8006b18:	46bd      	mov	sp, r7
 8006b1a:	f85d 7b04 	ldr.w	r7, [sp], #4
 8006b1e:	4770      	bx	lr

08006b20 <MX_FATFS_Init>:
/* USER CODE BEGIN Variables */

/* USER CODE END Variables */

void MX_FATFS_Init(void)
{
 8006b20:	b580      	push	{r7, lr}
 8006b22:	af00      	add	r7, sp, #0
  /*## FatFS: Link the USER driver ###########################*/
  retUSER = FATFS_LinkDriver(&USER_Driver, USERPath);
 8006b24:	4904      	ldr	r1, [pc, #16]	@ (8006b38 <MX_FATFS_Init+0x18>)
 8006b26:	4805      	ldr	r0, [pc, #20]	@ (8006b3c <MX_FATFS_Init+0x1c>)
 8006b28:	f002 f8a0 	bl	8008c6c <FATFS_LinkDriver>
 8006b2c:	4603      	mov	r3, r0
 8006b2e:	461a      	mov	r2, r3
 8006b30:	4b03      	ldr	r3, [pc, #12]	@ (8006b40 <MX_FATFS_Init+0x20>)
 8006b32:	701a      	strb	r2, [r3, #0]

  /* USER CODE BEGIN Init */
  /* additional user code for init */
  /* USER CODE END Init */
}
 8006b34:	bf00      	nop
 8006b36:	bd80      	pop	{r7, pc}
 8006b38:	20000ad8 	.word	0x20000ad8
 8006b3c:	2000000c 	.word	0x2000000c
 8006b40:	20000ad4 	.word	0x20000ad4

08006b44 <USER_initialize>:
  * @retval DSTATUS: Operation status
  */
DSTATUS USER_initialize (
	BYTE pdrv           /* Physical drive nmuber to identify the drive */
)
{
 8006b44:	b480      	push	{r7}
 8006b46:	b083      	sub	sp, #12
 8006b48:	af00      	add	r7, sp, #0
 8006b4a:	4603      	mov	r3, r0
 8006b4c:	71fb      	strb	r3, [r7, #7]
  /* USER CODE BEGIN INIT */
    Stat = STA_NOINIT;
 8006b4e:	4b06      	ldr	r3, [pc, #24]	@ (8006b68 <USER_initialize+0x24>)
 8006b50:	2201      	movs	r2, #1
 8006b52:	701a      	strb	r2, [r3, #0]
    return Stat;
 8006b54:	4b04      	ldr	r3, [pc, #16]	@ (8006b68 <USER_initialize+0x24>)
 8006b56:	781b      	ldrb	r3, [r3, #0]
 8006b58:	b2db      	uxtb	r3, r3
  /* USER CODE END INIT */
}
 8006b5a:	4618      	mov	r0, r3
 8006b5c:	370c      	adds	r7, #12
 8006b5e:	46bd      	mov	sp, r7
 8006b60:	f85d 7b04 	ldr.w	r7, [sp], #4
 8006b64:	4770      	bx	lr
 8006b66:	bf00      	nop
 8006b68:	20000009 	.word	0x20000009

08006b6c <USER_status>:
  * @retval DSTATUS: Operation status
  */
DSTATUS USER_status (
	BYTE pdrv       /* Physical drive number to identify the drive */
)
{
 8006b6c:	b480      	push	{r7}
 8006b6e:	b083      	sub	sp, #12
 8006b70:	af00      	add	r7, sp, #0
 8006b72:	4603      	mov	r3, r0
 8006b74:	71fb      	strb	r3, [r7, #7]
  /* USER CODE BEGIN STATUS */
    Stat = STA_NOINIT;
 8006b76:	4b06      	ldr	r3, [pc, #24]	@ (8006b90 <USER_status+0x24>)
 8006b78:	2201      	movs	r2, #1
 8006b7a:	701a      	strb	r2, [r3, #0]
    return Stat;
 8006b7c:	4b04      	ldr	r3, [pc, #16]	@ (8006b90 <USER_status+0x24>)
 8006b7e:	781b      	ldrb	r3, [r3, #0]
 8006b80:	b2db      	uxtb	r3, r3
  /* USER CODE END STATUS */
}
 8006b82:	4618      	mov	r0, r3
 8006b84:	370c      	adds	r7, #12
 8006b86:	46bd      	mov	sp, r7
 8006b88:	f85d 7b04 	ldr.w	r7, [sp], #4
 8006b8c:	4770      	bx	lr
 8006b8e:	bf00      	nop
 8006b90:	20000009 	.word	0x20000009

08006b94 <USER_read>:
	BYTE pdrv,      /* Physical drive nmuber to identify the drive */
	BYTE *buff,     /* Data buffer to store read data */
	DWORD sector,   /* Sector address in LBA */
	UINT count      /* Number of sectors to read */
)
{
 8006b94:	b480      	push	{r7}
 8006b96:	b085      	sub	sp, #20
 8006b98:	af00      	add	r7, sp, #0
 8006b9a:	60b9      	str	r1, [r7, #8]
 8006b9c:	607a      	str	r2, [r7, #4]
 8006b9e:	603b      	str	r3, [r7, #0]
 8006ba0:	4603      	mov	r3, r0
 8006ba2:	73fb      	strb	r3, [r7, #15]
  /* USER CODE BEGIN READ */
    return RES_OK;
 8006ba4:	2300      	movs	r3, #0
  /* USER CODE END READ */
}
 8006ba6:	4618      	mov	r0, r3
 8006ba8:	3714      	adds	r7, #20
 8006baa:	46bd      	mov	sp, r7
 8006bac:	f85d 7b04 	ldr.w	r7, [sp], #4
 8006bb0:	4770      	bx	lr

08006bb2 <USER_write>:
	BYTE pdrv,          /* Physical drive nmuber to identify the drive */
	const BYTE *buff,   /* Data to be written */
	DWORD sector,       /* Sector address in LBA */
	UINT count          /* Number of sectors to write */
)
{
 8006bb2:	b480      	push	{r7}
 8006bb4:	b085      	sub	sp, #20
 8006bb6:	af00      	add	r7, sp, #0
 8006bb8:	60b9      	str	r1, [r7, #8]
 8006bba:	607a      	str	r2, [r7, #4]
 8006bbc:	603b      	str	r3, [r7, #0]
 8006bbe:	4603      	mov	r3, r0
 8006bc0:	73fb      	strb	r3, [r7, #15]
  /* USER CODE BEGIN WRITE */
  /* USER CODE HERE */
    return RES_OK;
 8006bc2:	2300      	movs	r3, #0
  /* USER CODE END WRITE */
}
 8006bc4:	4618      	mov	r0, r3
 8006bc6:	3714      	adds	r7, #20
 8006bc8:	46bd      	mov	sp, r7
 8006bca:	f85d 7b04 	ldr.w	r7, [sp], #4
 8006bce:	4770      	bx	lr

08006bd0 <USER_ioctl>:
DRESULT USER_ioctl (
	BYTE pdrv,      /* Physical drive nmuber (0..) */
	BYTE cmd,       /* Control code */
	void *buff      /* Buffer to send/receive control data */
)
{
 8006bd0:	b480      	push	{r7}
 8006bd2:	b085      	sub	sp, #20
 8006bd4:	af00      	add	r7, sp, #0
 8006bd6:	4603      	mov	r3, r0
 8006bd8:	603a      	str	r2, [r7, #0]
 8006bda:	71fb      	strb	r3, [r7, #7]
 8006bdc:	460b      	mov	r3, r1
 8006bde:	71bb      	strb	r3, [r7, #6]
  /* USER CODE BEGIN IOCTL */
    DRESULT res = RES_ERROR;
 8006be0:	2301      	movs	r3, #1
 8006be2:	73fb      	strb	r3, [r7, #15]
    return res;
 8006be4:	7bfb      	ldrb	r3, [r7, #15]
  /* USER CODE END IOCTL */
}
 8006be6:	4618      	mov	r0, r3
 8006be8:	3714      	adds	r7, #20
 8006bea:	46bd      	mov	sp, r7
 8006bec:	f85d 7b04 	ldr.w	r7, [sp], #4
 8006bf0:	4770      	bx	lr
	...

08006bf4 <USBD_CDC_Init>:
  * @param  pdev: device instance
  * @param  cfgidx: Configuration index
  * @retval status
  */
static uint8_t USBD_CDC_Init(USBD_HandleTypeDef *pdev, uint8_t cfgidx)
{
 8006bf4:	b580      	push	{r7, lr}
 8006bf6:	b084      	sub	sp, #16
 8006bf8:	af00      	add	r7, sp, #0
 8006bfa:	6078      	str	r0, [r7, #4]
 8006bfc:	460b      	mov	r3, r1
 8006bfe:	70fb      	strb	r3, [r7, #3]
  UNUSED(cfgidx);
  USBD_CDC_HandleTypeDef *hcdc;

  hcdc = (USBD_CDC_HandleTypeDef *)USBD_malloc(sizeof(USBD_CDC_HandleTypeDef));
 8006c00:	f44f 7007 	mov.w	r0, #540	@ 0x21c
 8006c04:	f002 fd1c 	bl	8009640 <USBD_static_malloc>
 8006c08:	60f8      	str	r0, [r7, #12]

  if (hcdc == NULL)
 8006c0a:	68fb      	ldr	r3, [r7, #12]
 8006c0c:	2b00      	cmp	r3, #0
 8006c0e:	d109      	bne.n	8006c24 <USBD_CDC_Init+0x30>
  {
    pdev->pClassDataCmsit[pdev->classId] = NULL;
 8006c10:	687b      	ldr	r3, [r7, #4]
 8006c12:	f8d3 22d4 	ldr.w	r2, [r3, #724]	@ 0x2d4
 8006c16:	687b      	ldr	r3, [r7, #4]
 8006c18:	32b0      	adds	r2, #176	@ 0xb0
 8006c1a:	2100      	movs	r1, #0
 8006c1c:	f843 1022 	str.w	r1, [r3, r2, lsl #2]
    return (uint8_t)USBD_EMEM;
 8006c20:	2302      	movs	r3, #2
 8006c22:	e0d4      	b.n	8006dce <USBD_CDC_Init+0x1da>
  }

  (void)USBD_memset(hcdc, 0, sizeof(USBD_CDC_HandleTypeDef));
 8006c24:	f44f 7207 	mov.w	r2, #540	@ 0x21c
 8006c28:	2100      	movs	r1, #0
 8006c2a:	68f8      	ldr	r0, [r7, #12]
 8006c2c:	f002 fd4c 	bl	80096c8 <memset>

  pdev->pClassDataCmsit[pdev->classId] = (void *)hcdc;
 8006c30:	687b      	ldr	r3, [r7, #4]
 8006c32:	f8d3 22d4 	ldr.w	r2, [r3, #724]	@ 0x2d4
 8006c36:	687b      	ldr	r3, [r7, #4]
 8006c38:	32b0      	adds	r2, #176	@ 0xb0
 8006c3a:	68f9      	ldr	r1, [r7, #12]
 8006c3c:	f843 1022 	str.w	r1, [r3, r2, lsl #2]
  pdev->pClassData = pdev->pClassDataCmsit[pdev->classId];
 8006c40:	687b      	ldr	r3, [r7, #4]
 8006c42:	f8d3 22d4 	ldr.w	r2, [r3, #724]	@ 0x2d4
 8006c46:	687b      	ldr	r3, [r7, #4]
 8006c48:	32b0      	adds	r2, #176	@ 0xb0
 8006c4a:	f853 2022 	ldr.w	r2, [r3, r2, lsl #2]
 8006c4e:	687b      	ldr	r3, [r7, #4]
 8006c50:	f8c3 22bc 	str.w	r2, [r3, #700]	@ 0x2bc
  CDCInEpAdd  = USBD_CoreGetEPAdd(pdev, USBD_EP_IN, USBD_EP_TYPE_BULK, (uint8_t)pdev->classId);
  CDCOutEpAdd = USBD_CoreGetEPAdd(pdev, USBD_EP_OUT, USBD_EP_TYPE_BULK, (uint8_t)pdev->classId);
  CDCCmdEpAdd = USBD_CoreGetEPAdd(pdev, USBD_EP_IN, USBD_EP_TYPE_INTR, (uint8_t)pdev->classId);
#endif /* USE_USBD_COMPOSITE */

  if (pdev->dev_speed == USBD_SPEED_HIGH)
 8006c54:	687b      	ldr	r3, [r7, #4]
 8006c56:	7c1b      	ldrb	r3, [r3, #16]
 8006c58:	2b00      	cmp	r3, #0
 8006c5a:	d138      	bne.n	8006cce <USBD_CDC_Init+0xda>
  {
    /* Open EP IN */
    (void)USBD_LL_OpenEP(pdev, CDCInEpAdd, USBD_EP_TYPE_BULK,
 8006c5c:	4b5e      	ldr	r3, [pc, #376]	@ (8006dd8 <USBD_CDC_Init+0x1e4>)
 8006c5e:	7819      	ldrb	r1, [r3, #0]
 8006c60:	f44f 7300 	mov.w	r3, #512	@ 0x200
 8006c64:	2202      	movs	r2, #2
 8006c66:	6878      	ldr	r0, [r7, #4]
 8006c68:	f002 fbc7 	bl	80093fa <USBD_LL_OpenEP>
                         CDC_DATA_HS_IN_PACKET_SIZE);

    pdev->ep_in[CDCInEpAdd & 0xFU].is_used = 1U;
 8006c6c:	4b5a      	ldr	r3, [pc, #360]	@ (8006dd8 <USBD_CDC_Init+0x1e4>)
 8006c6e:	781b      	ldrb	r3, [r3, #0]
 8006c70:	f003 020f 	and.w	r2, r3, #15
 8006c74:	6879      	ldr	r1, [r7, #4]
 8006c76:	4613      	mov	r3, r2
 8006c78:	009b      	lsls	r3, r3, #2
 8006c7a:	4413      	add	r3, r2
 8006c7c:	009b      	lsls	r3, r3, #2
 8006c7e:	440b      	add	r3, r1
 8006c80:	3323      	adds	r3, #35	@ 0x23
 8006c82:	2201      	movs	r2, #1
 8006c84:	701a      	strb	r2, [r3, #0]

    /* Open EP OUT */
    (void)USBD_LL_OpenEP(pdev, CDCOutEpAdd, USBD_EP_TYPE_BULK,
 8006c86:	4b55      	ldr	r3, [pc, #340]	@ (8006ddc <USBD_CDC_Init+0x1e8>)
 8006c88:	7819      	ldrb	r1, [r3, #0]
 8006c8a:	f44f 7300 	mov.w	r3, #512	@ 0x200
 8006c8e:	2202      	movs	r2, #2
 8006c90:	6878      	ldr	r0, [r7, #4]
 8006c92:	f002 fbb2 	bl	80093fa <USBD_LL_OpenEP>
                         CDC_DATA_HS_OUT_PACKET_SIZE);

    pdev->ep_out[CDCOutEpAdd & 0xFU].is_used = 1U;
 8006c96:	4b51      	ldr	r3, [pc, #324]	@ (8006ddc <USBD_CDC_Init+0x1e8>)
 8006c98:	781b      	ldrb	r3, [r3, #0]
 8006c9a:	f003 020f 	and.w	r2, r3, #15
 8006c9e:	6879      	ldr	r1, [r7, #4]
 8006ca0:	4613      	mov	r3, r2
 8006ca2:	009b      	lsls	r3, r3, #2
 8006ca4:	4413      	add	r3, r2
 8006ca6:	009b      	lsls	r3, r3, #2
 8006ca8:	440b      	add	r3, r1
 8006caa:	f203 1363 	addw	r3, r3, #355	@ 0x163
 8006cae:	2201      	movs	r2, #1
 8006cb0:	701a      	strb	r2, [r3, #0]

    /* Set bInterval for CDC CMD Endpoint */
    pdev->ep_in[CDCCmdEpAdd & 0xFU].bInterval = CDC_HS_BINTERVAL;
 8006cb2:	4b4b      	ldr	r3, [pc, #300]	@ (8006de0 <USBD_CDC_Init+0x1ec>)
 8006cb4:	781b      	ldrb	r3, [r3, #0]
 8006cb6:	f003 020f 	and.w	r2, r3, #15
 8006cba:	6879      	ldr	r1, [r7, #4]
 8006cbc:	4613      	mov	r3, r2
 8006cbe:	009b      	lsls	r3, r3, #2
 8006cc0:	4413      	add	r3, r2
 8006cc2:	009b      	lsls	r3, r3, #2
 8006cc4:	440b      	add	r3, r1
 8006cc6:	331c      	adds	r3, #28
 8006cc8:	2210      	movs	r2, #16
 8006cca:	601a      	str	r2, [r3, #0]
 8006ccc:	e035      	b.n	8006d3a <USBD_CDC_Init+0x146>
  }
  else
  {
    /* Open EP IN */
    (void)USBD_LL_OpenEP(pdev, CDCInEpAdd, USBD_EP_TYPE_BULK,
 8006cce:	4b42      	ldr	r3, [pc, #264]	@ (8006dd8 <USBD_CDC_Init+0x1e4>)
 8006cd0:	7819      	ldrb	r1, [r3, #0]
 8006cd2:	2340      	movs	r3, #64	@ 0x40
 8006cd4:	2202      	movs	r2, #2
 8006cd6:	6878      	ldr	r0, [r7, #4]
 8006cd8:	f002 fb8f 	bl	80093fa <USBD_LL_OpenEP>
                         CDC_DATA_FS_IN_PACKET_SIZE);

    pdev->ep_in[CDCInEpAdd & 0xFU].is_used = 1U;
 8006cdc:	4b3e      	ldr	r3, [pc, #248]	@ (8006dd8 <USBD_CDC_Init+0x1e4>)
 8006cde:	781b      	ldrb	r3, [r3, #0]
 8006ce0:	f003 020f 	and.w	r2, r3, #15
 8006ce4:	6879      	ldr	r1, [r7, #4]
 8006ce6:	4613      	mov	r3, r2
 8006ce8:	009b      	lsls	r3, r3, #2
 8006cea:	4413      	add	r3, r2
 8006cec:	009b      	lsls	r3, r3, #2
 8006cee:	440b      	add	r3, r1
 8006cf0:	3323      	adds	r3, #35	@ 0x23
 8006cf2:	2201      	movs	r2, #1
 8006cf4:	701a      	strb	r2, [r3, #0]

    /* Open EP OUT */
    (void)USBD_LL_OpenEP(pdev, CDCOutEpAdd, USBD_EP_TYPE_BULK,
 8006cf6:	4b39      	ldr	r3, [pc, #228]	@ (8006ddc <USBD_CDC_Init+0x1e8>)
 8006cf8:	7819      	ldrb	r1, [r3, #0]
 8006cfa:	2340      	movs	r3, #64	@ 0x40
 8006cfc:	2202      	movs	r2, #2
 8006cfe:	6878      	ldr	r0, [r7, #4]
 8006d00:	f002 fb7b 	bl	80093fa <USBD_LL_OpenEP>
                         CDC_DATA_FS_OUT_PACKET_SIZE);

    pdev->ep_out[CDCOutEpAdd & 0xFU].is_used = 1U;
 8006d04:	4b35      	ldr	r3, [pc, #212]	@ (8006ddc <USBD_CDC_Init+0x1e8>)
 8006d06:	781b      	ldrb	r3, [r3, #0]
 8006d08:	f003 020f 	and.w	r2, r3, #15
 8006d0c:	6879      	ldr	r1, [r7, #4]
 8006d0e:	4613      	mov	r3, r2
 8006d10:	009b      	lsls	r3, r3, #2
 8006d12:	4413      	add	r3, r2
 8006d14:	009b      	lsls	r3, r3, #2
 8006d16:	440b      	add	r3, r1
 8006d18:	f203 1363 	addw	r3, r3, #355	@ 0x163
 8006d1c:	2201      	movs	r2, #1
 8006d1e:	701a      	strb	r2, [r3, #0]

    /* Set bInterval for CMD Endpoint */
    pdev->ep_in[CDCCmdEpAdd & 0xFU].bInterval = CDC_FS_BINTERVAL;
 8006d20:	4b2f      	ldr	r3, [pc, #188]	@ (8006de0 <USBD_CDC_Init+0x1ec>)
 8006d22:	781b      	ldrb	r3, [r3, #0]
 8006d24:	f003 020f 	and.w	r2, r3, #15
 8006d28:	6879      	ldr	r1, [r7, #4]
 8006d2a:	4613      	mov	r3, r2
 8006d2c:	009b      	lsls	r3, r3, #2
 8006d2e:	4413      	add	r3, r2
 8006d30:	009b      	lsls	r3, r3, #2
 8006d32:	440b      	add	r3, r1
 8006d34:	331c      	adds	r3, #28
 8006d36:	2210      	movs	r2, #16
 8006d38:	601a      	str	r2, [r3, #0]
  }

  /* Open Command IN EP */
  (void)USBD_LL_OpenEP(pdev, CDCCmdEpAdd, USBD_EP_TYPE_INTR, CDC_CMD_PACKET_SIZE);
 8006d3a:	4b29      	ldr	r3, [pc, #164]	@ (8006de0 <USBD_CDC_Init+0x1ec>)
 8006d3c:	7819      	ldrb	r1, [r3, #0]
 8006d3e:	2308      	movs	r3, #8
 8006d40:	2203      	movs	r2, #3
 8006d42:	6878      	ldr	r0, [r7, #4]
 8006d44:	f002 fb59 	bl	80093fa <USBD_LL_OpenEP>
  pdev->ep_in[CDCCmdEpAdd & 0xFU].is_used = 1U;
 8006d48:	4b25      	ldr	r3, [pc, #148]	@ (8006de0 <USBD_CDC_Init+0x1ec>)
 8006d4a:	781b      	ldrb	r3, [r3, #0]
 8006d4c:	f003 020f 	and.w	r2, r3, #15
 8006d50:	6879      	ldr	r1, [r7, #4]
 8006d52:	4613      	mov	r3, r2
 8006d54:	009b      	lsls	r3, r3, #2
 8006d56:	4413      	add	r3, r2
 8006d58:	009b      	lsls	r3, r3, #2
 8006d5a:	440b      	add	r3, r1
 8006d5c:	3323      	adds	r3, #35	@ 0x23
 8006d5e:	2201      	movs	r2, #1
 8006d60:	701a      	strb	r2, [r3, #0]

  hcdc->RxBuffer = NULL;
 8006d62:	68fb      	ldr	r3, [r7, #12]
 8006d64:	2200      	movs	r2, #0
 8006d66:	f8c3 2204 	str.w	r2, [r3, #516]	@ 0x204

  /* Init  physical Interface components */
  ((USBD_CDC_ItfTypeDef *)pdev->pUserData[pdev->classId])->Init();
 8006d6a:	687b      	ldr	r3, [r7, #4]
 8006d6c:	f8d3 32d4 	ldr.w	r3, [r3, #724]	@ 0x2d4
 8006d70:	687a      	ldr	r2, [r7, #4]
 8006d72:	33b0      	adds	r3, #176	@ 0xb0
 8006d74:	009b      	lsls	r3, r3, #2
 8006d76:	4413      	add	r3, r2
 8006d78:	685b      	ldr	r3, [r3, #4]
 8006d7a:	681b      	ldr	r3, [r3, #0]
 8006d7c:	4798      	blx	r3

  /* Init Xfer states */
  hcdc->TxState = 0U;
 8006d7e:	68fb      	ldr	r3, [r7, #12]
 8006d80:	2200      	movs	r2, #0
 8006d82:	f8c3 2214 	str.w	r2, [r3, #532]	@ 0x214
  hcdc->RxState = 0U;
 8006d86:	68fb      	ldr	r3, [r7, #12]
 8006d88:	2200      	movs	r2, #0
 8006d8a:	f8c3 2218 	str.w	r2, [r3, #536]	@ 0x218

  if (hcdc->RxBuffer == NULL)
 8006d8e:	68fb      	ldr	r3, [r7, #12]
 8006d90:	f8d3 3204 	ldr.w	r3, [r3, #516]	@ 0x204
 8006d94:	2b00      	cmp	r3, #0
 8006d96:	d101      	bne.n	8006d9c <USBD_CDC_Init+0x1a8>
  {
    return (uint8_t)USBD_EMEM;
 8006d98:	2302      	movs	r3, #2
 8006d9a:	e018      	b.n	8006dce <USBD_CDC_Init+0x1da>
  }

  if (pdev->dev_speed == USBD_SPEED_HIGH)
 8006d9c:	687b      	ldr	r3, [r7, #4]
 8006d9e:	7c1b      	ldrb	r3, [r3, #16]
 8006da0:	2b00      	cmp	r3, #0
 8006da2:	d10a      	bne.n	8006dba <USBD_CDC_Init+0x1c6>
  {
    /* Prepare Out endpoint to receive next packet */
    (void)USBD_LL_PrepareReceive(pdev, CDCOutEpAdd, hcdc->RxBuffer,
 8006da4:	4b0d      	ldr	r3, [pc, #52]	@ (8006ddc <USBD_CDC_Init+0x1e8>)
 8006da6:	7819      	ldrb	r1, [r3, #0]
 8006da8:	68fb      	ldr	r3, [r7, #12]
 8006daa:	f8d3 2204 	ldr.w	r2, [r3, #516]	@ 0x204
 8006dae:	f44f 7300 	mov.w	r3, #512	@ 0x200
 8006db2:	6878      	ldr	r0, [r7, #4]
 8006db4:	f002 fc10 	bl	80095d8 <USBD_LL_PrepareReceive>
 8006db8:	e008      	b.n	8006dcc <USBD_CDC_Init+0x1d8>
                                 CDC_DATA_HS_OUT_PACKET_SIZE);
  }
  else
  {
    /* Prepare Out endpoint to receive next packet */
    (void)USBD_LL_PrepareReceive(pdev, CDCOutEpAdd, hcdc->RxBuffer,
 8006dba:	4b08      	ldr	r3, [pc, #32]	@ (8006ddc <USBD_CDC_Init+0x1e8>)
 8006dbc:	7819      	ldrb	r1, [r3, #0]
 8006dbe:	68fb      	ldr	r3, [r7, #12]
 8006dc0:	f8d3 2204 	ldr.w	r2, [r3, #516]	@ 0x204
 8006dc4:	2340      	movs	r3, #64	@ 0x40
 8006dc6:	6878      	ldr	r0, [r7, #4]
 8006dc8:	f002 fc06 	bl	80095d8 <USBD_LL_PrepareReceive>
                                 CDC_DATA_FS_OUT_PACKET_SIZE);
  }

  return (uint8_t)USBD_OK;
 8006dcc:	2300      	movs	r3, #0
}
 8006dce:	4618      	mov	r0, r3
 8006dd0:	3710      	adds	r7, #16
 8006dd2:	46bd      	mov	sp, r7
 8006dd4:	bd80      	pop	{r7, pc}
 8006dd6:	bf00      	nop
 8006dd8:	200000a7 	.word	0x200000a7
 8006ddc:	200000a8 	.word	0x200000a8
 8006de0:	200000a9 	.word	0x200000a9

08006de4 <USBD_CDC_DeInit>:
  * @param  pdev: device instance
  * @param  cfgidx: Configuration index
  * @retval status
  */
static uint8_t USBD_CDC_DeInit(USBD_HandleTypeDef *pdev, uint8_t cfgidx)
{
 8006de4:	b580      	push	{r7, lr}
 8006de6:	b082      	sub	sp, #8
 8006de8:	af00      	add	r7, sp, #0
 8006dea:	6078      	str	r0, [r7, #4]
 8006dec:	460b      	mov	r3, r1
 8006dee:	70fb      	strb	r3, [r7, #3]
  CDCOutEpAdd = USBD_CoreGetEPAdd(pdev, USBD_EP_OUT, USBD_EP_TYPE_BULK, (uint8_t)pdev->classId);
  CDCCmdEpAdd = USBD_CoreGetEPAdd(pdev, USBD_EP_IN, USBD_EP_TYPE_INTR, (uint8_t)pdev->classId);
#endif /* USE_USBD_COMPOSITE */

  /* Close EP IN */
  (void)USBD_LL_CloseEP(pdev, CDCInEpAdd);
 8006df0:	4b3a      	ldr	r3, [pc, #232]	@ (8006edc <USBD_CDC_DeInit+0xf8>)
 8006df2:	781b      	ldrb	r3, [r3, #0]
 8006df4:	4619      	mov	r1, r3
 8006df6:	6878      	ldr	r0, [r7, #4]
 8006df8:	f002 fb25 	bl	8009446 <USBD_LL_CloseEP>
  pdev->ep_in[CDCInEpAdd & 0xFU].is_used = 0U;
 8006dfc:	4b37      	ldr	r3, [pc, #220]	@ (8006edc <USBD_CDC_DeInit+0xf8>)
 8006dfe:	781b      	ldrb	r3, [r3, #0]
 8006e00:	f003 020f 	and.w	r2, r3, #15
 8006e04:	6879      	ldr	r1, [r7, #4]
 8006e06:	4613      	mov	r3, r2
 8006e08:	009b      	lsls	r3, r3, #2
 8006e0a:	4413      	add	r3, r2
 8006e0c:	009b      	lsls	r3, r3, #2
 8006e0e:	440b      	add	r3, r1
 8006e10:	3323      	adds	r3, #35	@ 0x23
 8006e12:	2200      	movs	r2, #0
 8006e14:	701a      	strb	r2, [r3, #0]

  /* Close EP OUT */
  (void)USBD_LL_CloseEP(pdev, CDCOutEpAdd);
 8006e16:	4b32      	ldr	r3, [pc, #200]	@ (8006ee0 <USBD_CDC_DeInit+0xfc>)
 8006e18:	781b      	ldrb	r3, [r3, #0]
 8006e1a:	4619      	mov	r1, r3
 8006e1c:	6878      	ldr	r0, [r7, #4]
 8006e1e:	f002 fb12 	bl	8009446 <USBD_LL_CloseEP>
  pdev->ep_out[CDCOutEpAdd & 0xFU].is_used = 0U;
 8006e22:	4b2f      	ldr	r3, [pc, #188]	@ (8006ee0 <USBD_CDC_DeInit+0xfc>)
 8006e24:	781b      	ldrb	r3, [r3, #0]
 8006e26:	f003 020f 	and.w	r2, r3, #15
 8006e2a:	6879      	ldr	r1, [r7, #4]
 8006e2c:	4613      	mov	r3, r2
 8006e2e:	009b      	lsls	r3, r3, #2
 8006e30:	4413      	add	r3, r2
 8006e32:	009b      	lsls	r3, r3, #2
 8006e34:	440b      	add	r3, r1
 8006e36:	f203 1363 	addw	r3, r3, #355	@ 0x163
 8006e3a:	2200      	movs	r2, #0
 8006e3c:	701a      	strb	r2, [r3, #0]

  /* Close Command IN EP */
  (void)USBD_LL_CloseEP(pdev, CDCCmdEpAdd);
 8006e3e:	4b29      	ldr	r3, [pc, #164]	@ (8006ee4 <USBD_CDC_DeInit+0x100>)
 8006e40:	781b      	ldrb	r3, [r3, #0]
 8006e42:	4619      	mov	r1, r3
 8006e44:	6878      	ldr	r0, [r7, #4]
 8006e46:	f002 fafe 	bl	8009446 <USBD_LL_CloseEP>
  pdev->ep_in[CDCCmdEpAdd & 0xFU].is_used = 0U;
 8006e4a:	4b26      	ldr	r3, [pc, #152]	@ (8006ee4 <USBD_CDC_DeInit+0x100>)
 8006e4c:	781b      	ldrb	r3, [r3, #0]
 8006e4e:	f003 020f 	and.w	r2, r3, #15
 8006e52:	6879      	ldr	r1, [r7, #4]
 8006e54:	4613      	mov	r3, r2
 8006e56:	009b      	lsls	r3, r3, #2
 8006e58:	4413      	add	r3, r2
 8006e5a:	009b      	lsls	r3, r3, #2
 8006e5c:	440b      	add	r3, r1
 8006e5e:	3323      	adds	r3, #35	@ 0x23
 8006e60:	2200      	movs	r2, #0
 8006e62:	701a      	strb	r2, [r3, #0]
  pdev->ep_in[CDCCmdEpAdd & 0xFU].bInterval = 0U;
 8006e64:	4b1f      	ldr	r3, [pc, #124]	@ (8006ee4 <USBD_CDC_DeInit+0x100>)
 8006e66:	781b      	ldrb	r3, [r3, #0]
 8006e68:	f003 020f 	and.w	r2, r3, #15
 8006e6c:	6879      	ldr	r1, [r7, #4]
 8006e6e:	4613      	mov	r3, r2
 8006e70:	009b      	lsls	r3, r3, #2
 8006e72:	4413      	add	r3, r2
 8006e74:	009b      	lsls	r3, r3, #2
 8006e76:	440b      	add	r3, r1
 8006e78:	331c      	adds	r3, #28
 8006e7a:	2200      	movs	r2, #0
 8006e7c:	601a      	str	r2, [r3, #0]

  /* DeInit  physical Interface components */
  if (pdev->pClassDataCmsit[pdev->classId] != NULL)
 8006e7e:	687b      	ldr	r3, [r7, #4]
 8006e80:	f8d3 22d4 	ldr.w	r2, [r3, #724]	@ 0x2d4
 8006e84:	687b      	ldr	r3, [r7, #4]
 8006e86:	32b0      	adds	r2, #176	@ 0xb0
 8006e88:	f853 3022 	ldr.w	r3, [r3, r2, lsl #2]
 8006e8c:	2b00      	cmp	r3, #0
 8006e8e:	d01f      	beq.n	8006ed0 <USBD_CDC_DeInit+0xec>
  {
    ((USBD_CDC_ItfTypeDef *)pdev->pUserData[pdev->classId])->DeInit();
 8006e90:	687b      	ldr	r3, [r7, #4]
 8006e92:	f8d3 32d4 	ldr.w	r3, [r3, #724]	@ 0x2d4
 8006e96:	687a      	ldr	r2, [r7, #4]
 8006e98:	33b0      	adds	r3, #176	@ 0xb0
 8006e9a:	009b      	lsls	r3, r3, #2
 8006e9c:	4413      	add	r3, r2
 8006e9e:	685b      	ldr	r3, [r3, #4]
 8006ea0:	685b      	ldr	r3, [r3, #4]
 8006ea2:	4798      	blx	r3
    (void)USBD_free(pdev->pClassDataCmsit[pdev->classId]);
 8006ea4:	687b      	ldr	r3, [r7, #4]
 8006ea6:	f8d3 22d4 	ldr.w	r2, [r3, #724]	@ 0x2d4
 8006eaa:	687b      	ldr	r3, [r7, #4]
 8006eac:	32b0      	adds	r2, #176	@ 0xb0
 8006eae:	f853 3022 	ldr.w	r3, [r3, r2, lsl #2]
 8006eb2:	4618      	mov	r0, r3
 8006eb4:	f002 fbd2 	bl	800965c <USBD_static_free>
    pdev->pClassDataCmsit[pdev->classId] = NULL;
 8006eb8:	687b      	ldr	r3, [r7, #4]
 8006eba:	f8d3 22d4 	ldr.w	r2, [r3, #724]	@ 0x2d4
 8006ebe:	687b      	ldr	r3, [r7, #4]
 8006ec0:	32b0      	adds	r2, #176	@ 0xb0
 8006ec2:	2100      	movs	r1, #0
 8006ec4:	f843 1022 	str.w	r1, [r3, r2, lsl #2]
    pdev->pClassData = NULL;
 8006ec8:	687b      	ldr	r3, [r7, #4]
 8006eca:	2200      	movs	r2, #0
 8006ecc:	f8c3 22bc 	str.w	r2, [r3, #700]	@ 0x2bc
  }

  return (uint8_t)USBD_OK;
 8006ed0:	2300      	movs	r3, #0
}
 8006ed2:	4618      	mov	r0, r3
 8006ed4:	3708      	adds	r7, #8
 8006ed6:	46bd      	mov	sp, r7
 8006ed8:	bd80      	pop	{r7, pc}
 8006eda:	bf00      	nop
 8006edc:	200000a7 	.word	0x200000a7
 8006ee0:	200000a8 	.word	0x200000a8
 8006ee4:	200000a9 	.word	0x200000a9

08006ee8 <USBD_CDC_Setup>:
  * @param  req: usb requests
  * @retval status
  */
static uint8_t USBD_CDC_Setup(USBD_HandleTypeDef *pdev,
                              USBD_SetupReqTypedef *req)
{
 8006ee8:	b580      	push	{r7, lr}
 8006eea:	b086      	sub	sp, #24
 8006eec:	af00      	add	r7, sp, #0
 8006eee:	6078      	str	r0, [r7, #4]
 8006ef0:	6039      	str	r1, [r7, #0]
  USBD_CDC_HandleTypeDef *hcdc = (USBD_CDC_HandleTypeDef *)pdev->pClassDataCmsit[pdev->classId];
 8006ef2:	687b      	ldr	r3, [r7, #4]
 8006ef4:	f8d3 22d4 	ldr.w	r2, [r3, #724]	@ 0x2d4
 8006ef8:	687b      	ldr	r3, [r7, #4]
 8006efa:	32b0      	adds	r2, #176	@ 0xb0
 8006efc:	f853 3022 	ldr.w	r3, [r3, r2, lsl #2]
 8006f00:	613b      	str	r3, [r7, #16]
  uint16_t len;
  uint8_t ifalt = 0U;
 8006f02:	2300      	movs	r3, #0
 8006f04:	737b      	strb	r3, [r7, #13]
  uint16_t status_info = 0U;
 8006f06:	2300      	movs	r3, #0
 8006f08:	817b      	strh	r3, [r7, #10]
  USBD_StatusTypeDef ret = USBD_OK;
 8006f0a:	2300      	movs	r3, #0
 8006f0c:	75fb      	strb	r3, [r7, #23]

  if (hcdc == NULL)
 8006f0e:	693b      	ldr	r3, [r7, #16]
 8006f10:	2b00      	cmp	r3, #0
 8006f12:	d101      	bne.n	8006f18 <USBD_CDC_Setup+0x30>
  {
    return (uint8_t)USBD_FAIL;
 8006f14:	2303      	movs	r3, #3
 8006f16:	e0bf      	b.n	8007098 <USBD_CDC_Setup+0x1b0>
  }

  switch (req->bmRequest & USB_REQ_TYPE_MASK)
 8006f18:	683b      	ldr	r3, [r7, #0]
 8006f1a:	781b      	ldrb	r3, [r3, #0]
 8006f1c:	f003 0360 	and.w	r3, r3, #96	@ 0x60
 8006f20:	2b00      	cmp	r3, #0
 8006f22:	d050      	beq.n	8006fc6 <USBD_CDC_Setup+0xde>
 8006f24:	2b20      	cmp	r3, #32
 8006f26:	f040 80af 	bne.w	8007088 <USBD_CDC_Setup+0x1a0>
  {
    case USB_REQ_TYPE_CLASS:
      if (req->wLength != 0U)
 8006f2a:	683b      	ldr	r3, [r7, #0]
 8006f2c:	88db      	ldrh	r3, [r3, #6]
 8006f2e:	2b00      	cmp	r3, #0
 8006f30:	d03a      	beq.n	8006fa8 <USBD_CDC_Setup+0xc0>
      {
        if ((req->bmRequest & 0x80U) != 0U)
 8006f32:	683b      	ldr	r3, [r7, #0]
 8006f34:	781b      	ldrb	r3, [r3, #0]
 8006f36:	b25b      	sxtb	r3, r3
 8006f38:	2b00      	cmp	r3, #0
 8006f3a:	da1b      	bge.n	8006f74 <USBD_CDC_Setup+0x8c>
        {
          ((USBD_CDC_ItfTypeDef *)pdev->pUserData[pdev->classId])->Control(req->bRequest,
 8006f3c:	687b      	ldr	r3, [r7, #4]
 8006f3e:	f8d3 32d4 	ldr.w	r3, [r3, #724]	@ 0x2d4
 8006f42:	687a      	ldr	r2, [r7, #4]
 8006f44:	33b0      	adds	r3, #176	@ 0xb0
 8006f46:	009b      	lsls	r3, r3, #2
 8006f48:	4413      	add	r3, r2
 8006f4a:	685b      	ldr	r3, [r3, #4]
 8006f4c:	689b      	ldr	r3, [r3, #8]
 8006f4e:	683a      	ldr	r2, [r7, #0]
 8006f50:	7850      	ldrb	r0, [r2, #1]
                                                                           (uint8_t *)hcdc->data,
 8006f52:	6939      	ldr	r1, [r7, #16]
          ((USBD_CDC_ItfTypeDef *)pdev->pUserData[pdev->classId])->Control(req->bRequest,
 8006f54:	683a      	ldr	r2, [r7, #0]
 8006f56:	88d2      	ldrh	r2, [r2, #6]
 8006f58:	4798      	blx	r3
                                                                           req->wLength);

          len = MIN(CDC_REQ_MAX_DATA_SIZE, req->wLength);
 8006f5a:	683b      	ldr	r3, [r7, #0]
 8006f5c:	88db      	ldrh	r3, [r3, #6]
 8006f5e:	2b07      	cmp	r3, #7
 8006f60:	bf28      	it	cs
 8006f62:	2307      	movcs	r3, #7
 8006f64:	81fb      	strh	r3, [r7, #14]
          (void)USBD_CtlSendData(pdev, (uint8_t *)hcdc->data, len);
 8006f66:	693b      	ldr	r3, [r7, #16]
 8006f68:	89fa      	ldrh	r2, [r7, #14]
 8006f6a:	4619      	mov	r1, r3
 8006f6c:	6878      	ldr	r0, [r7, #4]
 8006f6e:	f001 fda9 	bl	8008ac4 <USBD_CtlSendData>
      else
      {
        ((USBD_CDC_ItfTypeDef *)pdev->pUserData[pdev->classId])->Control(req->bRequest,
                                                                         (uint8_t *)req, 0U);
      }
      break;
 8006f72:	e090      	b.n	8007096 <USBD_CDC_Setup+0x1ae>
          hcdc->CmdOpCode = req->bRequest;
 8006f74:	683b      	ldr	r3, [r7, #0]
 8006f76:	785a      	ldrb	r2, [r3, #1]
 8006f78:	693b      	ldr	r3, [r7, #16]
 8006f7a:	f883 2200 	strb.w	r2, [r3, #512]	@ 0x200
          hcdc->CmdLength = (uint8_t)MIN(req->wLength, USB_MAX_EP0_SIZE);
 8006f7e:	683b      	ldr	r3, [r7, #0]
 8006f80:	88db      	ldrh	r3, [r3, #6]
 8006f82:	2b3f      	cmp	r3, #63	@ 0x3f
 8006f84:	d803      	bhi.n	8006f8e <USBD_CDC_Setup+0xa6>
 8006f86:	683b      	ldr	r3, [r7, #0]
 8006f88:	88db      	ldrh	r3, [r3, #6]
 8006f8a:	b2da      	uxtb	r2, r3
 8006f8c:	e000      	b.n	8006f90 <USBD_CDC_Setup+0xa8>
 8006f8e:	2240      	movs	r2, #64	@ 0x40
 8006f90:	693b      	ldr	r3, [r7, #16]
 8006f92:	f883 2201 	strb.w	r2, [r3, #513]	@ 0x201
          (void)USBD_CtlPrepareRx(pdev, (uint8_t *)hcdc->data, hcdc->CmdLength);
 8006f96:	6939      	ldr	r1, [r7, #16]
 8006f98:	693b      	ldr	r3, [r7, #16]
 8006f9a:	f893 3201 	ldrb.w	r3, [r3, #513]	@ 0x201
 8006f9e:	461a      	mov	r2, r3
 8006fa0:	6878      	ldr	r0, [r7, #4]
 8006fa2:	f001 fdbe 	bl	8008b22 <USBD_CtlPrepareRx>
      break;
 8006fa6:	e076      	b.n	8007096 <USBD_CDC_Setup+0x1ae>
        ((USBD_CDC_ItfTypeDef *)pdev->pUserData[pdev->classId])->Control(req->bRequest,
 8006fa8:	687b      	ldr	r3, [r7, #4]
 8006faa:	f8d3 32d4 	ldr.w	r3, [r3, #724]	@ 0x2d4
 8006fae:	687a      	ldr	r2, [r7, #4]
 8006fb0:	33b0      	adds	r3, #176	@ 0xb0
 8006fb2:	009b      	lsls	r3, r3, #2
 8006fb4:	4413      	add	r3, r2
 8006fb6:	685b      	ldr	r3, [r3, #4]
 8006fb8:	689b      	ldr	r3, [r3, #8]
 8006fba:	683a      	ldr	r2, [r7, #0]
 8006fbc:	7850      	ldrb	r0, [r2, #1]
 8006fbe:	2200      	movs	r2, #0
 8006fc0:	6839      	ldr	r1, [r7, #0]
 8006fc2:	4798      	blx	r3
      break;
 8006fc4:	e067      	b.n	8007096 <USBD_CDC_Setup+0x1ae>

    case USB_REQ_TYPE_STANDARD:
      switch (req->bRequest)
 8006fc6:	683b      	ldr	r3, [r7, #0]
 8006fc8:	785b      	ldrb	r3, [r3, #1]
 8006fca:	2b0b      	cmp	r3, #11
 8006fcc:	d851      	bhi.n	8007072 <USBD_CDC_Setup+0x18a>
 8006fce:	a201      	add	r2, pc, #4	@ (adr r2, 8006fd4 <USBD_CDC_Setup+0xec>)
 8006fd0:	f852 f023 	ldr.w	pc, [r2, r3, lsl #2]
 8006fd4:	08007005 	.word	0x08007005
 8006fd8:	08007081 	.word	0x08007081
 8006fdc:	08007073 	.word	0x08007073
 8006fe0:	08007073 	.word	0x08007073
 8006fe4:	08007073 	.word	0x08007073
 8006fe8:	08007073 	.word	0x08007073
 8006fec:	08007073 	.word	0x08007073
 8006ff0:	08007073 	.word	0x08007073
 8006ff4:	08007073 	.word	0x08007073
 8006ff8:	08007073 	.word	0x08007073
 8006ffc:	0800702f 	.word	0x0800702f
 8007000:	08007059 	.word	0x08007059
      {
        case USB_REQ_GET_STATUS:
          if (pdev->dev_state == USBD_STATE_CONFIGURED)
 8007004:	687b      	ldr	r3, [r7, #4]
 8007006:	f893 329c 	ldrb.w	r3, [r3, #668]	@ 0x29c
 800700a:	b2db      	uxtb	r3, r3
 800700c:	2b03      	cmp	r3, #3
 800700e:	d107      	bne.n	8007020 <USBD_CDC_Setup+0x138>
          {
            (void)USBD_CtlSendData(pdev, (uint8_t *)&status_info, 2U);
 8007010:	f107 030a 	add.w	r3, r7, #10
 8007014:	2202      	movs	r2, #2
 8007016:	4619      	mov	r1, r3
 8007018:	6878      	ldr	r0, [r7, #4]
 800701a:	f001 fd53 	bl	8008ac4 <USBD_CtlSendData>
          else
          {
            USBD_CtlError(pdev, req);
            ret = USBD_FAIL;
          }
          break;
 800701e:	e032      	b.n	8007086 <USBD_CDC_Setup+0x19e>
            USBD_CtlError(pdev, req);
 8007020:	6839      	ldr	r1, [r7, #0]
 8007022:	6878      	ldr	r0, [r7, #4]
 8007024:	f001 fcd1 	bl	80089ca <USBD_CtlError>
            ret = USBD_FAIL;
 8007028:	2303      	movs	r3, #3
 800702a:	75fb      	strb	r3, [r7, #23]
          break;
 800702c:	e02b      	b.n	8007086 <USBD_CDC_Setup+0x19e>

        case USB_REQ_GET_INTERFACE:
          if (pdev->dev_state == USBD_STATE_CONFIGURED)
 800702e:	687b      	ldr	r3, [r7, #4]
 8007030:	f893 329c 	ldrb.w	r3, [r3, #668]	@ 0x29c
 8007034:	b2db      	uxtb	r3, r3
 8007036:	2b03      	cmp	r3, #3
 8007038:	d107      	bne.n	800704a <USBD_CDC_Setup+0x162>
          {
            (void)USBD_CtlSendData(pdev, &ifalt, 1U);
 800703a:	f107 030d 	add.w	r3, r7, #13
 800703e:	2201      	movs	r2, #1
 8007040:	4619      	mov	r1, r3
 8007042:	6878      	ldr	r0, [r7, #4]
 8007044:	f001 fd3e 	bl	8008ac4 <USBD_CtlSendData>
          else
          {
            USBD_CtlError(pdev, req);
            ret = USBD_FAIL;
          }
          break;
 8007048:	e01d      	b.n	8007086 <USBD_CDC_Setup+0x19e>
            USBD_CtlError(pdev, req);
 800704a:	6839      	ldr	r1, [r7, #0]
 800704c:	6878      	ldr	r0, [r7, #4]
 800704e:	f001 fcbc 	bl	80089ca <USBD_CtlError>
            ret = USBD_FAIL;
 8007052:	2303      	movs	r3, #3
 8007054:	75fb      	strb	r3, [r7, #23]
          break;
 8007056:	e016      	b.n	8007086 <USBD_CDC_Setup+0x19e>

        case USB_REQ_SET_INTERFACE:
          if (pdev->dev_state != USBD_STATE_CONFIGURED)
 8007058:	687b      	ldr	r3, [r7, #4]
 800705a:	f893 329c 	ldrb.w	r3, [r3, #668]	@ 0x29c
 800705e:	b2db      	uxtb	r3, r3
 8007060:	2b03      	cmp	r3, #3
 8007062:	d00f      	beq.n	8007084 <USBD_CDC_Setup+0x19c>
          {
            USBD_CtlError(pdev, req);
 8007064:	6839      	ldr	r1, [r7, #0]
 8007066:	6878      	ldr	r0, [r7, #4]
 8007068:	f001 fcaf 	bl	80089ca <USBD_CtlError>
            ret = USBD_FAIL;
 800706c:	2303      	movs	r3, #3
 800706e:	75fb      	strb	r3, [r7, #23]
          }
          break;
 8007070:	e008      	b.n	8007084 <USBD_CDC_Setup+0x19c>

        case USB_REQ_CLEAR_FEATURE:
          break;

        default:
          USBD_CtlError(pdev, req);
 8007072:	6839      	ldr	r1, [r7, #0]
 8007074:	6878      	ldr	r0, [r7, #4]
 8007076:	f001 fca8 	bl	80089ca <USBD_CtlError>
          ret = USBD_FAIL;
 800707a:	2303      	movs	r3, #3
 800707c:	75fb      	strb	r3, [r7, #23]
          break;
 800707e:	e002      	b.n	8007086 <USBD_CDC_Setup+0x19e>
          break;
 8007080:	bf00      	nop
 8007082:	e008      	b.n	8007096 <USBD_CDC_Setup+0x1ae>
          break;
 8007084:	bf00      	nop
      }
      break;
 8007086:	e006      	b.n	8007096 <USBD_CDC_Setup+0x1ae>

    default:
      USBD_CtlError(pdev, req);
 8007088:	6839      	ldr	r1, [r7, #0]
 800708a:	6878      	ldr	r0, [r7, #4]
 800708c:	f001 fc9d 	bl	80089ca <USBD_CtlError>
      ret = USBD_FAIL;
 8007090:	2303      	movs	r3, #3
 8007092:	75fb      	strb	r3, [r7, #23]
      break;
 8007094:	bf00      	nop
  }

  return (uint8_t)ret;
 8007096:	7dfb      	ldrb	r3, [r7, #23]
}
 8007098:	4618      	mov	r0, r3
 800709a:	3718      	adds	r7, #24
 800709c:	46bd      	mov	sp, r7
 800709e:	bd80      	pop	{r7, pc}

080070a0 <USBD_CDC_DataIn>:
  * @param  pdev: device instance
  * @param  epnum: endpoint number
  * @retval status
  */
static uint8_t USBD_CDC_DataIn(USBD_HandleTypeDef *pdev, uint8_t epnum)
{
 80070a0:	b580      	push	{r7, lr}
 80070a2:	b084      	sub	sp, #16
 80070a4:	af00      	add	r7, sp, #0
 80070a6:	6078      	str	r0, [r7, #4]
 80070a8:	460b      	mov	r3, r1
 80070aa:	70fb      	strb	r3, [r7, #3]
  USBD_CDC_HandleTypeDef *hcdc;
  PCD_HandleTypeDef *hpcd = (PCD_HandleTypeDef *)pdev->pData;
 80070ac:	687b      	ldr	r3, [r7, #4]
 80070ae:	f8d3 32c8 	ldr.w	r3, [r3, #712]	@ 0x2c8
 80070b2:	60fb      	str	r3, [r7, #12]

  if (pdev->pClassDataCmsit[pdev->classId] == NULL)
 80070b4:	687b      	ldr	r3, [r7, #4]
 80070b6:	f8d3 22d4 	ldr.w	r2, [r3, #724]	@ 0x2d4
 80070ba:	687b      	ldr	r3, [r7, #4]
 80070bc:	32b0      	adds	r2, #176	@ 0xb0
 80070be:	f853 3022 	ldr.w	r3, [r3, r2, lsl #2]
 80070c2:	2b00      	cmp	r3, #0
 80070c4:	d101      	bne.n	80070ca <USBD_CDC_DataIn+0x2a>
  {
    return (uint8_t)USBD_FAIL;
 80070c6:	2303      	movs	r3, #3
 80070c8:	e065      	b.n	8007196 <USBD_CDC_DataIn+0xf6>
  }

  hcdc = (USBD_CDC_HandleTypeDef *)pdev->pClassDataCmsit[pdev->classId];
 80070ca:	687b      	ldr	r3, [r7, #4]
 80070cc:	f8d3 22d4 	ldr.w	r2, [r3, #724]	@ 0x2d4
 80070d0:	687b      	ldr	r3, [r7, #4]
 80070d2:	32b0      	adds	r2, #176	@ 0xb0
 80070d4:	f853 3022 	ldr.w	r3, [r3, r2, lsl #2]
 80070d8:	60bb      	str	r3, [r7, #8]

  if ((pdev->ep_in[epnum & 0xFU].total_length > 0U) &&
 80070da:	78fb      	ldrb	r3, [r7, #3]
 80070dc:	f003 020f 	and.w	r2, r3, #15
 80070e0:	6879      	ldr	r1, [r7, #4]
 80070e2:	4613      	mov	r3, r2
 80070e4:	009b      	lsls	r3, r3, #2
 80070e6:	4413      	add	r3, r2
 80070e8:	009b      	lsls	r3, r3, #2
 80070ea:	440b      	add	r3, r1
 80070ec:	3314      	adds	r3, #20
 80070ee:	681b      	ldr	r3, [r3, #0]
 80070f0:	2b00      	cmp	r3, #0
 80070f2:	d02f      	beq.n	8007154 <USBD_CDC_DataIn+0xb4>
      ((pdev->ep_in[epnum & 0xFU].total_length % hpcd->IN_ep[epnum & 0xFU].maxpacket) == 0U))
 80070f4:	78fb      	ldrb	r3, [r7, #3]
 80070f6:	f003 020f 	and.w	r2, r3, #15
 80070fa:	6879      	ldr	r1, [r7, #4]
 80070fc:	4613      	mov	r3, r2
 80070fe:	009b      	lsls	r3, r3, #2
 8007100:	4413      	add	r3, r2
 8007102:	009b      	lsls	r3, r3, #2
 8007104:	440b      	add	r3, r1
 8007106:	3314      	adds	r3, #20
 8007108:	681a      	ldr	r2, [r3, #0]
 800710a:	78fb      	ldrb	r3, [r7, #3]
 800710c:	f003 010f 	and.w	r1, r3, #15
 8007110:	68f8      	ldr	r0, [r7, #12]
 8007112:	460b      	mov	r3, r1
 8007114:	00db      	lsls	r3, r3, #3
 8007116:	440b      	add	r3, r1
 8007118:	009b      	lsls	r3, r3, #2
 800711a:	4403      	add	r3, r0
 800711c:	331c      	adds	r3, #28
 800711e:	681b      	ldr	r3, [r3, #0]
 8007120:	fbb2 f1f3 	udiv	r1, r2, r3
 8007124:	fb01 f303 	mul.w	r3, r1, r3
 8007128:	1ad3      	subs	r3, r2, r3
  if ((pdev->ep_in[epnum & 0xFU].total_length > 0U) &&
 800712a:	2b00      	cmp	r3, #0
 800712c:	d112      	bne.n	8007154 <USBD_CDC_DataIn+0xb4>
  {
    /* Update the packet total length */
    pdev->ep_in[epnum & 0xFU].total_length = 0U;
 800712e:	78fb      	ldrb	r3, [r7, #3]
 8007130:	f003 020f 	and.w	r2, r3, #15
 8007134:	6879      	ldr	r1, [r7, #4]
 8007136:	4613      	mov	r3, r2
 8007138:	009b      	lsls	r3, r3, #2
 800713a:	4413      	add	r3, r2
 800713c:	009b      	lsls	r3, r3, #2
 800713e:	440b      	add	r3, r1
 8007140:	3314      	adds	r3, #20
 8007142:	2200      	movs	r2, #0
 8007144:	601a      	str	r2, [r3, #0]

    /* Send ZLP */
    (void)USBD_LL_Transmit(pdev, epnum, NULL, 0U);
 8007146:	78f9      	ldrb	r1, [r7, #3]
 8007148:	2300      	movs	r3, #0
 800714a:	2200      	movs	r2, #0
 800714c:	6878      	ldr	r0, [r7, #4]
 800714e:	f002 fa22 	bl	8009596 <USBD_LL_Transmit>
 8007152:	e01f      	b.n	8007194 <USBD_CDC_DataIn+0xf4>
  }
  else
  {
    hcdc->TxState = 0U;
 8007154:	68bb      	ldr	r3, [r7, #8]
 8007156:	2200      	movs	r2, #0
 8007158:	f8c3 2214 	str.w	r2, [r3, #532]	@ 0x214

    if (((USBD_CDC_ItfTypeDef *)pdev->pUserData[pdev->classId])->TransmitCplt != NULL)
 800715c:	687b      	ldr	r3, [r7, #4]
 800715e:	f8d3 32d4 	ldr.w	r3, [r3, #724]	@ 0x2d4
 8007162:	687a      	ldr	r2, [r7, #4]
 8007164:	33b0      	adds	r3, #176	@ 0xb0
 8007166:	009b      	lsls	r3, r3, #2
 8007168:	4413      	add	r3, r2
 800716a:	685b      	ldr	r3, [r3, #4]
 800716c:	691b      	ldr	r3, [r3, #16]
 800716e:	2b00      	cmp	r3, #0
 8007170:	d010      	beq.n	8007194 <USBD_CDC_DataIn+0xf4>
    {
      ((USBD_CDC_ItfTypeDef *)pdev->pUserData[pdev->classId])->TransmitCplt(hcdc->TxBuffer, &hcdc->TxLength, epnum);
 8007172:	687b      	ldr	r3, [r7, #4]
 8007174:	f8d3 32d4 	ldr.w	r3, [r3, #724]	@ 0x2d4
 8007178:	687a      	ldr	r2, [r7, #4]
 800717a:	33b0      	adds	r3, #176	@ 0xb0
 800717c:	009b      	lsls	r3, r3, #2
 800717e:	4413      	add	r3, r2
 8007180:	685b      	ldr	r3, [r3, #4]
 8007182:	691b      	ldr	r3, [r3, #16]
 8007184:	68ba      	ldr	r2, [r7, #8]
 8007186:	f8d2 0208 	ldr.w	r0, [r2, #520]	@ 0x208
 800718a:	68ba      	ldr	r2, [r7, #8]
 800718c:	f502 7104 	add.w	r1, r2, #528	@ 0x210
 8007190:	78fa      	ldrb	r2, [r7, #3]
 8007192:	4798      	blx	r3
    }
  }

  return (uint8_t)USBD_OK;
 8007194:	2300      	movs	r3, #0
}
 8007196:	4618      	mov	r0, r3
 8007198:	3710      	adds	r7, #16
 800719a:	46bd      	mov	sp, r7
 800719c:	bd80      	pop	{r7, pc}

0800719e <USBD_CDC_DataOut>:
  * @param  pdev: device instance
  * @param  epnum: endpoint number
  * @retval status
  */
static uint8_t USBD_CDC_DataOut(USBD_HandleTypeDef *pdev, uint8_t epnum)
{
 800719e:	b580      	push	{r7, lr}
 80071a0:	b084      	sub	sp, #16
 80071a2:	af00      	add	r7, sp, #0
 80071a4:	6078      	str	r0, [r7, #4]
 80071a6:	460b      	mov	r3, r1
 80071a8:	70fb      	strb	r3, [r7, #3]
  USBD_CDC_HandleTypeDef *hcdc = (USBD_CDC_HandleTypeDef *)pdev->pClassDataCmsit[pdev->classId];
 80071aa:	687b      	ldr	r3, [r7, #4]
 80071ac:	f8d3 22d4 	ldr.w	r2, [r3, #724]	@ 0x2d4
 80071b0:	687b      	ldr	r3, [r7, #4]
 80071b2:	32b0      	adds	r2, #176	@ 0xb0
 80071b4:	f853 3022 	ldr.w	r3, [r3, r2, lsl #2]
 80071b8:	60fb      	str	r3, [r7, #12]

  if (pdev->pClassDataCmsit[pdev->classId] == NULL)
 80071ba:	687b      	ldr	r3, [r7, #4]
 80071bc:	f8d3 22d4 	ldr.w	r2, [r3, #724]	@ 0x2d4
 80071c0:	687b      	ldr	r3, [r7, #4]
 80071c2:	32b0      	adds	r2, #176	@ 0xb0
 80071c4:	f853 3022 	ldr.w	r3, [r3, r2, lsl #2]
 80071c8:	2b00      	cmp	r3, #0
 80071ca:	d101      	bne.n	80071d0 <USBD_CDC_DataOut+0x32>
  {
    return (uint8_t)USBD_FAIL;
 80071cc:	2303      	movs	r3, #3
 80071ce:	e01a      	b.n	8007206 <USBD_CDC_DataOut+0x68>
  }

  /* Get the received data length */
  hcdc->RxLength = USBD_LL_GetRxDataSize(pdev, epnum);
 80071d0:	78fb      	ldrb	r3, [r7, #3]
 80071d2:	4619      	mov	r1, r3
 80071d4:	6878      	ldr	r0, [r7, #4]
 80071d6:	f002 fa20 	bl	800961a <USBD_LL_GetRxDataSize>
 80071da:	4602      	mov	r2, r0
 80071dc:	68fb      	ldr	r3, [r7, #12]
 80071de:	f8c3 220c 	str.w	r2, [r3, #524]	@ 0x20c

  /* USB data will be immediately processed, this allow next USB traffic being
  NAKed till the end of the application Xfer */

  ((USBD_CDC_ItfTypeDef *)pdev->pUserData[pdev->classId])->Receive(hcdc->RxBuffer, &hcdc->RxLength);
 80071e2:	687b      	ldr	r3, [r7, #4]
 80071e4:	f8d3 32d4 	ldr.w	r3, [r3, #724]	@ 0x2d4
 80071e8:	687a      	ldr	r2, [r7, #4]
 80071ea:	33b0      	adds	r3, #176	@ 0xb0
 80071ec:	009b      	lsls	r3, r3, #2
 80071ee:	4413      	add	r3, r2
 80071f0:	685b      	ldr	r3, [r3, #4]
 80071f2:	68db      	ldr	r3, [r3, #12]
 80071f4:	68fa      	ldr	r2, [r7, #12]
 80071f6:	f8d2 0204 	ldr.w	r0, [r2, #516]	@ 0x204
 80071fa:	68fa      	ldr	r2, [r7, #12]
 80071fc:	f502 7203 	add.w	r2, r2, #524	@ 0x20c
 8007200:	4611      	mov	r1, r2
 8007202:	4798      	blx	r3

  return (uint8_t)USBD_OK;
 8007204:	2300      	movs	r3, #0
}
 8007206:	4618      	mov	r0, r3
 8007208:	3710      	adds	r7, #16
 800720a:	46bd      	mov	sp, r7
 800720c:	bd80      	pop	{r7, pc}

0800720e <USBD_CDC_EP0_RxReady>:
  *         Handle EP0 Rx Ready event
  * @param  pdev: device instance
  * @retval status
  */
static uint8_t USBD_CDC_EP0_RxReady(USBD_HandleTypeDef *pdev)
{
 800720e:	b580      	push	{r7, lr}
 8007210:	b084      	sub	sp, #16
 8007212:	af00      	add	r7, sp, #0
 8007214:	6078      	str	r0, [r7, #4]
  USBD_CDC_HandleTypeDef *hcdc = (USBD_CDC_HandleTypeDef *)pdev->pClassDataCmsit[pdev->classId];
 8007216:	687b      	ldr	r3, [r7, #4]
 8007218:	f8d3 22d4 	ldr.w	r2, [r3, #724]	@ 0x2d4
 800721c:	687b      	ldr	r3, [r7, #4]
 800721e:	32b0      	adds	r2, #176	@ 0xb0
 8007220:	f853 3022 	ldr.w	r3, [r3, r2, lsl #2]
 8007224:	60fb      	str	r3, [r7, #12]

  if (hcdc == NULL)
 8007226:	68fb      	ldr	r3, [r7, #12]
 8007228:	2b00      	cmp	r3, #0
 800722a:	d101      	bne.n	8007230 <USBD_CDC_EP0_RxReady+0x22>
  {
    return (uint8_t)USBD_FAIL;
 800722c:	2303      	movs	r3, #3
 800722e:	e024      	b.n	800727a <USBD_CDC_EP0_RxReady+0x6c>
  }

  if ((pdev->pUserData[pdev->classId] != NULL) && (hcdc->CmdOpCode != 0xFFU))
 8007230:	687b      	ldr	r3, [r7, #4]
 8007232:	f8d3 32d4 	ldr.w	r3, [r3, #724]	@ 0x2d4
 8007236:	687a      	ldr	r2, [r7, #4]
 8007238:	33b0      	adds	r3, #176	@ 0xb0
 800723a:	009b      	lsls	r3, r3, #2
 800723c:	4413      	add	r3, r2
 800723e:	685b      	ldr	r3, [r3, #4]
 8007240:	2b00      	cmp	r3, #0
 8007242:	d019      	beq.n	8007278 <USBD_CDC_EP0_RxReady+0x6a>
 8007244:	68fb      	ldr	r3, [r7, #12]
 8007246:	f893 3200 	ldrb.w	r3, [r3, #512]	@ 0x200
 800724a:	2bff      	cmp	r3, #255	@ 0xff
 800724c:	d014      	beq.n	8007278 <USBD_CDC_EP0_RxReady+0x6a>
  {
    ((USBD_CDC_ItfTypeDef *)pdev->pUserData[pdev->classId])->Control(hcdc->CmdOpCode,
 800724e:	687b      	ldr	r3, [r7, #4]
 8007250:	f8d3 32d4 	ldr.w	r3, [r3, #724]	@ 0x2d4
 8007254:	687a      	ldr	r2, [r7, #4]
 8007256:	33b0      	adds	r3, #176	@ 0xb0
 8007258:	009b      	lsls	r3, r3, #2
 800725a:	4413      	add	r3, r2
 800725c:	685b      	ldr	r3, [r3, #4]
 800725e:	689b      	ldr	r3, [r3, #8]
 8007260:	68fa      	ldr	r2, [r7, #12]
 8007262:	f892 0200 	ldrb.w	r0, [r2, #512]	@ 0x200
                                                                     (uint8_t *)hcdc->data,
 8007266:	68f9      	ldr	r1, [r7, #12]
                                                                     (uint16_t)hcdc->CmdLength);
 8007268:	68fa      	ldr	r2, [r7, #12]
 800726a:	f892 2201 	ldrb.w	r2, [r2, #513]	@ 0x201
    ((USBD_CDC_ItfTypeDef *)pdev->pUserData[pdev->classId])->Control(hcdc->CmdOpCode,
 800726e:	4798      	blx	r3
    hcdc->CmdOpCode = 0xFFU;
 8007270:	68fb      	ldr	r3, [r7, #12]
 8007272:	22ff      	movs	r2, #255	@ 0xff
 8007274:	f883 2200 	strb.w	r2, [r3, #512]	@ 0x200
  }

  return (uint8_t)USBD_OK;
 8007278:	2300      	movs	r3, #0
}
 800727a:	4618      	mov	r0, r3
 800727c:	3710      	adds	r7, #16
 800727e:	46bd      	mov	sp, r7
 8007280:	bd80      	pop	{r7, pc}
	...

08007284 <USBD_CDC_GetFSCfgDesc>:
  *         Return configuration descriptor
  * @param  length : pointer data length
  * @retval pointer to descriptor buffer
  */
static uint8_t *USBD_CDC_GetFSCfgDesc(uint16_t *length)
{
 8007284:	b580      	push	{r7, lr}
 8007286:	b086      	sub	sp, #24
 8007288:	af00      	add	r7, sp, #0
 800728a:	6078      	str	r0, [r7, #4]
  USBD_EpDescTypeDef *pEpCmdDesc = USBD_GetEpDesc(USBD_CDC_CfgDesc, CDC_CMD_EP);
 800728c:	2182      	movs	r1, #130	@ 0x82
 800728e:	4818      	ldr	r0, [pc, #96]	@ (80072f0 <USBD_CDC_GetFSCfgDesc+0x6c>)
 8007290:	f000 fd62 	bl	8007d58 <USBD_GetEpDesc>
 8007294:	6178      	str	r0, [r7, #20]
  USBD_EpDescTypeDef *pEpOutDesc = USBD_GetEpDesc(USBD_CDC_CfgDesc, CDC_OUT_EP);
 8007296:	2101      	movs	r1, #1
 8007298:	4815      	ldr	r0, [pc, #84]	@ (80072f0 <USBD_CDC_GetFSCfgDesc+0x6c>)
 800729a:	f000 fd5d 	bl	8007d58 <USBD_GetEpDesc>
 800729e:	6138      	str	r0, [r7, #16]
  USBD_EpDescTypeDef *pEpInDesc = USBD_GetEpDesc(USBD_CDC_CfgDesc, CDC_IN_EP);
 80072a0:	2181      	movs	r1, #129	@ 0x81
 80072a2:	4813      	ldr	r0, [pc, #76]	@ (80072f0 <USBD_CDC_GetFSCfgDesc+0x6c>)
 80072a4:	f000 fd58 	bl	8007d58 <USBD_GetEpDesc>
 80072a8:	60f8      	str	r0, [r7, #12]

  if (pEpCmdDesc != NULL)
 80072aa:	697b      	ldr	r3, [r7, #20]
 80072ac:	2b00      	cmp	r3, #0
 80072ae:	d002      	beq.n	80072b6 <USBD_CDC_GetFSCfgDesc+0x32>
  {
    pEpCmdDesc->bInterval = CDC_FS_BINTERVAL;
 80072b0:	697b      	ldr	r3, [r7, #20]
 80072b2:	2210      	movs	r2, #16
 80072b4:	719a      	strb	r2, [r3, #6]
  }

  if (pEpOutDesc != NULL)
 80072b6:	693b      	ldr	r3, [r7, #16]
 80072b8:	2b00      	cmp	r3, #0
 80072ba:	d006      	beq.n	80072ca <USBD_CDC_GetFSCfgDesc+0x46>
  {
    pEpOutDesc->wMaxPacketSize = CDC_DATA_FS_MAX_PACKET_SIZE;
 80072bc:	693b      	ldr	r3, [r7, #16]
 80072be:	2200      	movs	r2, #0
 80072c0:	f042 0240 	orr.w	r2, r2, #64	@ 0x40
 80072c4:	711a      	strb	r2, [r3, #4]
 80072c6:	2200      	movs	r2, #0
 80072c8:	715a      	strb	r2, [r3, #5]
  }

  if (pEpInDesc != NULL)
 80072ca:	68fb      	ldr	r3, [r7, #12]
 80072cc:	2b00      	cmp	r3, #0
 80072ce:	d006      	beq.n	80072de <USBD_CDC_GetFSCfgDesc+0x5a>
  {
    pEpInDesc->wMaxPacketSize = CDC_DATA_FS_MAX_PACKET_SIZE;
 80072d0:	68fb      	ldr	r3, [r7, #12]
 80072d2:	2200      	movs	r2, #0
 80072d4:	f042 0240 	orr.w	r2, r2, #64	@ 0x40
 80072d8:	711a      	strb	r2, [r3, #4]
 80072da:	2200      	movs	r2, #0
 80072dc:	715a      	strb	r2, [r3, #5]
  }

  *length = (uint16_t)sizeof(USBD_CDC_CfgDesc);
 80072de:	687b      	ldr	r3, [r7, #4]
 80072e0:	2243      	movs	r2, #67	@ 0x43
 80072e2:	801a      	strh	r2, [r3, #0]
  return USBD_CDC_CfgDesc;
 80072e4:	4b02      	ldr	r3, [pc, #8]	@ (80072f0 <USBD_CDC_GetFSCfgDesc+0x6c>)
}
 80072e6:	4618      	mov	r0, r3
 80072e8:	3718      	adds	r7, #24
 80072ea:	46bd      	mov	sp, r7
 80072ec:	bd80      	pop	{r7, pc}
 80072ee:	bf00      	nop
 80072f0:	20000064 	.word	0x20000064

080072f4 <USBD_CDC_GetHSCfgDesc>:
  *         Return configuration descriptor
  * @param  length : pointer data length
  * @retval pointer to descriptor buffer
  */
static uint8_t *USBD_CDC_GetHSCfgDesc(uint16_t *length)
{
 80072f4:	b580      	push	{r7, lr}
 80072f6:	b086      	sub	sp, #24
 80072f8:	af00      	add	r7, sp, #0
 80072fa:	6078      	str	r0, [r7, #4]
  USBD_EpDescTypeDef *pEpCmdDesc = USBD_GetEpDesc(USBD_CDC_CfgDesc, CDC_CMD_EP);
 80072fc:	2182      	movs	r1, #130	@ 0x82
 80072fe:	4818      	ldr	r0, [pc, #96]	@ (8007360 <USBD_CDC_GetHSCfgDesc+0x6c>)
 8007300:	f000 fd2a 	bl	8007d58 <USBD_GetEpDesc>
 8007304:	6178      	str	r0, [r7, #20]
  USBD_EpDescTypeDef *pEpOutDesc = USBD_GetEpDesc(USBD_CDC_CfgDesc, CDC_OUT_EP);
 8007306:	2101      	movs	r1, #1
 8007308:	4815      	ldr	r0, [pc, #84]	@ (8007360 <USBD_CDC_GetHSCfgDesc+0x6c>)
 800730a:	f000 fd25 	bl	8007d58 <USBD_GetEpDesc>
 800730e:	6138      	str	r0, [r7, #16]
  USBD_EpDescTypeDef *pEpInDesc = USBD_GetEpDesc(USBD_CDC_CfgDesc, CDC_IN_EP);
 8007310:	2181      	movs	r1, #129	@ 0x81
 8007312:	4813      	ldr	r0, [pc, #76]	@ (8007360 <USBD_CDC_GetHSCfgDesc+0x6c>)
 8007314:	f000 fd20 	bl	8007d58 <USBD_GetEpDesc>
 8007318:	60f8      	str	r0, [r7, #12]

  if (pEpCmdDesc != NULL)
 800731a:	697b      	ldr	r3, [r7, #20]
 800731c:	2b00      	cmp	r3, #0
 800731e:	d002      	beq.n	8007326 <USBD_CDC_GetHSCfgDesc+0x32>
  {
    pEpCmdDesc->bInterval = CDC_HS_BINTERVAL;
 8007320:	697b      	ldr	r3, [r7, #20]
 8007322:	2210      	movs	r2, #16
 8007324:	719a      	strb	r2, [r3, #6]
  }

  if (pEpOutDesc != NULL)
 8007326:	693b      	ldr	r3, [r7, #16]
 8007328:	2b00      	cmp	r3, #0
 800732a:	d006      	beq.n	800733a <USBD_CDC_GetHSCfgDesc+0x46>
  {
    pEpOutDesc->wMaxPacketSize = CDC_DATA_HS_MAX_PACKET_SIZE;
 800732c:	693b      	ldr	r3, [r7, #16]
 800732e:	2200      	movs	r2, #0
 8007330:	711a      	strb	r2, [r3, #4]
 8007332:	2200      	movs	r2, #0
 8007334:	f042 0202 	orr.w	r2, r2, #2
 8007338:	715a      	strb	r2, [r3, #5]
  }

  if (pEpInDesc != NULL)
 800733a:	68fb      	ldr	r3, [r7, #12]
 800733c:	2b00      	cmp	r3, #0
 800733e:	d006      	beq.n	800734e <USBD_CDC_GetHSCfgDesc+0x5a>
  {
    pEpInDesc->wMaxPacketSize = CDC_DATA_HS_MAX_PACKET_SIZE;
 8007340:	68fb      	ldr	r3, [r7, #12]
 8007342:	2200      	movs	r2, #0
 8007344:	711a      	strb	r2, [r3, #4]
 8007346:	2200      	movs	r2, #0
 8007348:	f042 0202 	orr.w	r2, r2, #2
 800734c:	715a      	strb	r2, [r3, #5]
  }

  *length = (uint16_t)sizeof(USBD_CDC_CfgDesc);
 800734e:	687b      	ldr	r3, [r7, #4]
 8007350:	2243      	movs	r2, #67	@ 0x43
 8007352:	801a      	strh	r2, [r3, #0]
  return USBD_CDC_CfgDesc;
 8007354:	4b02      	ldr	r3, [pc, #8]	@ (8007360 <USBD_CDC_GetHSCfgDesc+0x6c>)
}
 8007356:	4618      	mov	r0, r3
 8007358:	3718      	adds	r7, #24
 800735a:	46bd      	mov	sp, r7
 800735c:	bd80      	pop	{r7, pc}
 800735e:	bf00      	nop
 8007360:	20000064 	.word	0x20000064

08007364 <USBD_CDC_GetOtherSpeedCfgDesc>:
  *         Return configuration descriptor
  * @param  length : pointer data length
  * @retval pointer to descriptor buffer
  */
static uint8_t *USBD_CDC_GetOtherSpeedCfgDesc(uint16_t *length)
{
 8007364:	b580      	push	{r7, lr}
 8007366:	b086      	sub	sp, #24
 8007368:	af00      	add	r7, sp, #0
 800736a:	6078      	str	r0, [r7, #4]
  USBD_EpDescTypeDef *pEpCmdDesc = USBD_GetEpDesc(USBD_CDC_CfgDesc, CDC_CMD_EP);
 800736c:	2182      	movs	r1, #130	@ 0x82
 800736e:	4818      	ldr	r0, [pc, #96]	@ (80073d0 <USBD_CDC_GetOtherSpeedCfgDesc+0x6c>)
 8007370:	f000 fcf2 	bl	8007d58 <USBD_GetEpDesc>
 8007374:	6178      	str	r0, [r7, #20]
  USBD_EpDescTypeDef *pEpOutDesc = USBD_GetEpDesc(USBD_CDC_CfgDesc, CDC_OUT_EP);
 8007376:	2101      	movs	r1, #1
 8007378:	4815      	ldr	r0, [pc, #84]	@ (80073d0 <USBD_CDC_GetOtherSpeedCfgDesc+0x6c>)
 800737a:	f000 fced 	bl	8007d58 <USBD_GetEpDesc>
 800737e:	6138      	str	r0, [r7, #16]
  USBD_EpDescTypeDef *pEpInDesc = USBD_GetEpDesc(USBD_CDC_CfgDesc, CDC_IN_EP);
 8007380:	2181      	movs	r1, #129	@ 0x81
 8007382:	4813      	ldr	r0, [pc, #76]	@ (80073d0 <USBD_CDC_GetOtherSpeedCfgDesc+0x6c>)
 8007384:	f000 fce8 	bl	8007d58 <USBD_GetEpDesc>
 8007388:	60f8      	str	r0, [r7, #12]

  if (pEpCmdDesc != NULL)
 800738a:	697b      	ldr	r3, [r7, #20]
 800738c:	2b00      	cmp	r3, #0
 800738e:	d002      	beq.n	8007396 <USBD_CDC_GetOtherSpeedCfgDesc+0x32>
  {
    pEpCmdDesc->bInterval = CDC_FS_BINTERVAL;
 8007390:	697b      	ldr	r3, [r7, #20]
 8007392:	2210      	movs	r2, #16
 8007394:	719a      	strb	r2, [r3, #6]
  }

  if (pEpOutDesc != NULL)
 8007396:	693b      	ldr	r3, [r7, #16]
 8007398:	2b00      	cmp	r3, #0
 800739a:	d006      	beq.n	80073aa <USBD_CDC_GetOtherSpeedCfgDesc+0x46>
  {
    pEpOutDesc->wMaxPacketSize = CDC_DATA_FS_MAX_PACKET_SIZE;
 800739c:	693b      	ldr	r3, [r7, #16]
 800739e:	2200      	movs	r2, #0
 80073a0:	f042 0240 	orr.w	r2, r2, #64	@ 0x40
 80073a4:	711a      	strb	r2, [r3, #4]
 80073a6:	2200      	movs	r2, #0
 80073a8:	715a      	strb	r2, [r3, #5]
  }

  if (pEpInDesc != NULL)
 80073aa:	68fb      	ldr	r3, [r7, #12]
 80073ac:	2b00      	cmp	r3, #0
 80073ae:	d006      	beq.n	80073be <USBD_CDC_GetOtherSpeedCfgDesc+0x5a>
  {
    pEpInDesc->wMaxPacketSize = CDC_DATA_FS_MAX_PACKET_SIZE;
 80073b0:	68fb      	ldr	r3, [r7, #12]
 80073b2:	2200      	movs	r2, #0
 80073b4:	f042 0240 	orr.w	r2, r2, #64	@ 0x40
 80073b8:	711a      	strb	r2, [r3, #4]
 80073ba:	2200      	movs	r2, #0
 80073bc:	715a      	strb	r2, [r3, #5]
  }

  *length = (uint16_t)sizeof(USBD_CDC_CfgDesc);
 80073be:	687b      	ldr	r3, [r7, #4]
 80073c0:	2243      	movs	r2, #67	@ 0x43
 80073c2:	801a      	strh	r2, [r3, #0]
  return USBD_CDC_CfgDesc;
 80073c4:	4b02      	ldr	r3, [pc, #8]	@ (80073d0 <USBD_CDC_GetOtherSpeedCfgDesc+0x6c>)
}
 80073c6:	4618      	mov	r0, r3
 80073c8:	3718      	adds	r7, #24
 80073ca:	46bd      	mov	sp, r7
 80073cc:	bd80      	pop	{r7, pc}
 80073ce:	bf00      	nop
 80073d0:	20000064 	.word	0x20000064

080073d4 <USBD_CDC_GetDeviceQualifierDescriptor>:
  *         return Device Qualifier descriptor
  * @param  length : pointer data length
  * @retval pointer to descriptor buffer
  */
uint8_t *USBD_CDC_GetDeviceQualifierDescriptor(uint16_t *length)
{
 80073d4:	b480      	push	{r7}
 80073d6:	b083      	sub	sp, #12
 80073d8:	af00      	add	r7, sp, #0
 80073da:	6078      	str	r0, [r7, #4]
  *length = (uint16_t)sizeof(USBD_CDC_DeviceQualifierDesc);
 80073dc:	687b      	ldr	r3, [r7, #4]
 80073de:	220a      	movs	r2, #10
 80073e0:	801a      	strh	r2, [r3, #0]

  return USBD_CDC_DeviceQualifierDesc;
 80073e2:	4b03      	ldr	r3, [pc, #12]	@ (80073f0 <USBD_CDC_GetDeviceQualifierDescriptor+0x1c>)
}
 80073e4:	4618      	mov	r0, r3
 80073e6:	370c      	adds	r7, #12
 80073e8:	46bd      	mov	sp, r7
 80073ea:	f85d 7b04 	ldr.w	r7, [sp], #4
 80073ee:	4770      	bx	lr
 80073f0:	20000020 	.word	0x20000020

080073f4 <USBD_CDC_RegisterInterface>:
  * @param  fops: CD  Interface callback
  * @retval status
  */
uint8_t USBD_CDC_RegisterInterface(USBD_HandleTypeDef *pdev,
                                   USBD_CDC_ItfTypeDef *fops)
{
 80073f4:	b480      	push	{r7}
 80073f6:	b083      	sub	sp, #12
 80073f8:	af00      	add	r7, sp, #0
 80073fa:	6078      	str	r0, [r7, #4]
 80073fc:	6039      	str	r1, [r7, #0]
  if (fops == NULL)
 80073fe:	683b      	ldr	r3, [r7, #0]
 8007400:	2b00      	cmp	r3, #0
 8007402:	d101      	bne.n	8007408 <USBD_CDC_RegisterInterface+0x14>
  {
    return (uint8_t)USBD_FAIL;
 8007404:	2303      	movs	r3, #3
 8007406:	e009      	b.n	800741c <USBD_CDC_RegisterInterface+0x28>
  }

  pdev->pUserData[pdev->classId] = fops;
 8007408:	687b      	ldr	r3, [r7, #4]
 800740a:	f8d3 32d4 	ldr.w	r3, [r3, #724]	@ 0x2d4
 800740e:	687a      	ldr	r2, [r7, #4]
 8007410:	33b0      	adds	r3, #176	@ 0xb0
 8007412:	009b      	lsls	r3, r3, #2
 8007414:	4413      	add	r3, r2
 8007416:	683a      	ldr	r2, [r7, #0]
 8007418:	605a      	str	r2, [r3, #4]

  return (uint8_t)USBD_OK;
 800741a:	2300      	movs	r3, #0
}
 800741c:	4618      	mov	r0, r3
 800741e:	370c      	adds	r7, #12
 8007420:	46bd      	mov	sp, r7
 8007422:	f85d 7b04 	ldr.w	r7, [sp], #4
 8007426:	4770      	bx	lr

08007428 <USBD_CDC_SetTxBuffer>:
{
  USBD_CDC_HandleTypeDef *hcdc = (USBD_CDC_HandleTypeDef *)pdev->pClassDataCmsit[ClassId];
#else
uint8_t USBD_CDC_SetTxBuffer(USBD_HandleTypeDef *pdev,
                             uint8_t *pbuff, uint32_t length)
{
 8007428:	b480      	push	{r7}
 800742a:	b087      	sub	sp, #28
 800742c:	af00      	add	r7, sp, #0
 800742e:	60f8      	str	r0, [r7, #12]
 8007430:	60b9      	str	r1, [r7, #8]
 8007432:	607a      	str	r2, [r7, #4]
  USBD_CDC_HandleTypeDef *hcdc = (USBD_CDC_HandleTypeDef *)pdev->pClassDataCmsit[pdev->classId];
 8007434:	68fb      	ldr	r3, [r7, #12]
 8007436:	f8d3 22d4 	ldr.w	r2, [r3, #724]	@ 0x2d4
 800743a:	68fb      	ldr	r3, [r7, #12]
 800743c:	32b0      	adds	r2, #176	@ 0xb0
 800743e:	f853 3022 	ldr.w	r3, [r3, r2, lsl #2]
 8007442:	617b      	str	r3, [r7, #20]
#endif /* USE_USBD_COMPOSITE */

  if (hcdc == NULL)
 8007444:	697b      	ldr	r3, [r7, #20]
 8007446:	2b00      	cmp	r3, #0
 8007448:	d101      	bne.n	800744e <USBD_CDC_SetTxBuffer+0x26>
  {
    return (uint8_t)USBD_FAIL;
 800744a:	2303      	movs	r3, #3
 800744c:	e008      	b.n	8007460 <USBD_CDC_SetTxBuffer+0x38>
  }

  hcdc->TxBuffer = pbuff;
 800744e:	697b      	ldr	r3, [r7, #20]
 8007450:	68ba      	ldr	r2, [r7, #8]
 8007452:	f8c3 2208 	str.w	r2, [r3, #520]	@ 0x208
  hcdc->TxLength = length;
 8007456:	697b      	ldr	r3, [r7, #20]
 8007458:	687a      	ldr	r2, [r7, #4]
 800745a:	f8c3 2210 	str.w	r2, [r3, #528]	@ 0x210

  return (uint8_t)USBD_OK;
 800745e:	2300      	movs	r3, #0
}
 8007460:	4618      	mov	r0, r3
 8007462:	371c      	adds	r7, #28
 8007464:	46bd      	mov	sp, r7
 8007466:	f85d 7b04 	ldr.w	r7, [sp], #4
 800746a:	4770      	bx	lr

0800746c <USBD_CDC_SetRxBuffer>:
  * @param  pdev: device instance
  * @param  pbuff: Rx Buffer
  * @retval status
  */
uint8_t USBD_CDC_SetRxBuffer(USBD_HandleTypeDef *pdev, uint8_t *pbuff)
{
 800746c:	b480      	push	{r7}
 800746e:	b085      	sub	sp, #20
 8007470:	af00      	add	r7, sp, #0
 8007472:	6078      	str	r0, [r7, #4]
 8007474:	6039      	str	r1, [r7, #0]
  USBD_CDC_HandleTypeDef *hcdc = (USBD_CDC_HandleTypeDef *)pdev->pClassDataCmsit[pdev->classId];
 8007476:	687b      	ldr	r3, [r7, #4]
 8007478:	f8d3 22d4 	ldr.w	r2, [r3, #724]	@ 0x2d4
 800747c:	687b      	ldr	r3, [r7, #4]
 800747e:	32b0      	adds	r2, #176	@ 0xb0
 8007480:	f853 3022 	ldr.w	r3, [r3, r2, lsl #2]
 8007484:	60fb      	str	r3, [r7, #12]

  if (hcdc == NULL)
 8007486:	68fb      	ldr	r3, [r7, #12]
 8007488:	2b00      	cmp	r3, #0
 800748a:	d101      	bne.n	8007490 <USBD_CDC_SetRxBuffer+0x24>
  {
    return (uint8_t)USBD_FAIL;
 800748c:	2303      	movs	r3, #3
 800748e:	e004      	b.n	800749a <USBD_CDC_SetRxBuffer+0x2e>
  }

  hcdc->RxBuffer = pbuff;
 8007490:	68fb      	ldr	r3, [r7, #12]
 8007492:	683a      	ldr	r2, [r7, #0]
 8007494:	f8c3 2204 	str.w	r2, [r3, #516]	@ 0x204

  return (uint8_t)USBD_OK;
 8007498:	2300      	movs	r3, #0
}
 800749a:	4618      	mov	r0, r3
 800749c:	3714      	adds	r7, #20
 800749e:	46bd      	mov	sp, r7
 80074a0:	f85d 7b04 	ldr.w	r7, [sp], #4
 80074a4:	4770      	bx	lr
	...

080074a8 <USBD_CDC_TransmitPacket>:
uint8_t USBD_CDC_TransmitPacket(USBD_HandleTypeDef *pdev, uint8_t ClassId)
{
  USBD_CDC_HandleTypeDef *hcdc = (USBD_CDC_HandleTypeDef *)pdev->pClassDataCmsit[ClassId];
#else
uint8_t USBD_CDC_TransmitPacket(USBD_HandleTypeDef *pdev)
{
 80074a8:	b580      	push	{r7, lr}
 80074aa:	b084      	sub	sp, #16
 80074ac:	af00      	add	r7, sp, #0
 80074ae:	6078      	str	r0, [r7, #4]
  USBD_CDC_HandleTypeDef *hcdc = (USBD_CDC_HandleTypeDef *)pdev->pClassDataCmsit[pdev->classId];
 80074b0:	687b      	ldr	r3, [r7, #4]
 80074b2:	f8d3 22d4 	ldr.w	r2, [r3, #724]	@ 0x2d4
 80074b6:	687b      	ldr	r3, [r7, #4]
 80074b8:	32b0      	adds	r2, #176	@ 0xb0
 80074ba:	f853 3022 	ldr.w	r3, [r3, r2, lsl #2]
 80074be:	60bb      	str	r3, [r7, #8]
#endif  /* USE_USBD_COMPOSITE */

  USBD_StatusTypeDef ret = USBD_BUSY;
 80074c0:	2301      	movs	r3, #1
 80074c2:	73fb      	strb	r3, [r7, #15]
#ifdef USE_USBD_COMPOSITE
  /* Get the Endpoints addresses allocated for this class instance */
  CDCInEpAdd  = USBD_CoreGetEPAdd(pdev, USBD_EP_IN, USBD_EP_TYPE_BULK, ClassId);
#endif  /* USE_USBD_COMPOSITE */

  if (hcdc == NULL)
 80074c4:	68bb      	ldr	r3, [r7, #8]
 80074c6:	2b00      	cmp	r3, #0
 80074c8:	d101      	bne.n	80074ce <USBD_CDC_TransmitPacket+0x26>
  {
    return (uint8_t)USBD_FAIL;
 80074ca:	2303      	movs	r3, #3
 80074cc:	e025      	b.n	800751a <USBD_CDC_TransmitPacket+0x72>
  }

  if (hcdc->TxState == 0U)
 80074ce:	68bb      	ldr	r3, [r7, #8]
 80074d0:	f8d3 3214 	ldr.w	r3, [r3, #532]	@ 0x214
 80074d4:	2b00      	cmp	r3, #0
 80074d6:	d11f      	bne.n	8007518 <USBD_CDC_TransmitPacket+0x70>
  {
    /* Tx Transfer in progress */
    hcdc->TxState = 1U;
 80074d8:	68bb      	ldr	r3, [r7, #8]
 80074da:	2201      	movs	r2, #1
 80074dc:	f8c3 2214 	str.w	r2, [r3, #532]	@ 0x214

    /* Update the packet total length */
    pdev->ep_in[CDCInEpAdd & 0xFU].total_length = hcdc->TxLength;
 80074e0:	4b10      	ldr	r3, [pc, #64]	@ (8007524 <USBD_CDC_TransmitPacket+0x7c>)
 80074e2:	781b      	ldrb	r3, [r3, #0]
 80074e4:	f003 020f 	and.w	r2, r3, #15
 80074e8:	68bb      	ldr	r3, [r7, #8]
 80074ea:	f8d3 1210 	ldr.w	r1, [r3, #528]	@ 0x210
 80074ee:	6878      	ldr	r0, [r7, #4]
 80074f0:	4613      	mov	r3, r2
 80074f2:	009b      	lsls	r3, r3, #2
 80074f4:	4413      	add	r3, r2
 80074f6:	009b      	lsls	r3, r3, #2
 80074f8:	4403      	add	r3, r0
 80074fa:	3314      	adds	r3, #20
 80074fc:	6019      	str	r1, [r3, #0]

    /* Transmit next packet */
    (void)USBD_LL_Transmit(pdev, CDCInEpAdd, hcdc->TxBuffer, hcdc->TxLength);
 80074fe:	4b09      	ldr	r3, [pc, #36]	@ (8007524 <USBD_CDC_TransmitPacket+0x7c>)
 8007500:	7819      	ldrb	r1, [r3, #0]
 8007502:	68bb      	ldr	r3, [r7, #8]
 8007504:	f8d3 2208 	ldr.w	r2, [r3, #520]	@ 0x208
 8007508:	68bb      	ldr	r3, [r7, #8]
 800750a:	f8d3 3210 	ldr.w	r3, [r3, #528]	@ 0x210
 800750e:	6878      	ldr	r0, [r7, #4]
 8007510:	f002 f841 	bl	8009596 <USBD_LL_Transmit>

    ret = USBD_OK;
 8007514:	2300      	movs	r3, #0
 8007516:	73fb      	strb	r3, [r7, #15]
  }

  return (uint8_t)ret;
 8007518:	7bfb      	ldrb	r3, [r7, #15]
}
 800751a:	4618      	mov	r0, r3
 800751c:	3710      	adds	r7, #16
 800751e:	46bd      	mov	sp, r7
 8007520:	bd80      	pop	{r7, pc}
 8007522:	bf00      	nop
 8007524:	200000a7 	.word	0x200000a7

08007528 <USBD_CDC_ReceivePacket>:
  *         prepare OUT Endpoint for reception
  * @param  pdev: device instance
  * @retval status
  */
uint8_t USBD_CDC_ReceivePacket(USBD_HandleTypeDef *pdev)
{
 8007528:	b580      	push	{r7, lr}
 800752a:	b084      	sub	sp, #16
 800752c:	af00      	add	r7, sp, #0
 800752e:	6078      	str	r0, [r7, #4]
  USBD_CDC_HandleTypeDef *hcdc = (USBD_CDC_HandleTypeDef *)pdev->pClassDataCmsit[pdev->classId];
 8007530:	687b      	ldr	r3, [r7, #4]
 8007532:	f8d3 22d4 	ldr.w	r2, [r3, #724]	@ 0x2d4
 8007536:	687b      	ldr	r3, [r7, #4]
 8007538:	32b0      	adds	r2, #176	@ 0xb0
 800753a:	f853 3022 	ldr.w	r3, [r3, r2, lsl #2]
 800753e:	60fb      	str	r3, [r7, #12]
#ifdef USE_USBD_COMPOSITE
  /* Get the Endpoints addresses allocated for this class instance */
  CDCOutEpAdd = USBD_CoreGetEPAdd(pdev, USBD_EP_OUT, USBD_EP_TYPE_BULK, (uint8_t)pdev->classId);
#endif /* USE_USBD_COMPOSITE */

  if (pdev->pClassDataCmsit[pdev->classId] == NULL)
 8007540:	687b      	ldr	r3, [r7, #4]
 8007542:	f8d3 22d4 	ldr.w	r2, [r3, #724]	@ 0x2d4
 8007546:	687b      	ldr	r3, [r7, #4]
 8007548:	32b0      	adds	r2, #176	@ 0xb0
 800754a:	f853 3022 	ldr.w	r3, [r3, r2, lsl #2]
 800754e:	2b00      	cmp	r3, #0
 8007550:	d101      	bne.n	8007556 <USBD_CDC_ReceivePacket+0x2e>
  {
    return (uint8_t)USBD_FAIL;
 8007552:	2303      	movs	r3, #3
 8007554:	e018      	b.n	8007588 <USBD_CDC_ReceivePacket+0x60>
  }

  if (pdev->dev_speed == USBD_SPEED_HIGH)
 8007556:	687b      	ldr	r3, [r7, #4]
 8007558:	7c1b      	ldrb	r3, [r3, #16]
 800755a:	2b00      	cmp	r3, #0
 800755c:	d10a      	bne.n	8007574 <USBD_CDC_ReceivePacket+0x4c>
  {
    /* Prepare Out endpoint to receive next packet */
    (void)USBD_LL_PrepareReceive(pdev, CDCOutEpAdd, hcdc->RxBuffer,
 800755e:	4b0c      	ldr	r3, [pc, #48]	@ (8007590 <USBD_CDC_ReceivePacket+0x68>)
 8007560:	7819      	ldrb	r1, [r3, #0]
 8007562:	68fb      	ldr	r3, [r7, #12]
 8007564:	f8d3 2204 	ldr.w	r2, [r3, #516]	@ 0x204
 8007568:	f44f 7300 	mov.w	r3, #512	@ 0x200
 800756c:	6878      	ldr	r0, [r7, #4]
 800756e:	f002 f833 	bl	80095d8 <USBD_LL_PrepareReceive>
 8007572:	e008      	b.n	8007586 <USBD_CDC_ReceivePacket+0x5e>
                                 CDC_DATA_HS_OUT_PACKET_SIZE);
  }
  else
  {
    /* Prepare Out endpoint to receive next packet */
    (void)USBD_LL_PrepareReceive(pdev, CDCOutEpAdd, hcdc->RxBuffer,
 8007574:	4b06      	ldr	r3, [pc, #24]	@ (8007590 <USBD_CDC_ReceivePacket+0x68>)
 8007576:	7819      	ldrb	r1, [r3, #0]
 8007578:	68fb      	ldr	r3, [r7, #12]
 800757a:	f8d3 2204 	ldr.w	r2, [r3, #516]	@ 0x204
 800757e:	2340      	movs	r3, #64	@ 0x40
 8007580:	6878      	ldr	r0, [r7, #4]
 8007582:	f002 f829 	bl	80095d8 <USBD_LL_PrepareReceive>
                                 CDC_DATA_FS_OUT_PACKET_SIZE);
  }

  return (uint8_t)USBD_OK;
 8007586:	2300      	movs	r3, #0
}
 8007588:	4618      	mov	r0, r3
 800758a:	3710      	adds	r7, #16
 800758c:	46bd      	mov	sp, r7
 800758e:	bd80      	pop	{r7, pc}
 8007590:	200000a8 	.word	0x200000a8

08007594 <USBD_Init>:
  * @param  id: Low level core index
  * @retval status: USBD Status
  */
USBD_StatusTypeDef USBD_Init(USBD_HandleTypeDef *pdev,
                             USBD_DescriptorsTypeDef *pdesc, uint8_t id)
{
 8007594:	b580      	push	{r7, lr}
 8007596:	b086      	sub	sp, #24
 8007598:	af00      	add	r7, sp, #0
 800759a:	60f8      	str	r0, [r7, #12]
 800759c:	60b9      	str	r1, [r7, #8]
 800759e:	4613      	mov	r3, r2
 80075a0:	71fb      	strb	r3, [r7, #7]
  USBD_StatusTypeDef ret;

  /* Check whether the USB Host handle is valid */
  if (pdev == NULL)
 80075a2:	68fb      	ldr	r3, [r7, #12]
 80075a4:	2b00      	cmp	r3, #0
 80075a6:	d101      	bne.n	80075ac <USBD_Init+0x18>
  {
#if (USBD_DEBUG_LEVEL > 1U)
    USBD_ErrLog("Invalid Device handle");
#endif /* (USBD_DEBUG_LEVEL > 1U) */
    return USBD_FAIL;
 80075a8:	2303      	movs	r3, #3
 80075aa:	e01f      	b.n	80075ec <USBD_Init+0x58>
    pdev->NumClasses = 0;
    pdev->classId = 0;
  }
#else
  /* Unlink previous class*/
  pdev->pClass[0] = NULL;
 80075ac:	68fb      	ldr	r3, [r7, #12]
 80075ae:	2200      	movs	r2, #0
 80075b0:	f8c3 22b8 	str.w	r2, [r3, #696]	@ 0x2b8
  pdev->pUserData[0] = NULL;
 80075b4:	68fb      	ldr	r3, [r7, #12]
 80075b6:	2200      	movs	r2, #0
 80075b8:	f8c3 22c4 	str.w	r2, [r3, #708]	@ 0x2c4
#endif /* USE_USBD_COMPOSITE */

  pdev->pConfDesc = NULL;
 80075bc:	68fb      	ldr	r3, [r7, #12]
 80075be:	2200      	movs	r2, #0
 80075c0:	f8c3 22d0 	str.w	r2, [r3, #720]	@ 0x2d0

  /* Assign USBD Descriptors */
  if (pdesc != NULL)
 80075c4:	68bb      	ldr	r3, [r7, #8]
 80075c6:	2b00      	cmp	r3, #0
 80075c8:	d003      	beq.n	80075d2 <USBD_Init+0x3e>
  {
    pdev->pDesc = pdesc;
 80075ca:	68fb      	ldr	r3, [r7, #12]
 80075cc:	68ba      	ldr	r2, [r7, #8]
 80075ce:	f8c3 22b4 	str.w	r2, [r3, #692]	@ 0x2b4
  }

  /* Set Device initial State */
  pdev->dev_state = USBD_STATE_DEFAULT;
 80075d2:	68fb      	ldr	r3, [r7, #12]
 80075d4:	2201      	movs	r2, #1
 80075d6:	f883 229c 	strb.w	r2, [r3, #668]	@ 0x29c
  pdev->id = id;
 80075da:	68fb      	ldr	r3, [r7, #12]
 80075dc:	79fa      	ldrb	r2, [r7, #7]
 80075de:	701a      	strb	r2, [r3, #0]

  /* Initialize low level driver */
  ret = USBD_LL_Init(pdev);
 80075e0:	68f8      	ldr	r0, [r7, #12]
 80075e2:	f001 fea3 	bl	800932c <USBD_LL_Init>
 80075e6:	4603      	mov	r3, r0
 80075e8:	75fb      	strb	r3, [r7, #23]

  return ret;
 80075ea:	7dfb      	ldrb	r3, [r7, #23]
}
 80075ec:	4618      	mov	r0, r3
 80075ee:	3718      	adds	r7, #24
 80075f0:	46bd      	mov	sp, r7
 80075f2:	bd80      	pop	{r7, pc}

080075f4 <USBD_RegisterClass>:
  * @param  pdev: Device Handle
  * @param  pclass: Class handle
  * @retval USBD Status
  */
USBD_StatusTypeDef USBD_RegisterClass(USBD_HandleTypeDef *pdev, USBD_ClassTypeDef *pclass)
{
 80075f4:	b580      	push	{r7, lr}
 80075f6:	b084      	sub	sp, #16
 80075f8:	af00      	add	r7, sp, #0
 80075fa:	6078      	str	r0, [r7, #4]
 80075fc:	6039      	str	r1, [r7, #0]
  uint16_t len = 0U;
 80075fe:	2300      	movs	r3, #0
 8007600:	81fb      	strh	r3, [r7, #14]

  if (pclass == NULL)
 8007602:	683b      	ldr	r3, [r7, #0]
 8007604:	2b00      	cmp	r3, #0
 8007606:	d101      	bne.n	800760c <USBD_RegisterClass+0x18>
  {
#if (USBD_DEBUG_LEVEL > 1U)
    USBD_ErrLog("Invalid Class handle");
#endif /* (USBD_DEBUG_LEVEL > 1U) */
    return USBD_FAIL;
 8007608:	2303      	movs	r3, #3
 800760a:	e025      	b.n	8007658 <USBD_RegisterClass+0x64>
  }

  /* link the class to the USB Device handle */
  pdev->pClass[0] = pclass;
 800760c:	687b      	ldr	r3, [r7, #4]
 800760e:	683a      	ldr	r2, [r7, #0]
 8007610:	f8c3 22b8 	str.w	r2, [r3, #696]	@ 0x2b8
  if (pdev->pClass[pdev->classId]->GetHSConfigDescriptor != NULL)
  {
    pdev->pConfDesc = (void *)pdev->pClass[pdev->classId]->GetHSConfigDescriptor(&len);
  }
#else /* Default USE_USB_FS */
  if (pdev->pClass[pdev->classId]->GetFSConfigDescriptor != NULL)
 8007614:	687b      	ldr	r3, [r7, #4]
 8007616:	f8d3 22d4 	ldr.w	r2, [r3, #724]	@ 0x2d4
 800761a:	687b      	ldr	r3, [r7, #4]
 800761c:	32ae      	adds	r2, #174	@ 0xae
 800761e:	f853 3022 	ldr.w	r3, [r3, r2, lsl #2]
 8007622:	6adb      	ldr	r3, [r3, #44]	@ 0x2c
 8007624:	2b00      	cmp	r3, #0
 8007626:	d00f      	beq.n	8007648 <USBD_RegisterClass+0x54>
  {
    pdev->pConfDesc = (void *)pdev->pClass[pdev->classId]->GetFSConfigDescriptor(&len);
 8007628:	687b      	ldr	r3, [r7, #4]
 800762a:	f8d3 22d4 	ldr.w	r2, [r3, #724]	@ 0x2d4
 800762e:	687b      	ldr	r3, [r7, #4]
 8007630:	32ae      	adds	r2, #174	@ 0xae
 8007632:	f853 3022 	ldr.w	r3, [r3, r2, lsl #2]
 8007636:	6adb      	ldr	r3, [r3, #44]	@ 0x2c
 8007638:	f107 020e 	add.w	r2, r7, #14
 800763c:	4610      	mov	r0, r2
 800763e:	4798      	blx	r3
 8007640:	4602      	mov	r2, r0
 8007642:	687b      	ldr	r3, [r7, #4]
 8007644:	f8c3 22d0 	str.w	r2, [r3, #720]	@ 0x2d0
  }
#endif /* USE_USB_FS */

  /* Increment the NumClasses */
  pdev->NumClasses++;
 8007648:	687b      	ldr	r3, [r7, #4]
 800764a:	f8d3 32d8 	ldr.w	r3, [r3, #728]	@ 0x2d8
 800764e:	1c5a      	adds	r2, r3, #1
 8007650:	687b      	ldr	r3, [r7, #4]
 8007652:	f8c3 22d8 	str.w	r2, [r3, #728]	@ 0x2d8

  return USBD_OK;
 8007656:	2300      	movs	r3, #0
}
 8007658:	4618      	mov	r0, r3
 800765a:	3710      	adds	r7, #16
 800765c:	46bd      	mov	sp, r7
 800765e:	bd80      	pop	{r7, pc}

08007660 <USBD_Start>:
  *         Start the USB Device Core.
  * @param  pdev: Device Handle
  * @retval USBD Status
  */
USBD_StatusTypeDef USBD_Start(USBD_HandleTypeDef *pdev)
{
 8007660:	b580      	push	{r7, lr}
 8007662:	b082      	sub	sp, #8
 8007664:	af00      	add	r7, sp, #0
 8007666:	6078      	str	r0, [r7, #4]
#ifdef USE_USBD_COMPOSITE
  pdev->classId = 0U;
#endif /* USE_USBD_COMPOSITE */

  /* Start the low level driver  */
  return USBD_LL_Start(pdev);
 8007668:	6878      	ldr	r0, [r7, #4]
 800766a:	f001 feab 	bl	80093c4 <USBD_LL_Start>
 800766e:	4603      	mov	r3, r0
}
 8007670:	4618      	mov	r0, r3
 8007672:	3708      	adds	r7, #8
 8007674:	46bd      	mov	sp, r7
 8007676:	bd80      	pop	{r7, pc}

08007678 <USBD_RunTestMode>:
  *         Launch test mode process
  * @param  pdev: device instance
  * @retval status
  */
USBD_StatusTypeDef USBD_RunTestMode(USBD_HandleTypeDef *pdev)
{
 8007678:	b480      	push	{r7}
 800767a:	b083      	sub	sp, #12
 800767c:	af00      	add	r7, sp, #0
 800767e:	6078      	str	r0, [r7, #4]
  return ret;
#else
  /* Prevent unused argument compilation warning */
  UNUSED(pdev);

  return USBD_OK;
 8007680:	2300      	movs	r3, #0
#endif /* USBD_HS_TESTMODE_ENABLE */
}
 8007682:	4618      	mov	r0, r3
 8007684:	370c      	adds	r7, #12
 8007686:	46bd      	mov	sp, r7
 8007688:	f85d 7b04 	ldr.w	r7, [sp], #4
 800768c:	4770      	bx	lr

0800768e <USBD_SetClassConfig>:
  * @param  cfgidx: configuration index
  * @retval status
  */

USBD_StatusTypeDef USBD_SetClassConfig(USBD_HandleTypeDef *pdev, uint8_t cfgidx)
{
 800768e:	b580      	push	{r7, lr}
 8007690:	b084      	sub	sp, #16
 8007692:	af00      	add	r7, sp, #0
 8007694:	6078      	str	r0, [r7, #4]
 8007696:	460b      	mov	r3, r1
 8007698:	70fb      	strb	r3, [r7, #3]
  USBD_StatusTypeDef ret = USBD_OK;
 800769a:	2300      	movs	r3, #0
 800769c:	73fb      	strb	r3, [r7, #15]
        }
      }
    }
  }
#else
  if (pdev->pClass[0] != NULL)
 800769e:	687b      	ldr	r3, [r7, #4]
 80076a0:	f8d3 32b8 	ldr.w	r3, [r3, #696]	@ 0x2b8
 80076a4:	2b00      	cmp	r3, #0
 80076a6:	d009      	beq.n	80076bc <USBD_SetClassConfig+0x2e>
  {
    /* Set configuration and Start the Class */
    ret = (USBD_StatusTypeDef)pdev->pClass[0]->Init(pdev, cfgidx);
 80076a8:	687b      	ldr	r3, [r7, #4]
 80076aa:	f8d3 32b8 	ldr.w	r3, [r3, #696]	@ 0x2b8
 80076ae:	681b      	ldr	r3, [r3, #0]
 80076b0:	78fa      	ldrb	r2, [r7, #3]
 80076b2:	4611      	mov	r1, r2
 80076b4:	6878      	ldr	r0, [r7, #4]
 80076b6:	4798      	blx	r3
 80076b8:	4603      	mov	r3, r0
 80076ba:	73fb      	strb	r3, [r7, #15]
  }
#endif /* USE_USBD_COMPOSITE */

  return ret;
 80076bc:	7bfb      	ldrb	r3, [r7, #15]
}
 80076be:	4618      	mov	r0, r3
 80076c0:	3710      	adds	r7, #16
 80076c2:	46bd      	mov	sp, r7
 80076c4:	bd80      	pop	{r7, pc}

080076c6 <USBD_ClrClassConfig>:
  * @param  pdev: device instance
  * @param  cfgidx: configuration index
  * @retval status
  */
USBD_StatusTypeDef USBD_ClrClassConfig(USBD_HandleTypeDef *pdev, uint8_t cfgidx)
{
 80076c6:	b580      	push	{r7, lr}
 80076c8:	b084      	sub	sp, #16
 80076ca:	af00      	add	r7, sp, #0
 80076cc:	6078      	str	r0, [r7, #4]
 80076ce:	460b      	mov	r3, r1
 80076d0:	70fb      	strb	r3, [r7, #3]
  USBD_StatusTypeDef ret = USBD_OK;
 80076d2:	2300      	movs	r3, #0
 80076d4:	73fb      	strb	r3, [r7, #15]
      }
    }
  }
#else
  /* Clear configuration  and De-initialize the Class process */
  if (pdev->pClass[0]->DeInit(pdev, cfgidx) != 0U)
 80076d6:	687b      	ldr	r3, [r7, #4]
 80076d8:	f8d3 32b8 	ldr.w	r3, [r3, #696]	@ 0x2b8
 80076dc:	685b      	ldr	r3, [r3, #4]
 80076de:	78fa      	ldrb	r2, [r7, #3]
 80076e0:	4611      	mov	r1, r2
 80076e2:	6878      	ldr	r0, [r7, #4]
 80076e4:	4798      	blx	r3
 80076e6:	4603      	mov	r3, r0
 80076e8:	2b00      	cmp	r3, #0
 80076ea:	d001      	beq.n	80076f0 <USBD_ClrClassConfig+0x2a>
  {
    ret = USBD_FAIL;
 80076ec:	2303      	movs	r3, #3
 80076ee:	73fb      	strb	r3, [r7, #15]
  }
#endif /* USE_USBD_COMPOSITE */

  return ret;
 80076f0:	7bfb      	ldrb	r3, [r7, #15]
}
 80076f2:	4618      	mov	r0, r3
 80076f4:	3710      	adds	r7, #16
 80076f6:	46bd      	mov	sp, r7
 80076f8:	bd80      	pop	{r7, pc}

080076fa <USBD_LL_SetupStage>:
  * @param  pdev: device instance
  * @param  psetup: setup packet buffer pointer
  * @retval status
  */
USBD_StatusTypeDef USBD_LL_SetupStage(USBD_HandleTypeDef *pdev, uint8_t *psetup)
{
 80076fa:	b580      	push	{r7, lr}
 80076fc:	b084      	sub	sp, #16
 80076fe:	af00      	add	r7, sp, #0
 8007700:	6078      	str	r0, [r7, #4]
 8007702:	6039      	str	r1, [r7, #0]
  USBD_StatusTypeDef ret;

  USBD_ParseSetupRequest(&pdev->request, psetup);
 8007704:	687b      	ldr	r3, [r7, #4]
 8007706:	f203 23aa 	addw	r3, r3, #682	@ 0x2aa
 800770a:	6839      	ldr	r1, [r7, #0]
 800770c:	4618      	mov	r0, r3
 800770e:	f001 f922 	bl	8008956 <USBD_ParseSetupRequest>

  pdev->ep0_state = USBD_EP0_SETUP;
 8007712:	687b      	ldr	r3, [r7, #4]
 8007714:	2201      	movs	r2, #1
 8007716:	f8c3 2294 	str.w	r2, [r3, #660]	@ 0x294

  pdev->ep0_data_len = pdev->request.wLength;
 800771a:	687b      	ldr	r3, [r7, #4]
 800771c:	f8b3 32b0 	ldrh.w	r3, [r3, #688]	@ 0x2b0
 8007720:	461a      	mov	r2, r3
 8007722:	687b      	ldr	r3, [r7, #4]
 8007724:	f8c3 2298 	str.w	r2, [r3, #664]	@ 0x298

  switch (pdev->request.bmRequest & 0x1FU)
 8007728:	687b      	ldr	r3, [r7, #4]
 800772a:	f893 32aa 	ldrb.w	r3, [r3, #682]	@ 0x2aa
 800772e:	f003 031f 	and.w	r3, r3, #31
 8007732:	2b02      	cmp	r3, #2
 8007734:	d01a      	beq.n	800776c <USBD_LL_SetupStage+0x72>
 8007736:	2b02      	cmp	r3, #2
 8007738:	d822      	bhi.n	8007780 <USBD_LL_SetupStage+0x86>
 800773a:	2b00      	cmp	r3, #0
 800773c:	d002      	beq.n	8007744 <USBD_LL_SetupStage+0x4a>
 800773e:	2b01      	cmp	r3, #1
 8007740:	d00a      	beq.n	8007758 <USBD_LL_SetupStage+0x5e>
 8007742:	e01d      	b.n	8007780 <USBD_LL_SetupStage+0x86>
  {
    case USB_REQ_RECIPIENT_DEVICE:
      ret = USBD_StdDevReq(pdev, &pdev->request);
 8007744:	687b      	ldr	r3, [r7, #4]
 8007746:	f203 23aa 	addw	r3, r3, #682	@ 0x2aa
 800774a:	4619      	mov	r1, r3
 800774c:	6878      	ldr	r0, [r7, #4]
 800774e:	f000 fb77 	bl	8007e40 <USBD_StdDevReq>
 8007752:	4603      	mov	r3, r0
 8007754:	73fb      	strb	r3, [r7, #15]
      break;
 8007756:	e020      	b.n	800779a <USBD_LL_SetupStage+0xa0>

    case USB_REQ_RECIPIENT_INTERFACE:
      ret = USBD_StdItfReq(pdev, &pdev->request);
 8007758:	687b      	ldr	r3, [r7, #4]
 800775a:	f203 23aa 	addw	r3, r3, #682	@ 0x2aa
 800775e:	4619      	mov	r1, r3
 8007760:	6878      	ldr	r0, [r7, #4]
 8007762:	f000 fbdf 	bl	8007f24 <USBD_StdItfReq>
 8007766:	4603      	mov	r3, r0
 8007768:	73fb      	strb	r3, [r7, #15]
      break;
 800776a:	e016      	b.n	800779a <USBD_LL_SetupStage+0xa0>

    case USB_REQ_RECIPIENT_ENDPOINT:
      ret = USBD_StdEPReq(pdev, &pdev->request);
 800776c:	687b      	ldr	r3, [r7, #4]
 800776e:	f203 23aa 	addw	r3, r3, #682	@ 0x2aa
 8007772:	4619      	mov	r1, r3
 8007774:	6878      	ldr	r0, [r7, #4]
 8007776:	f000 fc41 	bl	8007ffc <USBD_StdEPReq>
 800777a:	4603      	mov	r3, r0
 800777c:	73fb      	strb	r3, [r7, #15]
      break;
 800777e:	e00c      	b.n	800779a <USBD_LL_SetupStage+0xa0>

    default:
      ret = USBD_LL_StallEP(pdev, (pdev->request.bmRequest & 0x80U));
 8007780:	687b      	ldr	r3, [r7, #4]
 8007782:	f893 32aa 	ldrb.w	r3, [r3, #682]	@ 0x2aa
 8007786:	f023 037f 	bic.w	r3, r3, #127	@ 0x7f
 800778a:	b2db      	uxtb	r3, r3
 800778c:	4619      	mov	r1, r3
 800778e:	6878      	ldr	r0, [r7, #4]
 8007790:	f001 fe78 	bl	8009484 <USBD_LL_StallEP>
 8007794:	4603      	mov	r3, r0
 8007796:	73fb      	strb	r3, [r7, #15]
      break;
 8007798:	bf00      	nop
  }

  return ret;
 800779a:	7bfb      	ldrb	r3, [r7, #15]
}
 800779c:	4618      	mov	r0, r3
 800779e:	3710      	adds	r7, #16
 80077a0:	46bd      	mov	sp, r7
 80077a2:	bd80      	pop	{r7, pc}

080077a4 <USBD_LL_DataOutStage>:
  * @param  pdata: data pointer
  * @retval status
  */
USBD_StatusTypeDef USBD_LL_DataOutStage(USBD_HandleTypeDef *pdev,
                                        uint8_t epnum, uint8_t *pdata)
{
 80077a4:	b580      	push	{r7, lr}
 80077a6:	b086      	sub	sp, #24
 80077a8:	af00      	add	r7, sp, #0
 80077aa:	60f8      	str	r0, [r7, #12]
 80077ac:	460b      	mov	r3, r1
 80077ae:	607a      	str	r2, [r7, #4]
 80077b0:	72fb      	strb	r3, [r7, #11]
  USBD_EndpointTypeDef *pep;
  USBD_StatusTypeDef ret = USBD_OK;
 80077b2:	2300      	movs	r3, #0
 80077b4:	75fb      	strb	r3, [r7, #23]
  uint8_t idx;

  UNUSED(pdata);

  if (epnum == 0U)
 80077b6:	7afb      	ldrb	r3, [r7, #11]
 80077b8:	2b00      	cmp	r3, #0
 80077ba:	d177      	bne.n	80078ac <USBD_LL_DataOutStage+0x108>
  {
    pep = &pdev->ep_out[0];
 80077bc:	68fb      	ldr	r3, [r7, #12]
 80077be:	f503 73aa 	add.w	r3, r3, #340	@ 0x154
 80077c2:	613b      	str	r3, [r7, #16]

    if (pdev->ep0_state == USBD_EP0_DATA_OUT)
 80077c4:	68fb      	ldr	r3, [r7, #12]
 80077c6:	f8d3 3294 	ldr.w	r3, [r3, #660]	@ 0x294
 80077ca:	2b03      	cmp	r3, #3
 80077cc:	f040 80a1 	bne.w	8007912 <USBD_LL_DataOutStage+0x16e>
    {
      if (pep->rem_length > pep->maxpacket)
 80077d0:	693b      	ldr	r3, [r7, #16]
 80077d2:	685b      	ldr	r3, [r3, #4]
 80077d4:	693a      	ldr	r2, [r7, #16]
 80077d6:	8992      	ldrh	r2, [r2, #12]
 80077d8:	4293      	cmp	r3, r2
 80077da:	d91c      	bls.n	8007816 <USBD_LL_DataOutStage+0x72>
      {
        pep->rem_length -= pep->maxpacket;
 80077dc:	693b      	ldr	r3, [r7, #16]
 80077de:	685b      	ldr	r3, [r3, #4]
 80077e0:	693a      	ldr	r2, [r7, #16]
 80077e2:	8992      	ldrh	r2, [r2, #12]
 80077e4:	1a9a      	subs	r2, r3, r2
 80077e6:	693b      	ldr	r3, [r7, #16]
 80077e8:	605a      	str	r2, [r3, #4]
        pep->pbuffer += pep->maxpacket;
 80077ea:	693b      	ldr	r3, [r7, #16]
 80077ec:	691b      	ldr	r3, [r3, #16]
 80077ee:	693a      	ldr	r2, [r7, #16]
 80077f0:	8992      	ldrh	r2, [r2, #12]
 80077f2:	441a      	add	r2, r3
 80077f4:	693b      	ldr	r3, [r7, #16]
 80077f6:	611a      	str	r2, [r3, #16]

        (void)USBD_CtlContinueRx(pdev, pep->pbuffer, MAX(pep->rem_length, pep->maxpacket));
 80077f8:	693b      	ldr	r3, [r7, #16]
 80077fa:	6919      	ldr	r1, [r3, #16]
 80077fc:	693b      	ldr	r3, [r7, #16]
 80077fe:	899b      	ldrh	r3, [r3, #12]
 8007800:	461a      	mov	r2, r3
 8007802:	693b      	ldr	r3, [r7, #16]
 8007804:	685b      	ldr	r3, [r3, #4]
 8007806:	4293      	cmp	r3, r2
 8007808:	bf38      	it	cc
 800780a:	4613      	movcc	r3, r2
 800780c:	461a      	mov	r2, r3
 800780e:	68f8      	ldr	r0, [r7, #12]
 8007810:	f001 f9a8 	bl	8008b64 <USBD_CtlContinueRx>
 8007814:	e07d      	b.n	8007912 <USBD_LL_DataOutStage+0x16e>
      }
      else
      {
        /* Find the class ID relative to the current request */
        switch (pdev->request.bmRequest & 0x1FU)
 8007816:	68fb      	ldr	r3, [r7, #12]
 8007818:	f893 32aa 	ldrb.w	r3, [r3, #682]	@ 0x2aa
 800781c:	f003 031f 	and.w	r3, r3, #31
 8007820:	2b02      	cmp	r3, #2
 8007822:	d014      	beq.n	800784e <USBD_LL_DataOutStage+0xaa>
 8007824:	2b02      	cmp	r3, #2
 8007826:	d81d      	bhi.n	8007864 <USBD_LL_DataOutStage+0xc0>
 8007828:	2b00      	cmp	r3, #0
 800782a:	d002      	beq.n	8007832 <USBD_LL_DataOutStage+0x8e>
 800782c:	2b01      	cmp	r3, #1
 800782e:	d003      	beq.n	8007838 <USBD_LL_DataOutStage+0x94>
 8007830:	e018      	b.n	8007864 <USBD_LL_DataOutStage+0xc0>
        {
          case USB_REQ_RECIPIENT_DEVICE:
            /* Device requests must be managed by the first instantiated class
               (or duplicated by all classes for simplicity) */
            idx = 0U;
 8007832:	2300      	movs	r3, #0
 8007834:	75bb      	strb	r3, [r7, #22]
            break;
 8007836:	e018      	b.n	800786a <USBD_LL_DataOutStage+0xc6>

          case USB_REQ_RECIPIENT_INTERFACE:
            idx = USBD_CoreFindIF(pdev, LOBYTE(pdev->request.wIndex));
 8007838:	68fb      	ldr	r3, [r7, #12]
 800783a:	f8b3 32ae 	ldrh.w	r3, [r3, #686]	@ 0x2ae
 800783e:	b2db      	uxtb	r3, r3
 8007840:	4619      	mov	r1, r3
 8007842:	68f8      	ldr	r0, [r7, #12]
 8007844:	f000 fa6e 	bl	8007d24 <USBD_CoreFindIF>
 8007848:	4603      	mov	r3, r0
 800784a:	75bb      	strb	r3, [r7, #22]
            break;
 800784c:	e00d      	b.n	800786a <USBD_LL_DataOutStage+0xc6>

          case USB_REQ_RECIPIENT_ENDPOINT:
            idx = USBD_CoreFindEP(pdev, LOBYTE(pdev->request.wIndex));
 800784e:	68fb      	ldr	r3, [r7, #12]
 8007850:	f8b3 32ae 	ldrh.w	r3, [r3, #686]	@ 0x2ae
 8007854:	b2db      	uxtb	r3, r3
 8007856:	4619      	mov	r1, r3
 8007858:	68f8      	ldr	r0, [r7, #12]
 800785a:	f000 fa70 	bl	8007d3e <USBD_CoreFindEP>
 800785e:	4603      	mov	r3, r0
 8007860:	75bb      	strb	r3, [r7, #22]
            break;
 8007862:	e002      	b.n	800786a <USBD_LL_DataOutStage+0xc6>

          default:
            /* Back to the first class in case of doubt */
            idx = 0U;
 8007864:	2300      	movs	r3, #0
 8007866:	75bb      	strb	r3, [r7, #22]
            break;
 8007868:	bf00      	nop
        }

        if (idx < USBD_MAX_SUPPORTED_CLASS)
 800786a:	7dbb      	ldrb	r3, [r7, #22]
 800786c:	2b00      	cmp	r3, #0
 800786e:	d119      	bne.n	80078a4 <USBD_LL_DataOutStage+0x100>
        {
          /* Setup the class ID and route the request to the relative class function */
          if (pdev->dev_state == USBD_STATE_CONFIGURED)
 8007870:	68fb      	ldr	r3, [r7, #12]
 8007872:	f893 329c 	ldrb.w	r3, [r3, #668]	@ 0x29c
 8007876:	b2db      	uxtb	r3, r3
 8007878:	2b03      	cmp	r3, #3
 800787a:	d113      	bne.n	80078a4 <USBD_LL_DataOutStage+0x100>
          {
            if (pdev->pClass[idx]->EP0_RxReady != NULL)
 800787c:	7dba      	ldrb	r2, [r7, #22]
 800787e:	68fb      	ldr	r3, [r7, #12]
 8007880:	32ae      	adds	r2, #174	@ 0xae
 8007882:	f853 3022 	ldr.w	r3, [r3, r2, lsl #2]
 8007886:	691b      	ldr	r3, [r3, #16]
 8007888:	2b00      	cmp	r3, #0
 800788a:	d00b      	beq.n	80078a4 <USBD_LL_DataOutStage+0x100>
            {
              pdev->classId = idx;
 800788c:	7dba      	ldrb	r2, [r7, #22]
 800788e:	68fb      	ldr	r3, [r7, #12]
 8007890:	f8c3 22d4 	str.w	r2, [r3, #724]	@ 0x2d4
              pdev->pClass[idx]->EP0_RxReady(pdev);
 8007894:	7dba      	ldrb	r2, [r7, #22]
 8007896:	68fb      	ldr	r3, [r7, #12]
 8007898:	32ae      	adds	r2, #174	@ 0xae
 800789a:	f853 3022 	ldr.w	r3, [r3, r2, lsl #2]
 800789e:	691b      	ldr	r3, [r3, #16]
 80078a0:	68f8      	ldr	r0, [r7, #12]
 80078a2:	4798      	blx	r3
            }
          }
        }

        (void)USBD_CtlSendStatus(pdev);
 80078a4:	68f8      	ldr	r0, [r7, #12]
 80078a6:	f001 f96e 	bl	8008b86 <USBD_CtlSendStatus>
 80078aa:	e032      	b.n	8007912 <USBD_LL_DataOutStage+0x16e>
    }
  }
  else
  {
    /* Get the class index relative to this interface */
    idx = USBD_CoreFindEP(pdev, (epnum & 0x7FU));
 80078ac:	7afb      	ldrb	r3, [r7, #11]
 80078ae:	f003 037f 	and.w	r3, r3, #127	@ 0x7f
 80078b2:	b2db      	uxtb	r3, r3
 80078b4:	4619      	mov	r1, r3
 80078b6:	68f8      	ldr	r0, [r7, #12]
 80078b8:	f000 fa41 	bl	8007d3e <USBD_CoreFindEP>
 80078bc:	4603      	mov	r3, r0
 80078be:	75bb      	strb	r3, [r7, #22]

    if (((uint16_t)idx != 0xFFU) && (idx < USBD_MAX_SUPPORTED_CLASS))
 80078c0:	7dbb      	ldrb	r3, [r7, #22]
 80078c2:	2bff      	cmp	r3, #255	@ 0xff
 80078c4:	d025      	beq.n	8007912 <USBD_LL_DataOutStage+0x16e>
 80078c6:	7dbb      	ldrb	r3, [r7, #22]
 80078c8:	2b00      	cmp	r3, #0
 80078ca:	d122      	bne.n	8007912 <USBD_LL_DataOutStage+0x16e>
    {
      /* Call the class data out function to manage the request */
      if (pdev->dev_state == USBD_STATE_CONFIGURED)
 80078cc:	68fb      	ldr	r3, [r7, #12]
 80078ce:	f893 329c 	ldrb.w	r3, [r3, #668]	@ 0x29c
 80078d2:	b2db      	uxtb	r3, r3
 80078d4:	2b03      	cmp	r3, #3
 80078d6:	d117      	bne.n	8007908 <USBD_LL_DataOutStage+0x164>
      {
        if (pdev->pClass[idx]->DataOut != NULL)
 80078d8:	7dba      	ldrb	r2, [r7, #22]
 80078da:	68fb      	ldr	r3, [r7, #12]
 80078dc:	32ae      	adds	r2, #174	@ 0xae
 80078de:	f853 3022 	ldr.w	r3, [r3, r2, lsl #2]
 80078e2:	699b      	ldr	r3, [r3, #24]
 80078e4:	2b00      	cmp	r3, #0
 80078e6:	d00f      	beq.n	8007908 <USBD_LL_DataOutStage+0x164>
        {
          pdev->classId = idx;
 80078e8:	7dba      	ldrb	r2, [r7, #22]
 80078ea:	68fb      	ldr	r3, [r7, #12]
 80078ec:	f8c3 22d4 	str.w	r2, [r3, #724]	@ 0x2d4
          ret = (USBD_StatusTypeDef)pdev->pClass[idx]->DataOut(pdev, epnum);
 80078f0:	7dba      	ldrb	r2, [r7, #22]
 80078f2:	68fb      	ldr	r3, [r7, #12]
 80078f4:	32ae      	adds	r2, #174	@ 0xae
 80078f6:	f853 3022 	ldr.w	r3, [r3, r2, lsl #2]
 80078fa:	699b      	ldr	r3, [r3, #24]
 80078fc:	7afa      	ldrb	r2, [r7, #11]
 80078fe:	4611      	mov	r1, r2
 8007900:	68f8      	ldr	r0, [r7, #12]
 8007902:	4798      	blx	r3
 8007904:	4603      	mov	r3, r0
 8007906:	75fb      	strb	r3, [r7, #23]
        }
      }
      if (ret != USBD_OK)
 8007908:	7dfb      	ldrb	r3, [r7, #23]
 800790a:	2b00      	cmp	r3, #0
 800790c:	d001      	beq.n	8007912 <USBD_LL_DataOutStage+0x16e>
      {
        return ret;
 800790e:	7dfb      	ldrb	r3, [r7, #23]
 8007910:	e000      	b.n	8007914 <USBD_LL_DataOutStage+0x170>
      }
    }
  }

  return USBD_OK;
 8007912:	2300      	movs	r3, #0
}
 8007914:	4618      	mov	r0, r3
 8007916:	3718      	adds	r7, #24
 8007918:	46bd      	mov	sp, r7
 800791a:	bd80      	pop	{r7, pc}

0800791c <USBD_LL_DataInStage>:
  * @param  pdata: data pointer
  * @retval status
  */
USBD_StatusTypeDef USBD_LL_DataInStage(USBD_HandleTypeDef *pdev,
                                       uint8_t epnum, uint8_t *pdata)
{
 800791c:	b580      	push	{r7, lr}
 800791e:	b086      	sub	sp, #24
 8007920:	af00      	add	r7, sp, #0
 8007922:	60f8      	str	r0, [r7, #12]
 8007924:	460b      	mov	r3, r1
 8007926:	607a      	str	r2, [r7, #4]
 8007928:	72fb      	strb	r3, [r7, #11]
  USBD_StatusTypeDef ret;
  uint8_t idx;

  UNUSED(pdata);

  if (epnum == 0U)
 800792a:	7afb      	ldrb	r3, [r7, #11]
 800792c:	2b00      	cmp	r3, #0
 800792e:	d178      	bne.n	8007a22 <USBD_LL_DataInStage+0x106>
  {
    pep = &pdev->ep_in[0];
 8007930:	68fb      	ldr	r3, [r7, #12]
 8007932:	3314      	adds	r3, #20
 8007934:	613b      	str	r3, [r7, #16]

    if (pdev->ep0_state == USBD_EP0_DATA_IN)
 8007936:	68fb      	ldr	r3, [r7, #12]
 8007938:	f8d3 3294 	ldr.w	r3, [r3, #660]	@ 0x294
 800793c:	2b02      	cmp	r3, #2
 800793e:	d163      	bne.n	8007a08 <USBD_LL_DataInStage+0xec>
    {
      if (pep->rem_length > pep->maxpacket)
 8007940:	693b      	ldr	r3, [r7, #16]
 8007942:	685b      	ldr	r3, [r3, #4]
 8007944:	693a      	ldr	r2, [r7, #16]
 8007946:	8992      	ldrh	r2, [r2, #12]
 8007948:	4293      	cmp	r3, r2
 800794a:	d91c      	bls.n	8007986 <USBD_LL_DataInStage+0x6a>
      {
        pep->rem_length -= pep->maxpacket;
 800794c:	693b      	ldr	r3, [r7, #16]
 800794e:	685b      	ldr	r3, [r3, #4]
 8007950:	693a      	ldr	r2, [r7, #16]
 8007952:	8992      	ldrh	r2, [r2, #12]
 8007954:	1a9a      	subs	r2, r3, r2
 8007956:	693b      	ldr	r3, [r7, #16]
 8007958:	605a      	str	r2, [r3, #4]
        pep->pbuffer += pep->maxpacket;
 800795a:	693b      	ldr	r3, [r7, #16]
 800795c:	691b      	ldr	r3, [r3, #16]
 800795e:	693a      	ldr	r2, [r7, #16]
 8007960:	8992      	ldrh	r2, [r2, #12]
 8007962:	441a      	add	r2, r3
 8007964:	693b      	ldr	r3, [r7, #16]
 8007966:	611a      	str	r2, [r3, #16]

        (void)USBD_CtlContinueSendData(pdev, pep->pbuffer, pep->rem_length);
 8007968:	693b      	ldr	r3, [r7, #16]
 800796a:	6919      	ldr	r1, [r3, #16]
 800796c:	693b      	ldr	r3, [r7, #16]
 800796e:	685b      	ldr	r3, [r3, #4]
 8007970:	461a      	mov	r2, r3
 8007972:	68f8      	ldr	r0, [r7, #12]
 8007974:	f001 f8c4 	bl	8008b00 <USBD_CtlContinueSendData>

        /* Prepare endpoint for premature end of transfer */
        (void)USBD_LL_PrepareReceive(pdev, 0U, NULL, 0U);
 8007978:	2300      	movs	r3, #0
 800797a:	2200      	movs	r2, #0
 800797c:	2100      	movs	r1, #0
 800797e:	68f8      	ldr	r0, [r7, #12]
 8007980:	f001 fe2a 	bl	80095d8 <USBD_LL_PrepareReceive>
 8007984:	e040      	b.n	8007a08 <USBD_LL_DataInStage+0xec>
      }
      else
      {
        /* last packet is MPS multiple, so send ZLP packet */
        if ((pep->maxpacket == pep->rem_length) &&
 8007986:	693b      	ldr	r3, [r7, #16]
 8007988:	899b      	ldrh	r3, [r3, #12]
 800798a:	461a      	mov	r2, r3
 800798c:	693b      	ldr	r3, [r7, #16]
 800798e:	685b      	ldr	r3, [r3, #4]
 8007990:	429a      	cmp	r2, r3
 8007992:	d11c      	bne.n	80079ce <USBD_LL_DataInStage+0xb2>
            (pep->total_length >= pep->maxpacket) &&
 8007994:	693b      	ldr	r3, [r7, #16]
 8007996:	681b      	ldr	r3, [r3, #0]
 8007998:	693a      	ldr	r2, [r7, #16]
 800799a:	8992      	ldrh	r2, [r2, #12]
        if ((pep->maxpacket == pep->rem_length) &&
 800799c:	4293      	cmp	r3, r2
 800799e:	d316      	bcc.n	80079ce <USBD_LL_DataInStage+0xb2>
            (pep->total_length < pdev->ep0_data_len))
 80079a0:	693b      	ldr	r3, [r7, #16]
 80079a2:	681a      	ldr	r2, [r3, #0]
 80079a4:	68fb      	ldr	r3, [r7, #12]
 80079a6:	f8d3 3298 	ldr.w	r3, [r3, #664]	@ 0x298
            (pep->total_length >= pep->maxpacket) &&
 80079aa:	429a      	cmp	r2, r3
 80079ac:	d20f      	bcs.n	80079ce <USBD_LL_DataInStage+0xb2>
        {
          (void)USBD_CtlContinueSendData(pdev, NULL, 0U);
 80079ae:	2200      	movs	r2, #0
 80079b0:	2100      	movs	r1, #0
 80079b2:	68f8      	ldr	r0, [r7, #12]
 80079b4:	f001 f8a4 	bl	8008b00 <USBD_CtlContinueSendData>
          pdev->ep0_data_len = 0U;
 80079b8:	68fb      	ldr	r3, [r7, #12]
 80079ba:	2200      	movs	r2, #0
 80079bc:	f8c3 2298 	str.w	r2, [r3, #664]	@ 0x298

          /* Prepare endpoint for premature end of transfer */
          (void)USBD_LL_PrepareReceive(pdev, 0U, NULL, 0U);
 80079c0:	2300      	movs	r3, #0
 80079c2:	2200      	movs	r2, #0
 80079c4:	2100      	movs	r1, #0
 80079c6:	68f8      	ldr	r0, [r7, #12]
 80079c8:	f001 fe06 	bl	80095d8 <USBD_LL_PrepareReceive>
 80079cc:	e01c      	b.n	8007a08 <USBD_LL_DataInStage+0xec>
        }
        else
        {
          if (pdev->dev_state == USBD_STATE_CONFIGURED)
 80079ce:	68fb      	ldr	r3, [r7, #12]
 80079d0:	f893 329c 	ldrb.w	r3, [r3, #668]	@ 0x29c
 80079d4:	b2db      	uxtb	r3, r3
 80079d6:	2b03      	cmp	r3, #3
 80079d8:	d10f      	bne.n	80079fa <USBD_LL_DataInStage+0xde>
          {
            if (pdev->pClass[0]->EP0_TxSent != NULL)
 80079da:	68fb      	ldr	r3, [r7, #12]
 80079dc:	f8d3 32b8 	ldr.w	r3, [r3, #696]	@ 0x2b8
 80079e0:	68db      	ldr	r3, [r3, #12]
 80079e2:	2b00      	cmp	r3, #0
 80079e4:	d009      	beq.n	80079fa <USBD_LL_DataInStage+0xde>
            {
              pdev->classId = 0U;
 80079e6:	68fb      	ldr	r3, [r7, #12]
 80079e8:	2200      	movs	r2, #0
 80079ea:	f8c3 22d4 	str.w	r2, [r3, #724]	@ 0x2d4
              pdev->pClass[0]->EP0_TxSent(pdev);
 80079ee:	68fb      	ldr	r3, [r7, #12]
 80079f0:	f8d3 32b8 	ldr.w	r3, [r3, #696]	@ 0x2b8
 80079f4:	68db      	ldr	r3, [r3, #12]
 80079f6:	68f8      	ldr	r0, [r7, #12]
 80079f8:	4798      	blx	r3
            }
          }
          (void)USBD_LL_StallEP(pdev, 0x80U);
 80079fa:	2180      	movs	r1, #128	@ 0x80
 80079fc:	68f8      	ldr	r0, [r7, #12]
 80079fe:	f001 fd41 	bl	8009484 <USBD_LL_StallEP>
          (void)USBD_CtlReceiveStatus(pdev);
 8007a02:	68f8      	ldr	r0, [r7, #12]
 8007a04:	f001 f8d2 	bl	8008bac <USBD_CtlReceiveStatus>
        }
      }
    }

    if (pdev->dev_test_mode != 0U)
 8007a08:	68fb      	ldr	r3, [r7, #12]
 8007a0a:	f893 32a0 	ldrb.w	r3, [r3, #672]	@ 0x2a0
 8007a0e:	2b00      	cmp	r3, #0
 8007a10:	d03a      	beq.n	8007a88 <USBD_LL_DataInStage+0x16c>
    {
      (void)USBD_RunTestMode(pdev);
 8007a12:	68f8      	ldr	r0, [r7, #12]
 8007a14:	f7ff fe30 	bl	8007678 <USBD_RunTestMode>
      pdev->dev_test_mode = 0U;
 8007a18:	68fb      	ldr	r3, [r7, #12]
 8007a1a:	2200      	movs	r2, #0
 8007a1c:	f883 22a0 	strb.w	r2, [r3, #672]	@ 0x2a0
 8007a20:	e032      	b.n	8007a88 <USBD_LL_DataInStage+0x16c>
    }
  }
  else
  {
    /* Get the class index relative to this interface */
    idx = USBD_CoreFindEP(pdev, ((uint8_t)epnum | 0x80U));
 8007a22:	7afb      	ldrb	r3, [r7, #11]
 8007a24:	f063 037f 	orn	r3, r3, #127	@ 0x7f
 8007a28:	b2db      	uxtb	r3, r3
 8007a2a:	4619      	mov	r1, r3
 8007a2c:	68f8      	ldr	r0, [r7, #12]
 8007a2e:	f000 f986 	bl	8007d3e <USBD_CoreFindEP>
 8007a32:	4603      	mov	r3, r0
 8007a34:	75fb      	strb	r3, [r7, #23]

    if (((uint16_t)idx != 0xFFU) && (idx < USBD_MAX_SUPPORTED_CLASS))
 8007a36:	7dfb      	ldrb	r3, [r7, #23]
 8007a38:	2bff      	cmp	r3, #255	@ 0xff
 8007a3a:	d025      	beq.n	8007a88 <USBD_LL_DataInStage+0x16c>
 8007a3c:	7dfb      	ldrb	r3, [r7, #23]
 8007a3e:	2b00      	cmp	r3, #0
 8007a40:	d122      	bne.n	8007a88 <USBD_LL_DataInStage+0x16c>
    {
      /* Call the class data out function to manage the request */
      if (pdev->dev_state == USBD_STATE_CONFIGURED)
 8007a42:	68fb      	ldr	r3, [r7, #12]
 8007a44:	f893 329c 	ldrb.w	r3, [r3, #668]	@ 0x29c
 8007a48:	b2db      	uxtb	r3, r3
 8007a4a:	2b03      	cmp	r3, #3
 8007a4c:	d11c      	bne.n	8007a88 <USBD_LL_DataInStage+0x16c>
      {
        if (pdev->pClass[idx]->DataIn != NULL)
 8007a4e:	7dfa      	ldrb	r2, [r7, #23]
 8007a50:	68fb      	ldr	r3, [r7, #12]
 8007a52:	32ae      	adds	r2, #174	@ 0xae
 8007a54:	f853 3022 	ldr.w	r3, [r3, r2, lsl #2]
 8007a58:	695b      	ldr	r3, [r3, #20]
 8007a5a:	2b00      	cmp	r3, #0
 8007a5c:	d014      	beq.n	8007a88 <USBD_LL_DataInStage+0x16c>
        {
          pdev->classId = idx;
 8007a5e:	7dfa      	ldrb	r2, [r7, #23]
 8007a60:	68fb      	ldr	r3, [r7, #12]
 8007a62:	f8c3 22d4 	str.w	r2, [r3, #724]	@ 0x2d4
          ret = (USBD_StatusTypeDef)pdev->pClass[idx]->DataIn(pdev, epnum);
 8007a66:	7dfa      	ldrb	r2, [r7, #23]
 8007a68:	68fb      	ldr	r3, [r7, #12]
 8007a6a:	32ae      	adds	r2, #174	@ 0xae
 8007a6c:	f853 3022 	ldr.w	r3, [r3, r2, lsl #2]
 8007a70:	695b      	ldr	r3, [r3, #20]
 8007a72:	7afa      	ldrb	r2, [r7, #11]
 8007a74:	4611      	mov	r1, r2
 8007a76:	68f8      	ldr	r0, [r7, #12]
 8007a78:	4798      	blx	r3
 8007a7a:	4603      	mov	r3, r0
 8007a7c:	75bb      	strb	r3, [r7, #22]

          if (ret != USBD_OK)
 8007a7e:	7dbb      	ldrb	r3, [r7, #22]
 8007a80:	2b00      	cmp	r3, #0
 8007a82:	d001      	beq.n	8007a88 <USBD_LL_DataInStage+0x16c>
          {
            return ret;
 8007a84:	7dbb      	ldrb	r3, [r7, #22]
 8007a86:	e000      	b.n	8007a8a <USBD_LL_DataInStage+0x16e>
        }
      }
    }
  }

  return USBD_OK;
 8007a88:	2300      	movs	r3, #0
}
 8007a8a:	4618      	mov	r0, r3
 8007a8c:	3718      	adds	r7, #24
 8007a8e:	46bd      	mov	sp, r7
 8007a90:	bd80      	pop	{r7, pc}

08007a92 <USBD_LL_Reset>:
  *         Handle Reset event
  * @param  pdev: device instance
  * @retval status
  */
USBD_StatusTypeDef USBD_LL_Reset(USBD_HandleTypeDef *pdev)
{
 8007a92:	b580      	push	{r7, lr}
 8007a94:	b084      	sub	sp, #16
 8007a96:	af00      	add	r7, sp, #0
 8007a98:	6078      	str	r0, [r7, #4]
  USBD_StatusTypeDef ret = USBD_OK;
 8007a9a:	2300      	movs	r3, #0
 8007a9c:	73fb      	strb	r3, [r7, #15]

  /* Upon Reset call user call back */
  pdev->dev_state = USBD_STATE_DEFAULT;
 8007a9e:	687b      	ldr	r3, [r7, #4]
 8007aa0:	2201      	movs	r2, #1
 8007aa2:	f883 229c 	strb.w	r2, [r3, #668]	@ 0x29c
  pdev->ep0_state = USBD_EP0_IDLE;
 8007aa6:	687b      	ldr	r3, [r7, #4]
 8007aa8:	2200      	movs	r2, #0
 8007aaa:	f8c3 2294 	str.w	r2, [r3, #660]	@ 0x294
  pdev->dev_config = 0U;
 8007aae:	687b      	ldr	r3, [r7, #4]
 8007ab0:	2200      	movs	r2, #0
 8007ab2:	605a      	str	r2, [r3, #4]
  pdev->dev_remote_wakeup = 0U;
 8007ab4:	687b      	ldr	r3, [r7, #4]
 8007ab6:	2200      	movs	r2, #0
 8007ab8:	f8c3 22a4 	str.w	r2, [r3, #676]	@ 0x2a4
  pdev->dev_test_mode = 0U;
 8007abc:	687b      	ldr	r3, [r7, #4]
 8007abe:	2200      	movs	r2, #0
 8007ac0:	f883 22a0 	strb.w	r2, [r3, #672]	@ 0x2a0
      }
    }
  }
#else

  if (pdev->pClass[0] != NULL)
 8007ac4:	687b      	ldr	r3, [r7, #4]
 8007ac6:	f8d3 32b8 	ldr.w	r3, [r3, #696]	@ 0x2b8
 8007aca:	2b00      	cmp	r3, #0
 8007acc:	d014      	beq.n	8007af8 <USBD_LL_Reset+0x66>
  {
    if (pdev->pClass[0]->DeInit != NULL)
 8007ace:	687b      	ldr	r3, [r7, #4]
 8007ad0:	f8d3 32b8 	ldr.w	r3, [r3, #696]	@ 0x2b8
 8007ad4:	685b      	ldr	r3, [r3, #4]
 8007ad6:	2b00      	cmp	r3, #0
 8007ad8:	d00e      	beq.n	8007af8 <USBD_LL_Reset+0x66>
    {
      if (pdev->pClass[0]->DeInit(pdev, (uint8_t)pdev->dev_config) != USBD_OK)
 8007ada:	687b      	ldr	r3, [r7, #4]
 8007adc:	f8d3 32b8 	ldr.w	r3, [r3, #696]	@ 0x2b8
 8007ae0:	685b      	ldr	r3, [r3, #4]
 8007ae2:	687a      	ldr	r2, [r7, #4]
 8007ae4:	6852      	ldr	r2, [r2, #4]
 8007ae6:	b2d2      	uxtb	r2, r2
 8007ae8:	4611      	mov	r1, r2
 8007aea:	6878      	ldr	r0, [r7, #4]
 8007aec:	4798      	blx	r3
 8007aee:	4603      	mov	r3, r0
 8007af0:	2b00      	cmp	r3, #0
 8007af2:	d001      	beq.n	8007af8 <USBD_LL_Reset+0x66>
      {
        ret = USBD_FAIL;
 8007af4:	2303      	movs	r3, #3
 8007af6:	73fb      	strb	r3, [r7, #15]
    }
  }
#endif /* USE_USBD_COMPOSITE */

  /* Open EP0 OUT */
  (void)USBD_LL_OpenEP(pdev, 0x00U, USBD_EP_TYPE_CTRL, USB_MAX_EP0_SIZE);
 8007af8:	2340      	movs	r3, #64	@ 0x40
 8007afa:	2200      	movs	r2, #0
 8007afc:	2100      	movs	r1, #0
 8007afe:	6878      	ldr	r0, [r7, #4]
 8007b00:	f001 fc7b 	bl	80093fa <USBD_LL_OpenEP>
  pdev->ep_out[0x00U & 0xFU].is_used = 1U;
 8007b04:	687b      	ldr	r3, [r7, #4]
 8007b06:	2201      	movs	r2, #1
 8007b08:	f883 2163 	strb.w	r2, [r3, #355]	@ 0x163

  pdev->ep_out[0].maxpacket = USB_MAX_EP0_SIZE;
 8007b0c:	687b      	ldr	r3, [r7, #4]
 8007b0e:	2240      	movs	r2, #64	@ 0x40
 8007b10:	f8a3 2160 	strh.w	r2, [r3, #352]	@ 0x160

  /* Open EP0 IN */
  (void)USBD_LL_OpenEP(pdev, 0x80U, USBD_EP_TYPE_CTRL, USB_MAX_EP0_SIZE);
 8007b14:	2340      	movs	r3, #64	@ 0x40
 8007b16:	2200      	movs	r2, #0
 8007b18:	2180      	movs	r1, #128	@ 0x80
 8007b1a:	6878      	ldr	r0, [r7, #4]
 8007b1c:	f001 fc6d 	bl	80093fa <USBD_LL_OpenEP>
  pdev->ep_in[0x80U & 0xFU].is_used = 1U;
 8007b20:	687b      	ldr	r3, [r7, #4]
 8007b22:	2201      	movs	r2, #1
 8007b24:	f883 2023 	strb.w	r2, [r3, #35]	@ 0x23

  pdev->ep_in[0].maxpacket = USB_MAX_EP0_SIZE;
 8007b28:	687b      	ldr	r3, [r7, #4]
 8007b2a:	2240      	movs	r2, #64	@ 0x40
 8007b2c:	841a      	strh	r2, [r3, #32]

  return ret;
 8007b2e:	7bfb      	ldrb	r3, [r7, #15]
}
 8007b30:	4618      	mov	r0, r3
 8007b32:	3710      	adds	r7, #16
 8007b34:	46bd      	mov	sp, r7
 8007b36:	bd80      	pop	{r7, pc}

08007b38 <USBD_LL_SetSpeed>:
  * @param  pdev: device instance
  * @retval status
  */
USBD_StatusTypeDef USBD_LL_SetSpeed(USBD_HandleTypeDef *pdev,
                                    USBD_SpeedTypeDef speed)
{
 8007b38:	b480      	push	{r7}
 8007b3a:	b083      	sub	sp, #12
 8007b3c:	af00      	add	r7, sp, #0
 8007b3e:	6078      	str	r0, [r7, #4]
 8007b40:	460b      	mov	r3, r1
 8007b42:	70fb      	strb	r3, [r7, #3]
  pdev->dev_speed = speed;
 8007b44:	687b      	ldr	r3, [r7, #4]
 8007b46:	78fa      	ldrb	r2, [r7, #3]
 8007b48:	741a      	strb	r2, [r3, #16]

  return USBD_OK;
 8007b4a:	2300      	movs	r3, #0
}
 8007b4c:	4618      	mov	r0, r3
 8007b4e:	370c      	adds	r7, #12
 8007b50:	46bd      	mov	sp, r7
 8007b52:	f85d 7b04 	ldr.w	r7, [sp], #4
 8007b56:	4770      	bx	lr

08007b58 <USBD_LL_Suspend>:
  *         Handle Suspend event
  * @param  pdev: device instance
  * @retval status
  */
USBD_StatusTypeDef USBD_LL_Suspend(USBD_HandleTypeDef *pdev)
{
 8007b58:	b480      	push	{r7}
 8007b5a:	b083      	sub	sp, #12
 8007b5c:	af00      	add	r7, sp, #0
 8007b5e:	6078      	str	r0, [r7, #4]
  if (pdev->dev_state != USBD_STATE_SUSPENDED)
 8007b60:	687b      	ldr	r3, [r7, #4]
 8007b62:	f893 329c 	ldrb.w	r3, [r3, #668]	@ 0x29c
 8007b66:	b2db      	uxtb	r3, r3
 8007b68:	2b04      	cmp	r3, #4
 8007b6a:	d006      	beq.n	8007b7a <USBD_LL_Suspend+0x22>
  {
    pdev->dev_old_state = pdev->dev_state;
 8007b6c:	687b      	ldr	r3, [r7, #4]
 8007b6e:	f893 329c 	ldrb.w	r3, [r3, #668]	@ 0x29c
 8007b72:	b2da      	uxtb	r2, r3
 8007b74:	687b      	ldr	r3, [r7, #4]
 8007b76:	f883 229d 	strb.w	r2, [r3, #669]	@ 0x29d
  }

  pdev->dev_state = USBD_STATE_SUSPENDED;
 8007b7a:	687b      	ldr	r3, [r7, #4]
 8007b7c:	2204      	movs	r2, #4
 8007b7e:	f883 229c 	strb.w	r2, [r3, #668]	@ 0x29c

  return USBD_OK;
 8007b82:	2300      	movs	r3, #0
}
 8007b84:	4618      	mov	r0, r3
 8007b86:	370c      	adds	r7, #12
 8007b88:	46bd      	mov	sp, r7
 8007b8a:	f85d 7b04 	ldr.w	r7, [sp], #4
 8007b8e:	4770      	bx	lr

08007b90 <USBD_LL_Resume>:
  *         Handle Resume event
  * @param  pdev: device instance
  * @retval status
  */
USBD_StatusTypeDef USBD_LL_Resume(USBD_HandleTypeDef *pdev)
{
 8007b90:	b480      	push	{r7}
 8007b92:	b083      	sub	sp, #12
 8007b94:	af00      	add	r7, sp, #0
 8007b96:	6078      	str	r0, [r7, #4]
  if (pdev->dev_state == USBD_STATE_SUSPENDED)
 8007b98:	687b      	ldr	r3, [r7, #4]
 8007b9a:	f893 329c 	ldrb.w	r3, [r3, #668]	@ 0x29c
 8007b9e:	b2db      	uxtb	r3, r3
 8007ba0:	2b04      	cmp	r3, #4
 8007ba2:	d106      	bne.n	8007bb2 <USBD_LL_Resume+0x22>
  {
    pdev->dev_state = pdev->dev_old_state;
 8007ba4:	687b      	ldr	r3, [r7, #4]
 8007ba6:	f893 329d 	ldrb.w	r3, [r3, #669]	@ 0x29d
 8007baa:	b2da      	uxtb	r2, r3
 8007bac:	687b      	ldr	r3, [r7, #4]
 8007bae:	f883 229c 	strb.w	r2, [r3, #668]	@ 0x29c
  }

  return USBD_OK;
 8007bb2:	2300      	movs	r3, #0
}
 8007bb4:	4618      	mov	r0, r3
 8007bb6:	370c      	adds	r7, #12
 8007bb8:	46bd      	mov	sp, r7
 8007bba:	f85d 7b04 	ldr.w	r7, [sp], #4
 8007bbe:	4770      	bx	lr

08007bc0 <USBD_LL_SOF>:
  *         Handle SOF event
  * @param  pdev: device instance
  * @retval status
  */
USBD_StatusTypeDef USBD_LL_SOF(USBD_HandleTypeDef *pdev)
{
 8007bc0:	b580      	push	{r7, lr}
 8007bc2:	b082      	sub	sp, #8
 8007bc4:	af00      	add	r7, sp, #0
 8007bc6:	6078      	str	r0, [r7, #4]
  /* The SOF event can be distributed for all classes that support it */
  if (pdev->dev_state == USBD_STATE_CONFIGURED)
 8007bc8:	687b      	ldr	r3, [r7, #4]
 8007bca:	f893 329c 	ldrb.w	r3, [r3, #668]	@ 0x29c
 8007bce:	b2db      	uxtb	r3, r3
 8007bd0:	2b03      	cmp	r3, #3
 8007bd2:	d110      	bne.n	8007bf6 <USBD_LL_SOF+0x36>
          }
        }
      }
    }
#else
    if (pdev->pClass[0] != NULL)
 8007bd4:	687b      	ldr	r3, [r7, #4]
 8007bd6:	f8d3 32b8 	ldr.w	r3, [r3, #696]	@ 0x2b8
 8007bda:	2b00      	cmp	r3, #0
 8007bdc:	d00b      	beq.n	8007bf6 <USBD_LL_SOF+0x36>
    {
      if (pdev->pClass[0]->SOF != NULL)
 8007bde:	687b      	ldr	r3, [r7, #4]
 8007be0:	f8d3 32b8 	ldr.w	r3, [r3, #696]	@ 0x2b8
 8007be4:	69db      	ldr	r3, [r3, #28]
 8007be6:	2b00      	cmp	r3, #0
 8007be8:	d005      	beq.n	8007bf6 <USBD_LL_SOF+0x36>
      {
        (void)pdev->pClass[0]->SOF(pdev);
 8007bea:	687b      	ldr	r3, [r7, #4]
 8007bec:	f8d3 32b8 	ldr.w	r3, [r3, #696]	@ 0x2b8
 8007bf0:	69db      	ldr	r3, [r3, #28]
 8007bf2:	6878      	ldr	r0, [r7, #4]
 8007bf4:	4798      	blx	r3
      }
    }
#endif /* USE_USBD_COMPOSITE */
  }

  return USBD_OK;
 8007bf6:	2300      	movs	r3, #0
}
 8007bf8:	4618      	mov	r0, r3
 8007bfa:	3708      	adds	r7, #8
 8007bfc:	46bd      	mov	sp, r7
 8007bfe:	bd80      	pop	{r7, pc}

08007c00 <USBD_LL_IsoINIncomplete>:
  * @param  epnum: Endpoint number
  * @retval status
  */
USBD_StatusTypeDef USBD_LL_IsoINIncomplete(USBD_HandleTypeDef *pdev,
                                           uint8_t epnum)
{
 8007c00:	b580      	push	{r7, lr}
 8007c02:	b082      	sub	sp, #8
 8007c04:	af00      	add	r7, sp, #0
 8007c06:	6078      	str	r0, [r7, #4]
 8007c08:	460b      	mov	r3, r1
 8007c0a:	70fb      	strb	r3, [r7, #3]
  if (pdev->pClass[pdev->classId] == NULL)
 8007c0c:	687b      	ldr	r3, [r7, #4]
 8007c0e:	f8d3 22d4 	ldr.w	r2, [r3, #724]	@ 0x2d4
 8007c12:	687b      	ldr	r3, [r7, #4]
 8007c14:	32ae      	adds	r2, #174	@ 0xae
 8007c16:	f853 3022 	ldr.w	r3, [r3, r2, lsl #2]
 8007c1a:	2b00      	cmp	r3, #0
 8007c1c:	d101      	bne.n	8007c22 <USBD_LL_IsoINIncomplete+0x22>
  {
    return USBD_FAIL;
 8007c1e:	2303      	movs	r3, #3
 8007c20:	e01c      	b.n	8007c5c <USBD_LL_IsoINIncomplete+0x5c>
  }

  if (pdev->dev_state == USBD_STATE_CONFIGURED)
 8007c22:	687b      	ldr	r3, [r7, #4]
 8007c24:	f893 329c 	ldrb.w	r3, [r3, #668]	@ 0x29c
 8007c28:	b2db      	uxtb	r3, r3
 8007c2a:	2b03      	cmp	r3, #3
 8007c2c:	d115      	bne.n	8007c5a <USBD_LL_IsoINIncomplete+0x5a>
  {
    if (pdev->pClass[pdev->classId]->IsoINIncomplete != NULL)
 8007c2e:	687b      	ldr	r3, [r7, #4]
 8007c30:	f8d3 22d4 	ldr.w	r2, [r3, #724]	@ 0x2d4
 8007c34:	687b      	ldr	r3, [r7, #4]
 8007c36:	32ae      	adds	r2, #174	@ 0xae
 8007c38:	f853 3022 	ldr.w	r3, [r3, r2, lsl #2]
 8007c3c:	6a1b      	ldr	r3, [r3, #32]
 8007c3e:	2b00      	cmp	r3, #0
 8007c40:	d00b      	beq.n	8007c5a <USBD_LL_IsoINIncomplete+0x5a>
    {
      (void)pdev->pClass[pdev->classId]->IsoINIncomplete(pdev, epnum);
 8007c42:	687b      	ldr	r3, [r7, #4]
 8007c44:	f8d3 22d4 	ldr.w	r2, [r3, #724]	@ 0x2d4
 8007c48:	687b      	ldr	r3, [r7, #4]
 8007c4a:	32ae      	adds	r2, #174	@ 0xae
 8007c4c:	f853 3022 	ldr.w	r3, [r3, r2, lsl #2]
 8007c50:	6a1b      	ldr	r3, [r3, #32]
 8007c52:	78fa      	ldrb	r2, [r7, #3]
 8007c54:	4611      	mov	r1, r2
 8007c56:	6878      	ldr	r0, [r7, #4]
 8007c58:	4798      	blx	r3
    }
  }

  return USBD_OK;
 8007c5a:	2300      	movs	r3, #0
}
 8007c5c:	4618      	mov	r0, r3
 8007c5e:	3708      	adds	r7, #8
 8007c60:	46bd      	mov	sp, r7
 8007c62:	bd80      	pop	{r7, pc}

08007c64 <USBD_LL_IsoOUTIncomplete>:
  * @param  epnum: Endpoint number
  * @retval status
  */
USBD_StatusTypeDef USBD_LL_IsoOUTIncomplete(USBD_HandleTypeDef *pdev,
                                            uint8_t epnum)
{
 8007c64:	b580      	push	{r7, lr}
 8007c66:	b082      	sub	sp, #8
 8007c68:	af00      	add	r7, sp, #0
 8007c6a:	6078      	str	r0, [r7, #4]
 8007c6c:	460b      	mov	r3, r1
 8007c6e:	70fb      	strb	r3, [r7, #3]
  if (pdev->pClass[pdev->classId] == NULL)
 8007c70:	687b      	ldr	r3, [r7, #4]
 8007c72:	f8d3 22d4 	ldr.w	r2, [r3, #724]	@ 0x2d4
 8007c76:	687b      	ldr	r3, [r7, #4]
 8007c78:	32ae      	adds	r2, #174	@ 0xae
 8007c7a:	f853 3022 	ldr.w	r3, [r3, r2, lsl #2]
 8007c7e:	2b00      	cmp	r3, #0
 8007c80:	d101      	bne.n	8007c86 <USBD_LL_IsoOUTIncomplete+0x22>
  {
    return USBD_FAIL;
 8007c82:	2303      	movs	r3, #3
 8007c84:	e01c      	b.n	8007cc0 <USBD_LL_IsoOUTIncomplete+0x5c>
  }

  if (pdev->dev_state == USBD_STATE_CONFIGURED)
 8007c86:	687b      	ldr	r3, [r7, #4]
 8007c88:	f893 329c 	ldrb.w	r3, [r3, #668]	@ 0x29c
 8007c8c:	b2db      	uxtb	r3, r3
 8007c8e:	2b03      	cmp	r3, #3
 8007c90:	d115      	bne.n	8007cbe <USBD_LL_IsoOUTIncomplete+0x5a>
  {
    if (pdev->pClass[pdev->classId]->IsoOUTIncomplete != NULL)
 8007c92:	687b      	ldr	r3, [r7, #4]
 8007c94:	f8d3 22d4 	ldr.w	r2, [r3, #724]	@ 0x2d4
 8007c98:	687b      	ldr	r3, [r7, #4]
 8007c9a:	32ae      	adds	r2, #174	@ 0xae
 8007c9c:	f853 3022 	ldr.w	r3, [r3, r2, lsl #2]
 8007ca0:	6a5b      	ldr	r3, [r3, #36]	@ 0x24
 8007ca2:	2b00      	cmp	r3, #0
 8007ca4:	d00b      	beq.n	8007cbe <USBD_LL_IsoOUTIncomplete+0x5a>
    {
      (void)pdev->pClass[pdev->classId]->IsoOUTIncomplete(pdev, epnum);
 8007ca6:	687b      	ldr	r3, [r7, #4]
 8007ca8:	f8d3 22d4 	ldr.w	r2, [r3, #724]	@ 0x2d4
 8007cac:	687b      	ldr	r3, [r7, #4]
 8007cae:	32ae      	adds	r2, #174	@ 0xae
 8007cb0:	f853 3022 	ldr.w	r3, [r3, r2, lsl #2]
 8007cb4:	6a5b      	ldr	r3, [r3, #36]	@ 0x24
 8007cb6:	78fa      	ldrb	r2, [r7, #3]
 8007cb8:	4611      	mov	r1, r2
 8007cba:	6878      	ldr	r0, [r7, #4]
 8007cbc:	4798      	blx	r3
    }
  }

  return USBD_OK;
 8007cbe:	2300      	movs	r3, #0
}
 8007cc0:	4618      	mov	r0, r3
 8007cc2:	3708      	adds	r7, #8
 8007cc4:	46bd      	mov	sp, r7
 8007cc6:	bd80      	pop	{r7, pc}

08007cc8 <USBD_LL_DevConnected>:
  *         Handle device connection event
  * @param  pdev: device instance
  * @retval status
  */
USBD_StatusTypeDef USBD_LL_DevConnected(USBD_HandleTypeDef *pdev)
{
 8007cc8:	b480      	push	{r7}
 8007cca:	b083      	sub	sp, #12
 8007ccc:	af00      	add	r7, sp, #0
 8007cce:	6078      	str	r0, [r7, #4]
  /* Prevent unused argument compilation warning */
  UNUSED(pdev);

  return USBD_OK;
 8007cd0:	2300      	movs	r3, #0
}
 8007cd2:	4618      	mov	r0, r3
 8007cd4:	370c      	adds	r7, #12
 8007cd6:	46bd      	mov	sp, r7
 8007cd8:	f85d 7b04 	ldr.w	r7, [sp], #4
 8007cdc:	4770      	bx	lr

08007cde <USBD_LL_DevDisconnected>:
  *         Handle device disconnection event
  * @param  pdev: device instance
  * @retval status
  */
USBD_StatusTypeDef USBD_LL_DevDisconnected(USBD_HandleTypeDef *pdev)
{
 8007cde:	b580      	push	{r7, lr}
 8007ce0:	b084      	sub	sp, #16
 8007ce2:	af00      	add	r7, sp, #0
 8007ce4:	6078      	str	r0, [r7, #4]
  USBD_StatusTypeDef   ret = USBD_OK;
 8007ce6:	2300      	movs	r3, #0
 8007ce8:	73fb      	strb	r3, [r7, #15]

  /* Free Class Resources */
  pdev->dev_state = USBD_STATE_DEFAULT;
 8007cea:	687b      	ldr	r3, [r7, #4]
 8007cec:	2201      	movs	r2, #1
 8007cee:	f883 229c 	strb.w	r2, [r3, #668]	@ 0x29c
        }
      }
    }
  }
#else
  if (pdev->pClass[0] != NULL)
 8007cf2:	687b      	ldr	r3, [r7, #4]
 8007cf4:	f8d3 32b8 	ldr.w	r3, [r3, #696]	@ 0x2b8
 8007cf8:	2b00      	cmp	r3, #0
 8007cfa:	d00e      	beq.n	8007d1a <USBD_LL_DevDisconnected+0x3c>
  {
    if (pdev->pClass[0]->DeInit(pdev, (uint8_t)pdev->dev_config) != 0U)
 8007cfc:	687b      	ldr	r3, [r7, #4]
 8007cfe:	f8d3 32b8 	ldr.w	r3, [r3, #696]	@ 0x2b8
 8007d02:	685b      	ldr	r3, [r3, #4]
 8007d04:	687a      	ldr	r2, [r7, #4]
 8007d06:	6852      	ldr	r2, [r2, #4]
 8007d08:	b2d2      	uxtb	r2, r2
 8007d0a:	4611      	mov	r1, r2
 8007d0c:	6878      	ldr	r0, [r7, #4]
 8007d0e:	4798      	blx	r3
 8007d10:	4603      	mov	r3, r0
 8007d12:	2b00      	cmp	r3, #0
 8007d14:	d001      	beq.n	8007d1a <USBD_LL_DevDisconnected+0x3c>
    {
      ret = USBD_FAIL;
 8007d16:	2303      	movs	r3, #3
 8007d18:	73fb      	strb	r3, [r7, #15]
    }
  }
#endif /* USE_USBD_COMPOSITE */

  return ret;
 8007d1a:	7bfb      	ldrb	r3, [r7, #15]
}
 8007d1c:	4618      	mov	r0, r3
 8007d1e:	3710      	adds	r7, #16
 8007d20:	46bd      	mov	sp, r7
 8007d22:	bd80      	pop	{r7, pc}

08007d24 <USBD_CoreFindIF>:
  * @param  pdev: device instance
  * @param  index : selected interface number
  * @retval index of the class using the selected interface number. OxFF if no class found.
  */
uint8_t USBD_CoreFindIF(USBD_HandleTypeDef *pdev, uint8_t index)
{
 8007d24:	b480      	push	{r7}
 8007d26:	b083      	sub	sp, #12
 8007d28:	af00      	add	r7, sp, #0
 8007d2a:	6078      	str	r0, [r7, #4]
 8007d2c:	460b      	mov	r3, r1
 8007d2e:	70fb      	strb	r3, [r7, #3]
  return 0xFFU;
#else
  UNUSED(pdev);
  UNUSED(index);

  return 0x00U;
 8007d30:	2300      	movs	r3, #0
#endif /* USE_USBD_COMPOSITE */
}
 8007d32:	4618      	mov	r0, r3
 8007d34:	370c      	adds	r7, #12
 8007d36:	46bd      	mov	sp, r7
 8007d38:	f85d 7b04 	ldr.w	r7, [sp], #4
 8007d3c:	4770      	bx	lr

08007d3e <USBD_CoreFindEP>:
  * @param  pdev: device instance
  * @param  index : selected endpoint number
  * @retval index of the class using the selected endpoint number. 0xFF if no class found.
  */
uint8_t USBD_CoreFindEP(USBD_HandleTypeDef *pdev, uint8_t index)
{
 8007d3e:	b480      	push	{r7}
 8007d40:	b083      	sub	sp, #12
 8007d42:	af00      	add	r7, sp, #0
 8007d44:	6078      	str	r0, [r7, #4]
 8007d46:	460b      	mov	r3, r1
 8007d48:	70fb      	strb	r3, [r7, #3]
  return 0xFFU;
#else
  UNUSED(pdev);
  UNUSED(index);

  return 0x00U;
 8007d4a:	2300      	movs	r3, #0
#endif /* USE_USBD_COMPOSITE */
}
 8007d4c:	4618      	mov	r0, r3
 8007d4e:	370c      	adds	r7, #12
 8007d50:	46bd      	mov	sp, r7
 8007d52:	f85d 7b04 	ldr.w	r7, [sp], #4
 8007d56:	4770      	bx	lr

08007d58 <USBD_GetEpDesc>:
  * @param  pConfDesc:  pointer to Bos descriptor
  * @param  EpAddr:  endpoint address
  * @retval pointer to video endpoint descriptor
  */
void *USBD_GetEpDesc(uint8_t *pConfDesc, uint8_t EpAddr)
{
 8007d58:	b580      	push	{r7, lr}
 8007d5a:	b086      	sub	sp, #24
 8007d5c:	af00      	add	r7, sp, #0
 8007d5e:	6078      	str	r0, [r7, #4]
 8007d60:	460b      	mov	r3, r1
 8007d62:	70fb      	strb	r3, [r7, #3]
  USBD_DescHeaderTypeDef *pdesc = (USBD_DescHeaderTypeDef *)(void *)pConfDesc;
 8007d64:	687b      	ldr	r3, [r7, #4]
 8007d66:	617b      	str	r3, [r7, #20]
  USBD_ConfigDescTypeDef *desc = (USBD_ConfigDescTypeDef *)(void *)pConfDesc;
 8007d68:	687b      	ldr	r3, [r7, #4]
 8007d6a:	60fb      	str	r3, [r7, #12]
  USBD_EpDescTypeDef *pEpDesc = NULL;
 8007d6c:	2300      	movs	r3, #0
 8007d6e:	613b      	str	r3, [r7, #16]
  uint16_t ptr;

  if (desc->wTotalLength > desc->bLength)
 8007d70:	68fb      	ldr	r3, [r7, #12]
 8007d72:	885b      	ldrh	r3, [r3, #2]
 8007d74:	b29b      	uxth	r3, r3
 8007d76:	68fa      	ldr	r2, [r7, #12]
 8007d78:	7812      	ldrb	r2, [r2, #0]
 8007d7a:	4293      	cmp	r3, r2
 8007d7c:	d91f      	bls.n	8007dbe <USBD_GetEpDesc+0x66>
  {
    ptr = desc->bLength;
 8007d7e:	68fb      	ldr	r3, [r7, #12]
 8007d80:	781b      	ldrb	r3, [r3, #0]
 8007d82:	817b      	strh	r3, [r7, #10]

    while (ptr < desc->wTotalLength)
 8007d84:	e013      	b.n	8007dae <USBD_GetEpDesc+0x56>
    {
      pdesc = USBD_GetNextDesc((uint8_t *)pdesc, &ptr);
 8007d86:	f107 030a 	add.w	r3, r7, #10
 8007d8a:	4619      	mov	r1, r3
 8007d8c:	6978      	ldr	r0, [r7, #20]
 8007d8e:	f000 f81b 	bl	8007dc8 <USBD_GetNextDesc>
 8007d92:	6178      	str	r0, [r7, #20]

      if (pdesc->bDescriptorType == USB_DESC_TYPE_ENDPOINT)
 8007d94:	697b      	ldr	r3, [r7, #20]
 8007d96:	785b      	ldrb	r3, [r3, #1]
 8007d98:	2b05      	cmp	r3, #5
 8007d9a:	d108      	bne.n	8007dae <USBD_GetEpDesc+0x56>
      {
        pEpDesc = (USBD_EpDescTypeDef *)(void *)pdesc;
 8007d9c:	697b      	ldr	r3, [r7, #20]
 8007d9e:	613b      	str	r3, [r7, #16]

        if (pEpDesc->bEndpointAddress == EpAddr)
 8007da0:	693b      	ldr	r3, [r7, #16]
 8007da2:	789b      	ldrb	r3, [r3, #2]
 8007da4:	78fa      	ldrb	r2, [r7, #3]
 8007da6:	429a      	cmp	r2, r3
 8007da8:	d008      	beq.n	8007dbc <USBD_GetEpDesc+0x64>
        {
          break;
        }
        else
        {
          pEpDesc = NULL;
 8007daa:	2300      	movs	r3, #0
 8007dac:	613b      	str	r3, [r7, #16]
    while (ptr < desc->wTotalLength)
 8007dae:	68fb      	ldr	r3, [r7, #12]
 8007db0:	885b      	ldrh	r3, [r3, #2]
 8007db2:	b29a      	uxth	r2, r3
 8007db4:	897b      	ldrh	r3, [r7, #10]
 8007db6:	429a      	cmp	r2, r3
 8007db8:	d8e5      	bhi.n	8007d86 <USBD_GetEpDesc+0x2e>
 8007dba:	e000      	b.n	8007dbe <USBD_GetEpDesc+0x66>
          break;
 8007dbc:	bf00      	nop
        }
      }
    }
  }

  return (void *)pEpDesc;
 8007dbe:	693b      	ldr	r3, [r7, #16]
}
 8007dc0:	4618      	mov	r0, r3
 8007dc2:	3718      	adds	r7, #24
 8007dc4:	46bd      	mov	sp, r7
 8007dc6:	bd80      	pop	{r7, pc}

08007dc8 <USBD_GetNextDesc>:
  * @param  buf: Buffer where the descriptor is available
  * @param  ptr: data pointer inside the descriptor
  * @retval next header
  */
USBD_DescHeaderTypeDef *USBD_GetNextDesc(uint8_t *pbuf, uint16_t *ptr)
{
 8007dc8:	b480      	push	{r7}
 8007dca:	b085      	sub	sp, #20
 8007dcc:	af00      	add	r7, sp, #0
 8007dce:	6078      	str	r0, [r7, #4]
 8007dd0:	6039      	str	r1, [r7, #0]
  USBD_DescHeaderTypeDef *pnext = (USBD_DescHeaderTypeDef *)(void *)pbuf;
 8007dd2:	687b      	ldr	r3, [r7, #4]
 8007dd4:	60fb      	str	r3, [r7, #12]

  *ptr += pnext->bLength;
 8007dd6:	683b      	ldr	r3, [r7, #0]
 8007dd8:	881b      	ldrh	r3, [r3, #0]
 8007dda:	68fa      	ldr	r2, [r7, #12]
 8007ddc:	7812      	ldrb	r2, [r2, #0]
 8007dde:	4413      	add	r3, r2
 8007de0:	b29a      	uxth	r2, r3
 8007de2:	683b      	ldr	r3, [r7, #0]
 8007de4:	801a      	strh	r2, [r3, #0]
  pnext = (USBD_DescHeaderTypeDef *)(void *)(pbuf + pnext->bLength);
 8007de6:	68fb      	ldr	r3, [r7, #12]
 8007de8:	781b      	ldrb	r3, [r3, #0]
 8007dea:	461a      	mov	r2, r3
 8007dec:	687b      	ldr	r3, [r7, #4]
 8007dee:	4413      	add	r3, r2
 8007df0:	60fb      	str	r3, [r7, #12]

  return (pnext);
 8007df2:	68fb      	ldr	r3, [r7, #12]
}
 8007df4:	4618      	mov	r0, r3
 8007df6:	3714      	adds	r7, #20
 8007df8:	46bd      	mov	sp, r7
 8007dfa:	f85d 7b04 	ldr.w	r7, [sp], #4
 8007dfe:	4770      	bx	lr

08007e00 <SWAPBYTE>:

/** @defgroup USBD_DEF_Exported_Macros
  * @{
  */
__STATIC_INLINE uint16_t SWAPBYTE(uint8_t *addr)
{
 8007e00:	b480      	push	{r7}
 8007e02:	b087      	sub	sp, #28
 8007e04:	af00      	add	r7, sp, #0
 8007e06:	6078      	str	r0, [r7, #4]
  uint16_t _SwapVal;
  uint16_t _Byte1;
  uint16_t _Byte2;
  uint8_t *_pbuff = addr;
 8007e08:	687b      	ldr	r3, [r7, #4]
 8007e0a:	617b      	str	r3, [r7, #20]

  _Byte1 = *(uint8_t *)_pbuff;
 8007e0c:	697b      	ldr	r3, [r7, #20]
 8007e0e:	781b      	ldrb	r3, [r3, #0]
 8007e10:	827b      	strh	r3, [r7, #18]
  _pbuff++;
 8007e12:	697b      	ldr	r3, [r7, #20]
 8007e14:	3301      	adds	r3, #1
 8007e16:	617b      	str	r3, [r7, #20]
  _Byte2 = *(uint8_t *)_pbuff;
 8007e18:	697b      	ldr	r3, [r7, #20]
 8007e1a:	781b      	ldrb	r3, [r3, #0]
 8007e1c:	823b      	strh	r3, [r7, #16]

  _SwapVal = (_Byte2 << 8) | _Byte1;
 8007e1e:	f9b7 3010 	ldrsh.w	r3, [r7, #16]
 8007e22:	021b      	lsls	r3, r3, #8
 8007e24:	b21a      	sxth	r2, r3
 8007e26:	f9b7 3012 	ldrsh.w	r3, [r7, #18]
 8007e2a:	4313      	orrs	r3, r2
 8007e2c:	b21b      	sxth	r3, r3
 8007e2e:	81fb      	strh	r3, [r7, #14]

  return _SwapVal;
 8007e30:	89fb      	ldrh	r3, [r7, #14]
}
 8007e32:	4618      	mov	r0, r3
 8007e34:	371c      	adds	r7, #28
 8007e36:	46bd      	mov	sp, r7
 8007e38:	f85d 7b04 	ldr.w	r7, [sp], #4
 8007e3c:	4770      	bx	lr
	...

08007e40 <USBD_StdDevReq>:
  * @param  pdev: device instance
  * @param  req: usb request
  * @retval status
  */
USBD_StatusTypeDef USBD_StdDevReq(USBD_HandleTypeDef *pdev, USBD_SetupReqTypedef *req)
{
 8007e40:	b580      	push	{r7, lr}
 8007e42:	b084      	sub	sp, #16
 8007e44:	af00      	add	r7, sp, #0
 8007e46:	6078      	str	r0, [r7, #4]
 8007e48:	6039      	str	r1, [r7, #0]
  USBD_StatusTypeDef ret = USBD_OK;
 8007e4a:	2300      	movs	r3, #0
 8007e4c:	73fb      	strb	r3, [r7, #15]

  switch (req->bmRequest & USB_REQ_TYPE_MASK)
 8007e4e:	683b      	ldr	r3, [r7, #0]
 8007e50:	781b      	ldrb	r3, [r3, #0]
 8007e52:	f003 0360 	and.w	r3, r3, #96	@ 0x60
 8007e56:	2b40      	cmp	r3, #64	@ 0x40
 8007e58:	d005      	beq.n	8007e66 <USBD_StdDevReq+0x26>
 8007e5a:	2b40      	cmp	r3, #64	@ 0x40
 8007e5c:	d857      	bhi.n	8007f0e <USBD_StdDevReq+0xce>
 8007e5e:	2b00      	cmp	r3, #0
 8007e60:	d00f      	beq.n	8007e82 <USBD_StdDevReq+0x42>
 8007e62:	2b20      	cmp	r3, #32
 8007e64:	d153      	bne.n	8007f0e <USBD_StdDevReq+0xce>
  {
    case USB_REQ_TYPE_CLASS:
    case USB_REQ_TYPE_VENDOR:
      ret = (USBD_StatusTypeDef)pdev->pClass[pdev->classId]->Setup(pdev, req);
 8007e66:	687b      	ldr	r3, [r7, #4]
 8007e68:	f8d3 22d4 	ldr.w	r2, [r3, #724]	@ 0x2d4
 8007e6c:	687b      	ldr	r3, [r7, #4]
 8007e6e:	32ae      	adds	r2, #174	@ 0xae
 8007e70:	f853 3022 	ldr.w	r3, [r3, r2, lsl #2]
 8007e74:	689b      	ldr	r3, [r3, #8]
 8007e76:	6839      	ldr	r1, [r7, #0]
 8007e78:	6878      	ldr	r0, [r7, #4]
 8007e7a:	4798      	blx	r3
 8007e7c:	4603      	mov	r3, r0
 8007e7e:	73fb      	strb	r3, [r7, #15]
      break;
 8007e80:	e04a      	b.n	8007f18 <USBD_StdDevReq+0xd8>

    case USB_REQ_TYPE_STANDARD:
      switch (req->bRequest)
 8007e82:	683b      	ldr	r3, [r7, #0]
 8007e84:	785b      	ldrb	r3, [r3, #1]
 8007e86:	2b09      	cmp	r3, #9
 8007e88:	d83b      	bhi.n	8007f02 <USBD_StdDevReq+0xc2>
 8007e8a:	a201      	add	r2, pc, #4	@ (adr r2, 8007e90 <USBD_StdDevReq+0x50>)
 8007e8c:	f852 f023 	ldr.w	pc, [r2, r3, lsl #2]
 8007e90:	08007ee5 	.word	0x08007ee5
 8007e94:	08007ef9 	.word	0x08007ef9
 8007e98:	08007f03 	.word	0x08007f03
 8007e9c:	08007eef 	.word	0x08007eef
 8007ea0:	08007f03 	.word	0x08007f03
 8007ea4:	08007ec3 	.word	0x08007ec3
 8007ea8:	08007eb9 	.word	0x08007eb9
 8007eac:	08007f03 	.word	0x08007f03
 8007eb0:	08007edb 	.word	0x08007edb
 8007eb4:	08007ecd 	.word	0x08007ecd
      {
        case USB_REQ_GET_DESCRIPTOR:
          USBD_GetDescriptor(pdev, req);
 8007eb8:	6839      	ldr	r1, [r7, #0]
 8007eba:	6878      	ldr	r0, [r7, #4]
 8007ebc:	f000 fa3e 	bl	800833c <USBD_GetDescriptor>
          break;
 8007ec0:	e024      	b.n	8007f0c <USBD_StdDevReq+0xcc>

        case USB_REQ_SET_ADDRESS:
          USBD_SetAddress(pdev, req);
 8007ec2:	6839      	ldr	r1, [r7, #0]
 8007ec4:	6878      	ldr	r0, [r7, #4]
 8007ec6:	f000 fba3 	bl	8008610 <USBD_SetAddress>
          break;
 8007eca:	e01f      	b.n	8007f0c <USBD_StdDevReq+0xcc>

        case USB_REQ_SET_CONFIGURATION:
          ret = USBD_SetConfig(pdev, req);
 8007ecc:	6839      	ldr	r1, [r7, #0]
 8007ece:	6878      	ldr	r0, [r7, #4]
 8007ed0:	f000 fbe2 	bl	8008698 <USBD_SetConfig>
 8007ed4:	4603      	mov	r3, r0
 8007ed6:	73fb      	strb	r3, [r7, #15]
          break;
 8007ed8:	e018      	b.n	8007f0c <USBD_StdDevReq+0xcc>

        case USB_REQ_GET_CONFIGURATION:
          USBD_GetConfig(pdev, req);
 8007eda:	6839      	ldr	r1, [r7, #0]
 8007edc:	6878      	ldr	r0, [r7, #4]
 8007ede:	f000 fc85 	bl	80087ec <USBD_GetConfig>
          break;
 8007ee2:	e013      	b.n	8007f0c <USBD_StdDevReq+0xcc>

        case USB_REQ_GET_STATUS:
          USBD_GetStatus(pdev, req);
 8007ee4:	6839      	ldr	r1, [r7, #0]
 8007ee6:	6878      	ldr	r0, [r7, #4]
 8007ee8:	f000 fcb6 	bl	8008858 <USBD_GetStatus>
          break;
 8007eec:	e00e      	b.n	8007f0c <USBD_StdDevReq+0xcc>

        case USB_REQ_SET_FEATURE:
          USBD_SetFeature(pdev, req);
 8007eee:	6839      	ldr	r1, [r7, #0]
 8007ef0:	6878      	ldr	r0, [r7, #4]
 8007ef2:	f000 fce5 	bl	80088c0 <USBD_SetFeature>
          break;
 8007ef6:	e009      	b.n	8007f0c <USBD_StdDevReq+0xcc>

        case USB_REQ_CLEAR_FEATURE:
          USBD_ClrFeature(pdev, req);
 8007ef8:	6839      	ldr	r1, [r7, #0]
 8007efa:	6878      	ldr	r0, [r7, #4]
 8007efc:	f000 fd09 	bl	8008912 <USBD_ClrFeature>
          break;
 8007f00:	e004      	b.n	8007f0c <USBD_StdDevReq+0xcc>

        default:
          USBD_CtlError(pdev, req);
 8007f02:	6839      	ldr	r1, [r7, #0]
 8007f04:	6878      	ldr	r0, [r7, #4]
 8007f06:	f000 fd60 	bl	80089ca <USBD_CtlError>
          break;
 8007f0a:	bf00      	nop
      }
      break;
 8007f0c:	e004      	b.n	8007f18 <USBD_StdDevReq+0xd8>

    default:
      USBD_CtlError(pdev, req);
 8007f0e:	6839      	ldr	r1, [r7, #0]
 8007f10:	6878      	ldr	r0, [r7, #4]
 8007f12:	f000 fd5a 	bl	80089ca <USBD_CtlError>
      break;
 8007f16:	bf00      	nop
  }

  return ret;
 8007f18:	7bfb      	ldrb	r3, [r7, #15]
}
 8007f1a:	4618      	mov	r0, r3
 8007f1c:	3710      	adds	r7, #16
 8007f1e:	46bd      	mov	sp, r7
 8007f20:	bd80      	pop	{r7, pc}
 8007f22:	bf00      	nop

08007f24 <USBD_StdItfReq>:
  * @param  pdev: device instance
  * @param  req: usb request
  * @retval status
  */
USBD_StatusTypeDef USBD_StdItfReq(USBD_HandleTypeDef *pdev, USBD_SetupReqTypedef *req)
{
 8007f24:	b580      	push	{r7, lr}
 8007f26:	b084      	sub	sp, #16
 8007f28:	af00      	add	r7, sp, #0
 8007f2a:	6078      	str	r0, [r7, #4]
 8007f2c:	6039      	str	r1, [r7, #0]
  USBD_StatusTypeDef ret = USBD_OK;
 8007f2e:	2300      	movs	r3, #0
 8007f30:	73fb      	strb	r3, [r7, #15]
  uint8_t idx;

  switch (req->bmRequest & USB_REQ_TYPE_MASK)
 8007f32:	683b      	ldr	r3, [r7, #0]
 8007f34:	781b      	ldrb	r3, [r3, #0]
 8007f36:	f003 0360 	and.w	r3, r3, #96	@ 0x60
 8007f3a:	2b40      	cmp	r3, #64	@ 0x40
 8007f3c:	d005      	beq.n	8007f4a <USBD_StdItfReq+0x26>
 8007f3e:	2b40      	cmp	r3, #64	@ 0x40
 8007f40:	d852      	bhi.n	8007fe8 <USBD_StdItfReq+0xc4>
 8007f42:	2b00      	cmp	r3, #0
 8007f44:	d001      	beq.n	8007f4a <USBD_StdItfReq+0x26>
 8007f46:	2b20      	cmp	r3, #32
 8007f48:	d14e      	bne.n	8007fe8 <USBD_StdItfReq+0xc4>
  {
    case USB_REQ_TYPE_CLASS:
    case USB_REQ_TYPE_VENDOR:
    case USB_REQ_TYPE_STANDARD:
      switch (pdev->dev_state)
 8007f4a:	687b      	ldr	r3, [r7, #4]
 8007f4c:	f893 329c 	ldrb.w	r3, [r3, #668]	@ 0x29c
 8007f50:	b2db      	uxtb	r3, r3
 8007f52:	3b01      	subs	r3, #1
 8007f54:	2b02      	cmp	r3, #2
 8007f56:	d840      	bhi.n	8007fda <USBD_StdItfReq+0xb6>
      {
        case USBD_STATE_DEFAULT:
        case USBD_STATE_ADDRESSED:
        case USBD_STATE_CONFIGURED:

          if (LOBYTE(req->wIndex) <= USBD_MAX_NUM_INTERFACES)
 8007f58:	683b      	ldr	r3, [r7, #0]
 8007f5a:	889b      	ldrh	r3, [r3, #4]
 8007f5c:	b2db      	uxtb	r3, r3
 8007f5e:	2b01      	cmp	r3, #1
 8007f60:	d836      	bhi.n	8007fd0 <USBD_StdItfReq+0xac>
          {
            /* Get the class index relative to this interface */
            idx = USBD_CoreFindIF(pdev, LOBYTE(req->wIndex));
 8007f62:	683b      	ldr	r3, [r7, #0]
 8007f64:	889b      	ldrh	r3, [r3, #4]
 8007f66:	b2db      	uxtb	r3, r3
 8007f68:	4619      	mov	r1, r3
 8007f6a:	6878      	ldr	r0, [r7, #4]
 8007f6c:	f7ff feda 	bl	8007d24 <USBD_CoreFindIF>
 8007f70:	4603      	mov	r3, r0
 8007f72:	73bb      	strb	r3, [r7, #14]
            if (((uint8_t)idx != 0xFFU) && (idx < USBD_MAX_SUPPORTED_CLASS))
 8007f74:	7bbb      	ldrb	r3, [r7, #14]
 8007f76:	2bff      	cmp	r3, #255	@ 0xff
 8007f78:	d01d      	beq.n	8007fb6 <USBD_StdItfReq+0x92>
 8007f7a:	7bbb      	ldrb	r3, [r7, #14]
 8007f7c:	2b00      	cmp	r3, #0
 8007f7e:	d11a      	bne.n	8007fb6 <USBD_StdItfReq+0x92>
            {
              /* Call the class data out function to manage the request */
              if (pdev->pClass[idx]->Setup != NULL)
 8007f80:	7bba      	ldrb	r2, [r7, #14]
 8007f82:	687b      	ldr	r3, [r7, #4]
 8007f84:	32ae      	adds	r2, #174	@ 0xae
 8007f86:	f853 3022 	ldr.w	r3, [r3, r2, lsl #2]
 8007f8a:	689b      	ldr	r3, [r3, #8]
 8007f8c:	2b00      	cmp	r3, #0
 8007f8e:	d00f      	beq.n	8007fb0 <USBD_StdItfReq+0x8c>
              {
                pdev->classId = idx;
 8007f90:	7bba      	ldrb	r2, [r7, #14]
 8007f92:	687b      	ldr	r3, [r7, #4]
 8007f94:	f8c3 22d4 	str.w	r2, [r3, #724]	@ 0x2d4
                ret = (USBD_StatusTypeDef)(pdev->pClass[idx]->Setup(pdev, req));
 8007f98:	7bba      	ldrb	r2, [r7, #14]
 8007f9a:	687b      	ldr	r3, [r7, #4]
 8007f9c:	32ae      	adds	r2, #174	@ 0xae
 8007f9e:	f853 3022 	ldr.w	r3, [r3, r2, lsl #2]
 8007fa2:	689b      	ldr	r3, [r3, #8]
 8007fa4:	6839      	ldr	r1, [r7, #0]
 8007fa6:	6878      	ldr	r0, [r7, #4]
 8007fa8:	4798      	blx	r3
 8007faa:	4603      	mov	r3, r0
 8007fac:	73fb      	strb	r3, [r7, #15]
              if (pdev->pClass[idx]->Setup != NULL)
 8007fae:	e004      	b.n	8007fba <USBD_StdItfReq+0x96>
              }
              else
              {
                /* should never reach this condition */
                ret = USBD_FAIL;
 8007fb0:	2303      	movs	r3, #3
 8007fb2:	73fb      	strb	r3, [r7, #15]
              if (pdev->pClass[idx]->Setup != NULL)
 8007fb4:	e001      	b.n	8007fba <USBD_StdItfReq+0x96>
              }
            }
            else
            {
              /* No relative interface found */
              ret = USBD_FAIL;
 8007fb6:	2303      	movs	r3, #3
 8007fb8:	73fb      	strb	r3, [r7, #15]
            }

            if ((req->wLength == 0U) && (ret == USBD_OK))
 8007fba:	683b      	ldr	r3, [r7, #0]
 8007fbc:	88db      	ldrh	r3, [r3, #6]
 8007fbe:	2b00      	cmp	r3, #0
 8007fc0:	d110      	bne.n	8007fe4 <USBD_StdItfReq+0xc0>
 8007fc2:	7bfb      	ldrb	r3, [r7, #15]
 8007fc4:	2b00      	cmp	r3, #0
 8007fc6:	d10d      	bne.n	8007fe4 <USBD_StdItfReq+0xc0>
            {
              (void)USBD_CtlSendStatus(pdev);
 8007fc8:	6878      	ldr	r0, [r7, #4]
 8007fca:	f000 fddc 	bl	8008b86 <USBD_CtlSendStatus>
          }
          else
          {
            USBD_CtlError(pdev, req);
          }
          break;
 8007fce:	e009      	b.n	8007fe4 <USBD_StdItfReq+0xc0>
            USBD_CtlError(pdev, req);
 8007fd0:	6839      	ldr	r1, [r7, #0]
 8007fd2:	6878      	ldr	r0, [r7, #4]
 8007fd4:	f000 fcf9 	bl	80089ca <USBD_CtlError>
          break;
 8007fd8:	e004      	b.n	8007fe4 <USBD_StdItfReq+0xc0>

        default:
          USBD_CtlError(pdev, req);
 8007fda:	6839      	ldr	r1, [r7, #0]
 8007fdc:	6878      	ldr	r0, [r7, #4]
 8007fde:	f000 fcf4 	bl	80089ca <USBD_CtlError>
          break;
 8007fe2:	e000      	b.n	8007fe6 <USBD_StdItfReq+0xc2>
          break;
 8007fe4:	bf00      	nop
      }
      break;
 8007fe6:	e004      	b.n	8007ff2 <USBD_StdItfReq+0xce>

    default:
      USBD_CtlError(pdev, req);
 8007fe8:	6839      	ldr	r1, [r7, #0]
 8007fea:	6878      	ldr	r0, [r7, #4]
 8007fec:	f000 fced 	bl	80089ca <USBD_CtlError>
      break;
 8007ff0:	bf00      	nop
  }

  return ret;
 8007ff2:	7bfb      	ldrb	r3, [r7, #15]
}
 8007ff4:	4618      	mov	r0, r3
 8007ff6:	3710      	adds	r7, #16
 8007ff8:	46bd      	mov	sp, r7
 8007ffa:	bd80      	pop	{r7, pc}

08007ffc <USBD_StdEPReq>:
  * @param  pdev: device instance
  * @param  req: usb request
  * @retval status
  */
USBD_StatusTypeDef USBD_StdEPReq(USBD_HandleTypeDef *pdev, USBD_SetupReqTypedef *req)
{
 8007ffc:	b580      	push	{r7, lr}
 8007ffe:	b084      	sub	sp, #16
 8008000:	af00      	add	r7, sp, #0
 8008002:	6078      	str	r0, [r7, #4]
 8008004:	6039      	str	r1, [r7, #0]
  USBD_EndpointTypeDef *pep;
  uint8_t ep_addr;
  uint8_t idx;
  USBD_StatusTypeDef ret = USBD_OK;
 8008006:	2300      	movs	r3, #0
 8008008:	73fb      	strb	r3, [r7, #15]

  ep_addr = LOBYTE(req->wIndex);
 800800a:	683b      	ldr	r3, [r7, #0]
 800800c:	889b      	ldrh	r3, [r3, #4]
 800800e:	73bb      	strb	r3, [r7, #14]

  switch (req->bmRequest & USB_REQ_TYPE_MASK)
 8008010:	683b      	ldr	r3, [r7, #0]
 8008012:	781b      	ldrb	r3, [r3, #0]
 8008014:	f003 0360 	and.w	r3, r3, #96	@ 0x60
 8008018:	2b40      	cmp	r3, #64	@ 0x40
 800801a:	d007      	beq.n	800802c <USBD_StdEPReq+0x30>
 800801c:	2b40      	cmp	r3, #64	@ 0x40
 800801e:	f200 8181 	bhi.w	8008324 <USBD_StdEPReq+0x328>
 8008022:	2b00      	cmp	r3, #0
 8008024:	d02a      	beq.n	800807c <USBD_StdEPReq+0x80>
 8008026:	2b20      	cmp	r3, #32
 8008028:	f040 817c 	bne.w	8008324 <USBD_StdEPReq+0x328>
  {
    case USB_REQ_TYPE_CLASS:
    case USB_REQ_TYPE_VENDOR:
      /* Get the class index relative to this endpoint */
      idx = USBD_CoreFindEP(pdev, ep_addr);
 800802c:	7bbb      	ldrb	r3, [r7, #14]
 800802e:	4619      	mov	r1, r3
 8008030:	6878      	ldr	r0, [r7, #4]
 8008032:	f7ff fe84 	bl	8007d3e <USBD_CoreFindEP>
 8008036:	4603      	mov	r3, r0
 8008038:	737b      	strb	r3, [r7, #13]
      if (((uint8_t)idx != 0xFFU) && (idx < USBD_MAX_SUPPORTED_CLASS))
 800803a:	7b7b      	ldrb	r3, [r7, #13]
 800803c:	2bff      	cmp	r3, #255	@ 0xff
 800803e:	f000 8176 	beq.w	800832e <USBD_StdEPReq+0x332>
 8008042:	7b7b      	ldrb	r3, [r7, #13]
 8008044:	2b00      	cmp	r3, #0
 8008046:	f040 8172 	bne.w	800832e <USBD_StdEPReq+0x332>
      {
        pdev->classId = idx;
 800804a:	7b7a      	ldrb	r2, [r7, #13]
 800804c:	687b      	ldr	r3, [r7, #4]
 800804e:	f8c3 22d4 	str.w	r2, [r3, #724]	@ 0x2d4
        /* Call the class data out function to manage the request */
        if (pdev->pClass[idx]->Setup != NULL)
 8008052:	7b7a      	ldrb	r2, [r7, #13]
 8008054:	687b      	ldr	r3, [r7, #4]
 8008056:	32ae      	adds	r2, #174	@ 0xae
 8008058:	f853 3022 	ldr.w	r3, [r3, r2, lsl #2]
 800805c:	689b      	ldr	r3, [r3, #8]
 800805e:	2b00      	cmp	r3, #0
 8008060:	f000 8165 	beq.w	800832e <USBD_StdEPReq+0x332>
        {
          ret = (USBD_StatusTypeDef)pdev->pClass[idx]->Setup(pdev, req);
 8008064:	7b7a      	ldrb	r2, [r7, #13]
 8008066:	687b      	ldr	r3, [r7, #4]
 8008068:	32ae      	adds	r2, #174	@ 0xae
 800806a:	f853 3022 	ldr.w	r3, [r3, r2, lsl #2]
 800806e:	689b      	ldr	r3, [r3, #8]
 8008070:	6839      	ldr	r1, [r7, #0]
 8008072:	6878      	ldr	r0, [r7, #4]
 8008074:	4798      	blx	r3
 8008076:	4603      	mov	r3, r0
 8008078:	73fb      	strb	r3, [r7, #15]
        }
      }
      break;
 800807a:	e158      	b.n	800832e <USBD_StdEPReq+0x332>

    case USB_REQ_TYPE_STANDARD:
      switch (req->bRequest)
 800807c:	683b      	ldr	r3, [r7, #0]
 800807e:	785b      	ldrb	r3, [r3, #1]
 8008080:	2b03      	cmp	r3, #3
 8008082:	d008      	beq.n	8008096 <USBD_StdEPReq+0x9a>
 8008084:	2b03      	cmp	r3, #3
 8008086:	f300 8147 	bgt.w	8008318 <USBD_StdEPReq+0x31c>
 800808a:	2b00      	cmp	r3, #0
 800808c:	f000 809b 	beq.w	80081c6 <USBD_StdEPReq+0x1ca>
 8008090:	2b01      	cmp	r3, #1
 8008092:	d03c      	beq.n	800810e <USBD_StdEPReq+0x112>
 8008094:	e140      	b.n	8008318 <USBD_StdEPReq+0x31c>
      {
        case USB_REQ_SET_FEATURE:
          switch (pdev->dev_state)
 8008096:	687b      	ldr	r3, [r7, #4]
 8008098:	f893 329c 	ldrb.w	r3, [r3, #668]	@ 0x29c
 800809c:	b2db      	uxtb	r3, r3
 800809e:	2b02      	cmp	r3, #2
 80080a0:	d002      	beq.n	80080a8 <USBD_StdEPReq+0xac>
 80080a2:	2b03      	cmp	r3, #3
 80080a4:	d016      	beq.n	80080d4 <USBD_StdEPReq+0xd8>
 80080a6:	e02c      	b.n	8008102 <USBD_StdEPReq+0x106>
          {
            case USBD_STATE_ADDRESSED:
              if ((ep_addr != 0x00U) && (ep_addr != 0x80U))
 80080a8:	7bbb      	ldrb	r3, [r7, #14]
 80080aa:	2b00      	cmp	r3, #0
 80080ac:	d00d      	beq.n	80080ca <USBD_StdEPReq+0xce>
 80080ae:	7bbb      	ldrb	r3, [r7, #14]
 80080b0:	2b80      	cmp	r3, #128	@ 0x80
 80080b2:	d00a      	beq.n	80080ca <USBD_StdEPReq+0xce>
              {
                (void)USBD_LL_StallEP(pdev, ep_addr);
 80080b4:	7bbb      	ldrb	r3, [r7, #14]
 80080b6:	4619      	mov	r1, r3
 80080b8:	6878      	ldr	r0, [r7, #4]
 80080ba:	f001 f9e3 	bl	8009484 <USBD_LL_StallEP>
                (void)USBD_LL_StallEP(pdev, 0x80U);
 80080be:	2180      	movs	r1, #128	@ 0x80
 80080c0:	6878      	ldr	r0, [r7, #4]
 80080c2:	f001 f9df 	bl	8009484 <USBD_LL_StallEP>
 80080c6:	bf00      	nop
              }
              else
              {
                USBD_CtlError(pdev, req);
              }
              break;
 80080c8:	e020      	b.n	800810c <USBD_StdEPReq+0x110>
                USBD_CtlError(pdev, req);
 80080ca:	6839      	ldr	r1, [r7, #0]
 80080cc:	6878      	ldr	r0, [r7, #4]
 80080ce:	f000 fc7c 	bl	80089ca <USBD_CtlError>
              break;
 80080d2:	e01b      	b.n	800810c <USBD_StdEPReq+0x110>

            case USBD_STATE_CONFIGURED:
              if (req->wValue == USB_FEATURE_EP_HALT)
 80080d4:	683b      	ldr	r3, [r7, #0]
 80080d6:	885b      	ldrh	r3, [r3, #2]
 80080d8:	2b00      	cmp	r3, #0
 80080da:	d10e      	bne.n	80080fa <USBD_StdEPReq+0xfe>
              {
                if ((ep_addr != 0x00U) && (ep_addr != 0x80U) && (req->wLength == 0x00U))
 80080dc:	7bbb      	ldrb	r3, [r7, #14]
 80080de:	2b00      	cmp	r3, #0
 80080e0:	d00b      	beq.n	80080fa <USBD_StdEPReq+0xfe>
 80080e2:	7bbb      	ldrb	r3, [r7, #14]
 80080e4:	2b80      	cmp	r3, #128	@ 0x80
 80080e6:	d008      	beq.n	80080fa <USBD_StdEPReq+0xfe>
 80080e8:	683b      	ldr	r3, [r7, #0]
 80080ea:	88db      	ldrh	r3, [r3, #6]
 80080ec:	2b00      	cmp	r3, #0
 80080ee:	d104      	bne.n	80080fa <USBD_StdEPReq+0xfe>
                {
                  (void)USBD_LL_StallEP(pdev, ep_addr);
 80080f0:	7bbb      	ldrb	r3, [r7, #14]
 80080f2:	4619      	mov	r1, r3
 80080f4:	6878      	ldr	r0, [r7, #4]
 80080f6:	f001 f9c5 	bl	8009484 <USBD_LL_StallEP>
                }
              }
              (void)USBD_CtlSendStatus(pdev);
 80080fa:	6878      	ldr	r0, [r7, #4]
 80080fc:	f000 fd43 	bl	8008b86 <USBD_CtlSendStatus>

              break;
 8008100:	e004      	b.n	800810c <USBD_StdEPReq+0x110>

            default:
              USBD_CtlError(pdev, req);
 8008102:	6839      	ldr	r1, [r7, #0]
 8008104:	6878      	ldr	r0, [r7, #4]
 8008106:	f000 fc60 	bl	80089ca <USBD_CtlError>
              break;
 800810a:	bf00      	nop
          }
          break;
 800810c:	e109      	b.n	8008322 <USBD_StdEPReq+0x326>

        case USB_REQ_CLEAR_FEATURE:

          switch (pdev->dev_state)
 800810e:	687b      	ldr	r3, [r7, #4]
 8008110:	f893 329c 	ldrb.w	r3, [r3, #668]	@ 0x29c
 8008114:	b2db      	uxtb	r3, r3
 8008116:	2b02      	cmp	r3, #2
 8008118:	d002      	beq.n	8008120 <USBD_StdEPReq+0x124>
 800811a:	2b03      	cmp	r3, #3
 800811c:	d016      	beq.n	800814c <USBD_StdEPReq+0x150>
 800811e:	e04b      	b.n	80081b8 <USBD_StdEPReq+0x1bc>
          {
            case USBD_STATE_ADDRESSED:
              if ((ep_addr != 0x00U) && (ep_addr != 0x80U))
 8008120:	7bbb      	ldrb	r3, [r7, #14]
 8008122:	2b00      	cmp	r3, #0
 8008124:	d00d      	beq.n	8008142 <USBD_StdEPReq+0x146>
 8008126:	7bbb      	ldrb	r3, [r7, #14]
 8008128:	2b80      	cmp	r3, #128	@ 0x80
 800812a:	d00a      	beq.n	8008142 <USBD_StdEPReq+0x146>
              {
                (void)USBD_LL_StallEP(pdev, ep_addr);
 800812c:	7bbb      	ldrb	r3, [r7, #14]
 800812e:	4619      	mov	r1, r3
 8008130:	6878      	ldr	r0, [r7, #4]
 8008132:	f001 f9a7 	bl	8009484 <USBD_LL_StallEP>
                (void)USBD_LL_StallEP(pdev, 0x80U);
 8008136:	2180      	movs	r1, #128	@ 0x80
 8008138:	6878      	ldr	r0, [r7, #4]
 800813a:	f001 f9a3 	bl	8009484 <USBD_LL_StallEP>
 800813e:	bf00      	nop
              }
              else
              {
                USBD_CtlError(pdev, req);
              }
              break;
 8008140:	e040      	b.n	80081c4 <USBD_StdEPReq+0x1c8>
                USBD_CtlError(pdev, req);
 8008142:	6839      	ldr	r1, [r7, #0]
 8008144:	6878      	ldr	r0, [r7, #4]
 8008146:	f000 fc40 	bl	80089ca <USBD_CtlError>
              break;
 800814a:	e03b      	b.n	80081c4 <USBD_StdEPReq+0x1c8>

            case USBD_STATE_CONFIGURED:
              if (req->wValue == USB_FEATURE_EP_HALT)
 800814c:	683b      	ldr	r3, [r7, #0]
 800814e:	885b      	ldrh	r3, [r3, #2]
 8008150:	2b00      	cmp	r3, #0
 8008152:	d136      	bne.n	80081c2 <USBD_StdEPReq+0x1c6>
              {
                if ((ep_addr & 0x7FU) != 0x00U)
 8008154:	7bbb      	ldrb	r3, [r7, #14]
 8008156:	f003 037f 	and.w	r3, r3, #127	@ 0x7f
 800815a:	2b00      	cmp	r3, #0
 800815c:	d004      	beq.n	8008168 <USBD_StdEPReq+0x16c>
                {
                  (void)USBD_LL_ClearStallEP(pdev, ep_addr);
 800815e:	7bbb      	ldrb	r3, [r7, #14]
 8008160:	4619      	mov	r1, r3
 8008162:	6878      	ldr	r0, [r7, #4]
 8008164:	f001 f9ad 	bl	80094c2 <USBD_LL_ClearStallEP>
                }
                (void)USBD_CtlSendStatus(pdev);
 8008168:	6878      	ldr	r0, [r7, #4]
 800816a:	f000 fd0c 	bl	8008b86 <USBD_CtlSendStatus>

                /* Get the class index relative to this interface */
                idx = USBD_CoreFindEP(pdev, ep_addr);
 800816e:	7bbb      	ldrb	r3, [r7, #14]
 8008170:	4619      	mov	r1, r3
 8008172:	6878      	ldr	r0, [r7, #4]
 8008174:	f7ff fde3 	bl	8007d3e <USBD_CoreFindEP>
 8008178:	4603      	mov	r3, r0
 800817a:	737b      	strb	r3, [r7, #13]
                if (((uint8_t)idx != 0xFFU) && (idx < USBD_MAX_SUPPORTED_CLASS))
 800817c:	7b7b      	ldrb	r3, [r7, #13]
 800817e:	2bff      	cmp	r3, #255	@ 0xff
 8008180:	d01f      	beq.n	80081c2 <USBD_StdEPReq+0x1c6>
 8008182:	7b7b      	ldrb	r3, [r7, #13]
 8008184:	2b00      	cmp	r3, #0
 8008186:	d11c      	bne.n	80081c2 <USBD_StdEPReq+0x1c6>
                {
                  pdev->classId = idx;
 8008188:	7b7a      	ldrb	r2, [r7, #13]
 800818a:	687b      	ldr	r3, [r7, #4]
 800818c:	f8c3 22d4 	str.w	r2, [r3, #724]	@ 0x2d4
                  /* Call the class data out function to manage the request */
                  if (pdev->pClass[idx]->Setup != NULL)
 8008190:	7b7a      	ldrb	r2, [r7, #13]
 8008192:	687b      	ldr	r3, [r7, #4]
 8008194:	32ae      	adds	r2, #174	@ 0xae
 8008196:	f853 3022 	ldr.w	r3, [r3, r2, lsl #2]
 800819a:	689b      	ldr	r3, [r3, #8]
 800819c:	2b00      	cmp	r3, #0
 800819e:	d010      	beq.n	80081c2 <USBD_StdEPReq+0x1c6>
                  {
                    ret = (USBD_StatusTypeDef)(pdev->pClass[idx]->Setup(pdev, req));
 80081a0:	7b7a      	ldrb	r2, [r7, #13]
 80081a2:	687b      	ldr	r3, [r7, #4]
 80081a4:	32ae      	adds	r2, #174	@ 0xae
 80081a6:	f853 3022 	ldr.w	r3, [r3, r2, lsl #2]
 80081aa:	689b      	ldr	r3, [r3, #8]
 80081ac:	6839      	ldr	r1, [r7, #0]
 80081ae:	6878      	ldr	r0, [r7, #4]
 80081b0:	4798      	blx	r3
 80081b2:	4603      	mov	r3, r0
 80081b4:	73fb      	strb	r3, [r7, #15]
                  }
                }
              }
              break;
 80081b6:	e004      	b.n	80081c2 <USBD_StdEPReq+0x1c6>

            default:
              USBD_CtlError(pdev, req);
 80081b8:	6839      	ldr	r1, [r7, #0]
 80081ba:	6878      	ldr	r0, [r7, #4]
 80081bc:	f000 fc05 	bl	80089ca <USBD_CtlError>
              break;
 80081c0:	e000      	b.n	80081c4 <USBD_StdEPReq+0x1c8>
              break;
 80081c2:	bf00      	nop
          }
          break;
 80081c4:	e0ad      	b.n	8008322 <USBD_StdEPReq+0x326>

        case USB_REQ_GET_STATUS:
          switch (pdev->dev_state)
 80081c6:	687b      	ldr	r3, [r7, #4]
 80081c8:	f893 329c 	ldrb.w	r3, [r3, #668]	@ 0x29c
 80081cc:	b2db      	uxtb	r3, r3
 80081ce:	2b02      	cmp	r3, #2
 80081d0:	d002      	beq.n	80081d8 <USBD_StdEPReq+0x1dc>
 80081d2:	2b03      	cmp	r3, #3
 80081d4:	d033      	beq.n	800823e <USBD_StdEPReq+0x242>
 80081d6:	e099      	b.n	800830c <USBD_StdEPReq+0x310>
          {
            case USBD_STATE_ADDRESSED:
              if ((ep_addr != 0x00U) && (ep_addr != 0x80U))
 80081d8:	7bbb      	ldrb	r3, [r7, #14]
 80081da:	2b00      	cmp	r3, #0
 80081dc:	d007      	beq.n	80081ee <USBD_StdEPReq+0x1f2>
 80081de:	7bbb      	ldrb	r3, [r7, #14]
 80081e0:	2b80      	cmp	r3, #128	@ 0x80
 80081e2:	d004      	beq.n	80081ee <USBD_StdEPReq+0x1f2>
              {
                USBD_CtlError(pdev, req);
 80081e4:	6839      	ldr	r1, [r7, #0]
 80081e6:	6878      	ldr	r0, [r7, #4]
 80081e8:	f000 fbef 	bl	80089ca <USBD_CtlError>
                break;
 80081ec:	e093      	b.n	8008316 <USBD_StdEPReq+0x31a>
              }
              pep = ((ep_addr & 0x80U) == 0x80U) ? &pdev->ep_in[ep_addr & 0x7FU] : \
 80081ee:	f997 300e 	ldrsb.w	r3, [r7, #14]
 80081f2:	2b00      	cmp	r3, #0
 80081f4:	da0b      	bge.n	800820e <USBD_StdEPReq+0x212>
 80081f6:	7bbb      	ldrb	r3, [r7, #14]
 80081f8:	f003 027f 	and.w	r2, r3, #127	@ 0x7f
 80081fc:	4613      	mov	r3, r2
 80081fe:	009b      	lsls	r3, r3, #2
 8008200:	4413      	add	r3, r2
 8008202:	009b      	lsls	r3, r3, #2
 8008204:	3310      	adds	r3, #16
 8008206:	687a      	ldr	r2, [r7, #4]
 8008208:	4413      	add	r3, r2
 800820a:	3304      	adds	r3, #4
 800820c:	e00b      	b.n	8008226 <USBD_StdEPReq+0x22a>
                    &pdev->ep_out[ep_addr & 0x7FU];
 800820e:	7bbb      	ldrb	r3, [r7, #14]
 8008210:	f003 027f 	and.w	r2, r3, #127	@ 0x7f
              pep = ((ep_addr & 0x80U) == 0x80U) ? &pdev->ep_in[ep_addr & 0x7FU] : \
 8008214:	4613      	mov	r3, r2
 8008216:	009b      	lsls	r3, r3, #2
 8008218:	4413      	add	r3, r2
 800821a:	009b      	lsls	r3, r3, #2
 800821c:	f503 73a8 	add.w	r3, r3, #336	@ 0x150
 8008220:	687a      	ldr	r2, [r7, #4]
 8008222:	4413      	add	r3, r2
 8008224:	3304      	adds	r3, #4
 8008226:	60bb      	str	r3, [r7, #8]

              pep->status = 0x0000U;
 8008228:	68bb      	ldr	r3, [r7, #8]
 800822a:	2200      	movs	r2, #0
 800822c:	739a      	strb	r2, [r3, #14]

              (void)USBD_CtlSendData(pdev, (uint8_t *)&pep->status, 2U);
 800822e:	68bb      	ldr	r3, [r7, #8]
 8008230:	330e      	adds	r3, #14
 8008232:	2202      	movs	r2, #2
 8008234:	4619      	mov	r1, r3
 8008236:	6878      	ldr	r0, [r7, #4]
 8008238:	f000 fc44 	bl	8008ac4 <USBD_CtlSendData>
              break;
 800823c:	e06b      	b.n	8008316 <USBD_StdEPReq+0x31a>

            case USBD_STATE_CONFIGURED:
              if ((ep_addr & 0x80U) == 0x80U)
 800823e:	f997 300e 	ldrsb.w	r3, [r7, #14]
 8008242:	2b00      	cmp	r3, #0
 8008244:	da11      	bge.n	800826a <USBD_StdEPReq+0x26e>
              {
                if (pdev->ep_in[ep_addr & 0xFU].is_used == 0U)
 8008246:	7bbb      	ldrb	r3, [r7, #14]
 8008248:	f003 020f 	and.w	r2, r3, #15
 800824c:	6879      	ldr	r1, [r7, #4]
 800824e:	4613      	mov	r3, r2
 8008250:	009b      	lsls	r3, r3, #2
 8008252:	4413      	add	r3, r2
 8008254:	009b      	lsls	r3, r3, #2
 8008256:	440b      	add	r3, r1
 8008258:	3323      	adds	r3, #35	@ 0x23
 800825a:	781b      	ldrb	r3, [r3, #0]
 800825c:	2b00      	cmp	r3, #0
 800825e:	d117      	bne.n	8008290 <USBD_StdEPReq+0x294>
                {
                  USBD_CtlError(pdev, req);
 8008260:	6839      	ldr	r1, [r7, #0]
 8008262:	6878      	ldr	r0, [r7, #4]
 8008264:	f000 fbb1 	bl	80089ca <USBD_CtlError>
                  break;
 8008268:	e055      	b.n	8008316 <USBD_StdEPReq+0x31a>
                }
              }
              else
              {
                if (pdev->ep_out[ep_addr & 0xFU].is_used == 0U)
 800826a:	7bbb      	ldrb	r3, [r7, #14]
 800826c:	f003 020f 	and.w	r2, r3, #15
 8008270:	6879      	ldr	r1, [r7, #4]
 8008272:	4613      	mov	r3, r2
 8008274:	009b      	lsls	r3, r3, #2
 8008276:	4413      	add	r3, r2
 8008278:	009b      	lsls	r3, r3, #2
 800827a:	440b      	add	r3, r1
 800827c:	f203 1363 	addw	r3, r3, #355	@ 0x163
 8008280:	781b      	ldrb	r3, [r3, #0]
 8008282:	2b00      	cmp	r3, #0
 8008284:	d104      	bne.n	8008290 <USBD_StdEPReq+0x294>
                {
                  USBD_CtlError(pdev, req);
 8008286:	6839      	ldr	r1, [r7, #0]
 8008288:	6878      	ldr	r0, [r7, #4]
 800828a:	f000 fb9e 	bl	80089ca <USBD_CtlError>
                  break;
 800828e:	e042      	b.n	8008316 <USBD_StdEPReq+0x31a>
                }
              }

              pep = ((ep_addr & 0x80U) == 0x80U) ? &pdev->ep_in[ep_addr & 0x7FU] : \
 8008290:	f997 300e 	ldrsb.w	r3, [r7, #14]
 8008294:	2b00      	cmp	r3, #0
 8008296:	da0b      	bge.n	80082b0 <USBD_StdEPReq+0x2b4>
 8008298:	7bbb      	ldrb	r3, [r7, #14]
 800829a:	f003 027f 	and.w	r2, r3, #127	@ 0x7f
 800829e:	4613      	mov	r3, r2
 80082a0:	009b      	lsls	r3, r3, #2
 80082a2:	4413      	add	r3, r2
 80082a4:	009b      	lsls	r3, r3, #2
 80082a6:	3310      	adds	r3, #16
 80082a8:	687a      	ldr	r2, [r7, #4]
 80082aa:	4413      	add	r3, r2
 80082ac:	3304      	adds	r3, #4
 80082ae:	e00b      	b.n	80082c8 <USBD_StdEPReq+0x2cc>
                    &pdev->ep_out[ep_addr & 0x7FU];
 80082b0:	7bbb      	ldrb	r3, [r7, #14]
 80082b2:	f003 027f 	and.w	r2, r3, #127	@ 0x7f
              pep = ((ep_addr & 0x80U) == 0x80U) ? &pdev->ep_in[ep_addr & 0x7FU] : \
 80082b6:	4613      	mov	r3, r2
 80082b8:	009b      	lsls	r3, r3, #2
 80082ba:	4413      	add	r3, r2
 80082bc:	009b      	lsls	r3, r3, #2
 80082be:	f503 73a8 	add.w	r3, r3, #336	@ 0x150
 80082c2:	687a      	ldr	r2, [r7, #4]
 80082c4:	4413      	add	r3, r2
 80082c6:	3304      	adds	r3, #4
 80082c8:	60bb      	str	r3, [r7, #8]

              if ((ep_addr == 0x00U) || (ep_addr == 0x80U))
 80082ca:	7bbb      	ldrb	r3, [r7, #14]
 80082cc:	2b00      	cmp	r3, #0
 80082ce:	d002      	beq.n	80082d6 <USBD_StdEPReq+0x2da>
 80082d0:	7bbb      	ldrb	r3, [r7, #14]
 80082d2:	2b80      	cmp	r3, #128	@ 0x80
 80082d4:	d103      	bne.n	80082de <USBD_StdEPReq+0x2e2>
              {
                pep->status = 0x0000U;
 80082d6:	68bb      	ldr	r3, [r7, #8]
 80082d8:	2200      	movs	r2, #0
 80082da:	739a      	strb	r2, [r3, #14]
 80082dc:	e00e      	b.n	80082fc <USBD_StdEPReq+0x300>
              }
              else if (USBD_LL_IsStallEP(pdev, ep_addr) != 0U)
 80082de:	7bbb      	ldrb	r3, [r7, #14]
 80082e0:	4619      	mov	r1, r3
 80082e2:	6878      	ldr	r0, [r7, #4]
 80082e4:	f001 f90c 	bl	8009500 <USBD_LL_IsStallEP>
 80082e8:	4603      	mov	r3, r0
 80082ea:	2b00      	cmp	r3, #0
 80082ec:	d003      	beq.n	80082f6 <USBD_StdEPReq+0x2fa>
              {
                pep->status = 0x0001U;
 80082ee:	68bb      	ldr	r3, [r7, #8]
 80082f0:	2201      	movs	r2, #1
 80082f2:	739a      	strb	r2, [r3, #14]
 80082f4:	e002      	b.n	80082fc <USBD_StdEPReq+0x300>
              }
              else
              {
                pep->status = 0x0000U;
 80082f6:	68bb      	ldr	r3, [r7, #8]
 80082f8:	2200      	movs	r2, #0
 80082fa:	739a      	strb	r2, [r3, #14]
              }

              (void)USBD_CtlSendData(pdev, (uint8_t *)&pep->status, 2U);
 80082fc:	68bb      	ldr	r3, [r7, #8]
 80082fe:	330e      	adds	r3, #14
 8008300:	2202      	movs	r2, #2
 8008302:	4619      	mov	r1, r3
 8008304:	6878      	ldr	r0, [r7, #4]
 8008306:	f000 fbdd 	bl	8008ac4 <USBD_CtlSendData>
              break;
 800830a:	e004      	b.n	8008316 <USBD_StdEPReq+0x31a>

            default:
              USBD_CtlError(pdev, req);
 800830c:	6839      	ldr	r1, [r7, #0]
 800830e:	6878      	ldr	r0, [r7, #4]
 8008310:	f000 fb5b 	bl	80089ca <USBD_CtlError>
              break;
 8008314:	bf00      	nop
          }
          break;
 8008316:	e004      	b.n	8008322 <USBD_StdEPReq+0x326>

        default:
          USBD_CtlError(pdev, req);
 8008318:	6839      	ldr	r1, [r7, #0]
 800831a:	6878      	ldr	r0, [r7, #4]
 800831c:	f000 fb55 	bl	80089ca <USBD_CtlError>
          break;
 8008320:	bf00      	nop
      }
      break;
 8008322:	e005      	b.n	8008330 <USBD_StdEPReq+0x334>

    default:
      USBD_CtlError(pdev, req);
 8008324:	6839      	ldr	r1, [r7, #0]
 8008326:	6878      	ldr	r0, [r7, #4]
 8008328:	f000 fb4f 	bl	80089ca <USBD_CtlError>
      break;
 800832c:	e000      	b.n	8008330 <USBD_StdEPReq+0x334>
      break;
 800832e:	bf00      	nop
  }

  return ret;
 8008330:	7bfb      	ldrb	r3, [r7, #15]
}
 8008332:	4618      	mov	r0, r3
 8008334:	3710      	adds	r7, #16
 8008336:	46bd      	mov	sp, r7
 8008338:	bd80      	pop	{r7, pc}
	...

0800833c <USBD_GetDescriptor>:
  * @param  pdev: device instance
  * @param  req: usb request
  * @retval None
  */
static void USBD_GetDescriptor(USBD_HandleTypeDef *pdev, USBD_SetupReqTypedef *req)
{
 800833c:	b580      	push	{r7, lr}
 800833e:	b084      	sub	sp, #16
 8008340:	af00      	add	r7, sp, #0
 8008342:	6078      	str	r0, [r7, #4]
 8008344:	6039      	str	r1, [r7, #0]
  uint16_t len = 0U;
 8008346:	2300      	movs	r3, #0
 8008348:	813b      	strh	r3, [r7, #8]
  uint8_t *pbuf = NULL;
 800834a:	2300      	movs	r3, #0
 800834c:	60fb      	str	r3, [r7, #12]
  uint8_t err = 0U;
 800834e:	2300      	movs	r3, #0
 8008350:	72fb      	strb	r3, [r7, #11]

  switch (req->wValue >> 8)
 8008352:	683b      	ldr	r3, [r7, #0]
 8008354:	885b      	ldrh	r3, [r3, #2]
 8008356:	0a1b      	lsrs	r3, r3, #8
 8008358:	b29b      	uxth	r3, r3
 800835a:	3b01      	subs	r3, #1
 800835c:	2b06      	cmp	r3, #6
 800835e:	f200 8128 	bhi.w	80085b2 <USBD_GetDescriptor+0x276>
 8008362:	a201      	add	r2, pc, #4	@ (adr r2, 8008368 <USBD_GetDescriptor+0x2c>)
 8008364:	f852 f023 	ldr.w	pc, [r2, r3, lsl #2]
 8008368:	08008385 	.word	0x08008385
 800836c:	0800839d 	.word	0x0800839d
 8008370:	080083dd 	.word	0x080083dd
 8008374:	080085b3 	.word	0x080085b3
 8008378:	080085b3 	.word	0x080085b3
 800837c:	08008553 	.word	0x08008553
 8008380:	0800857f 	.word	0x0800857f
        err++;
      }
      break;
#endif /* (USBD_LPM_ENABLED == 1U) || (USBD_CLASS_BOS_ENABLED == 1U) */
    case USB_DESC_TYPE_DEVICE:
      pbuf = pdev->pDesc->GetDeviceDescriptor(pdev->dev_speed, &len);
 8008384:	687b      	ldr	r3, [r7, #4]
 8008386:	f8d3 32b4 	ldr.w	r3, [r3, #692]	@ 0x2b4
 800838a:	681b      	ldr	r3, [r3, #0]
 800838c:	687a      	ldr	r2, [r7, #4]
 800838e:	7c12      	ldrb	r2, [r2, #16]
 8008390:	f107 0108 	add.w	r1, r7, #8
 8008394:	4610      	mov	r0, r2
 8008396:	4798      	blx	r3
 8008398:	60f8      	str	r0, [r7, #12]
      break;
 800839a:	e112      	b.n	80085c2 <USBD_GetDescriptor+0x286>

    case USB_DESC_TYPE_CONFIGURATION:
      if (pdev->dev_speed == USBD_SPEED_HIGH)
 800839c:	687b      	ldr	r3, [r7, #4]
 800839e:	7c1b      	ldrb	r3, [r3, #16]
 80083a0:	2b00      	cmp	r3, #0
 80083a2:	d10d      	bne.n	80083c0 <USBD_GetDescriptor+0x84>
          pbuf = (uint8_t *)USBD_CMPSIT.GetHSConfigDescriptor(&len);
        }
        else
#endif /* USE_USBD_COMPOSITE */
        {
          pbuf = (uint8_t *)pdev->pClass[0]->GetHSConfigDescriptor(&len);
 80083a4:	687b      	ldr	r3, [r7, #4]
 80083a6:	f8d3 32b8 	ldr.w	r3, [r3, #696]	@ 0x2b8
 80083aa:	6a9b      	ldr	r3, [r3, #40]	@ 0x28
 80083ac:	f107 0208 	add.w	r2, r7, #8
 80083b0:	4610      	mov	r0, r2
 80083b2:	4798      	blx	r3
 80083b4:	60f8      	str	r0, [r7, #12]
        }
        pbuf[1] = USB_DESC_TYPE_CONFIGURATION;
 80083b6:	68fb      	ldr	r3, [r7, #12]
 80083b8:	3301      	adds	r3, #1
 80083ba:	2202      	movs	r2, #2
 80083bc:	701a      	strb	r2, [r3, #0]
        {
          pbuf = (uint8_t *)pdev->pClass[0]->GetFSConfigDescriptor(&len);
        }
        pbuf[1] = USB_DESC_TYPE_CONFIGURATION;
      }
      break;
 80083be:	e100      	b.n	80085c2 <USBD_GetDescriptor+0x286>
          pbuf = (uint8_t *)pdev->pClass[0]->GetFSConfigDescriptor(&len);
 80083c0:	687b      	ldr	r3, [r7, #4]
 80083c2:	f8d3 32b8 	ldr.w	r3, [r3, #696]	@ 0x2b8
 80083c6:	6adb      	ldr	r3, [r3, #44]	@ 0x2c
 80083c8:	f107 0208 	add.w	r2, r7, #8
 80083cc:	4610      	mov	r0, r2
 80083ce:	4798      	blx	r3
 80083d0:	60f8      	str	r0, [r7, #12]
        pbuf[1] = USB_DESC_TYPE_CONFIGURATION;
 80083d2:	68fb      	ldr	r3, [r7, #12]
 80083d4:	3301      	adds	r3, #1
 80083d6:	2202      	movs	r2, #2
 80083d8:	701a      	strb	r2, [r3, #0]
      break;
 80083da:	e0f2      	b.n	80085c2 <USBD_GetDescriptor+0x286>

    case USB_DESC_TYPE_STRING:
      switch ((uint8_t)(req->wValue))
 80083dc:	683b      	ldr	r3, [r7, #0]
 80083de:	885b      	ldrh	r3, [r3, #2]
 80083e0:	b2db      	uxtb	r3, r3
 80083e2:	2b05      	cmp	r3, #5
 80083e4:	f200 80ac 	bhi.w	8008540 <USBD_GetDescriptor+0x204>
 80083e8:	a201      	add	r2, pc, #4	@ (adr r2, 80083f0 <USBD_GetDescriptor+0xb4>)
 80083ea:	f852 f023 	ldr.w	pc, [r2, r3, lsl #2]
 80083ee:	bf00      	nop
 80083f0:	08008409 	.word	0x08008409
 80083f4:	0800843d 	.word	0x0800843d
 80083f8:	08008471 	.word	0x08008471
 80083fc:	080084a5 	.word	0x080084a5
 8008400:	080084d9 	.word	0x080084d9
 8008404:	0800850d 	.word	0x0800850d
      {
        case USBD_IDX_LANGID_STR:
          if (pdev->pDesc->GetLangIDStrDescriptor != NULL)
 8008408:	687b      	ldr	r3, [r7, #4]
 800840a:	f8d3 32b4 	ldr.w	r3, [r3, #692]	@ 0x2b4
 800840e:	685b      	ldr	r3, [r3, #4]
 8008410:	2b00      	cmp	r3, #0
 8008412:	d00b      	beq.n	800842c <USBD_GetDescriptor+0xf0>
          {
            pbuf = pdev->pDesc->GetLangIDStrDescriptor(pdev->dev_speed, &len);
 8008414:	687b      	ldr	r3, [r7, #4]
 8008416:	f8d3 32b4 	ldr.w	r3, [r3, #692]	@ 0x2b4
 800841a:	685b      	ldr	r3, [r3, #4]
 800841c:	687a      	ldr	r2, [r7, #4]
 800841e:	7c12      	ldrb	r2, [r2, #16]
 8008420:	f107 0108 	add.w	r1, r7, #8
 8008424:	4610      	mov	r0, r2
 8008426:	4798      	blx	r3
 8008428:	60f8      	str	r0, [r7, #12]
          else
          {
            USBD_CtlError(pdev, req);
            err++;
          }
          break;
 800842a:	e091      	b.n	8008550 <USBD_GetDescriptor+0x214>
            USBD_CtlError(pdev, req);
 800842c:	6839      	ldr	r1, [r7, #0]
 800842e:	6878      	ldr	r0, [r7, #4]
 8008430:	f000 facb 	bl	80089ca <USBD_CtlError>
            err++;
 8008434:	7afb      	ldrb	r3, [r7, #11]
 8008436:	3301      	adds	r3, #1
 8008438:	72fb      	strb	r3, [r7, #11]
          break;
 800843a:	e089      	b.n	8008550 <USBD_GetDescriptor+0x214>

        case USBD_IDX_MFC_STR:
          if (pdev->pDesc->GetManufacturerStrDescriptor != NULL)
 800843c:	687b      	ldr	r3, [r7, #4]
 800843e:	f8d3 32b4 	ldr.w	r3, [r3, #692]	@ 0x2b4
 8008442:	689b      	ldr	r3, [r3, #8]
 8008444:	2b00      	cmp	r3, #0
 8008446:	d00b      	beq.n	8008460 <USBD_GetDescriptor+0x124>
          {
            pbuf = pdev->pDesc->GetManufacturerStrDescriptor(pdev->dev_speed, &len);
 8008448:	687b      	ldr	r3, [r7, #4]
 800844a:	f8d3 32b4 	ldr.w	r3, [r3, #692]	@ 0x2b4
 800844e:	689b      	ldr	r3, [r3, #8]
 8008450:	687a      	ldr	r2, [r7, #4]
 8008452:	7c12      	ldrb	r2, [r2, #16]
 8008454:	f107 0108 	add.w	r1, r7, #8
 8008458:	4610      	mov	r0, r2
 800845a:	4798      	blx	r3
 800845c:	60f8      	str	r0, [r7, #12]
          else
          {
            USBD_CtlError(pdev, req);
            err++;
          }
          break;
 800845e:	e077      	b.n	8008550 <USBD_GetDescriptor+0x214>
            USBD_CtlError(pdev, req);
 8008460:	6839      	ldr	r1, [r7, #0]
 8008462:	6878      	ldr	r0, [r7, #4]
 8008464:	f000 fab1 	bl	80089ca <USBD_CtlError>
            err++;
 8008468:	7afb      	ldrb	r3, [r7, #11]
 800846a:	3301      	adds	r3, #1
 800846c:	72fb      	strb	r3, [r7, #11]
          break;
 800846e:	e06f      	b.n	8008550 <USBD_GetDescriptor+0x214>

        case USBD_IDX_PRODUCT_STR:
          if (pdev->pDesc->GetProductStrDescriptor != NULL)
 8008470:	687b      	ldr	r3, [r7, #4]
 8008472:	f8d3 32b4 	ldr.w	r3, [r3, #692]	@ 0x2b4
 8008476:	68db      	ldr	r3, [r3, #12]
 8008478:	2b00      	cmp	r3, #0
 800847a:	d00b      	beq.n	8008494 <USBD_GetDescriptor+0x158>
          {
            pbuf = pdev->pDesc->GetProductStrDescriptor(pdev->dev_speed, &len);
 800847c:	687b      	ldr	r3, [r7, #4]
 800847e:	f8d3 32b4 	ldr.w	r3, [r3, #692]	@ 0x2b4
 8008482:	68db      	ldr	r3, [r3, #12]
 8008484:	687a      	ldr	r2, [r7, #4]
 8008486:	7c12      	ldrb	r2, [r2, #16]
 8008488:	f107 0108 	add.w	r1, r7, #8
 800848c:	4610      	mov	r0, r2
 800848e:	4798      	blx	r3
 8008490:	60f8      	str	r0, [r7, #12]
          else
          {
            USBD_CtlError(pdev, req);
            err++;
          }
          break;
 8008492:	e05d      	b.n	8008550 <USBD_GetDescriptor+0x214>
            USBD_CtlError(pdev, req);
 8008494:	6839      	ldr	r1, [r7, #0]
 8008496:	6878      	ldr	r0, [r7, #4]
 8008498:	f000 fa97 	bl	80089ca <USBD_CtlError>
            err++;
 800849c:	7afb      	ldrb	r3, [r7, #11]
 800849e:	3301      	adds	r3, #1
 80084a0:	72fb      	strb	r3, [r7, #11]
          break;
 80084a2:	e055      	b.n	8008550 <USBD_GetDescriptor+0x214>

        case USBD_IDX_SERIAL_STR:
          if (pdev->pDesc->GetSerialStrDescriptor != NULL)
 80084a4:	687b      	ldr	r3, [r7, #4]
 80084a6:	f8d3 32b4 	ldr.w	r3, [r3, #692]	@ 0x2b4
 80084aa:	691b      	ldr	r3, [r3, #16]
 80084ac:	2b00      	cmp	r3, #0
 80084ae:	d00b      	beq.n	80084c8 <USBD_GetDescriptor+0x18c>
          {
            pbuf = pdev->pDesc->GetSerialStrDescriptor(pdev->dev_speed, &len);
 80084b0:	687b      	ldr	r3, [r7, #4]
 80084b2:	f8d3 32b4 	ldr.w	r3, [r3, #692]	@ 0x2b4
 80084b6:	691b      	ldr	r3, [r3, #16]
 80084b8:	687a      	ldr	r2, [r7, #4]
 80084ba:	7c12      	ldrb	r2, [r2, #16]
 80084bc:	f107 0108 	add.w	r1, r7, #8
 80084c0:	4610      	mov	r0, r2
 80084c2:	4798      	blx	r3
 80084c4:	60f8      	str	r0, [r7, #12]
          else
          {
            USBD_CtlError(pdev, req);
            err++;
          }
          break;
 80084c6:	e043      	b.n	8008550 <USBD_GetDescriptor+0x214>
            USBD_CtlError(pdev, req);
 80084c8:	6839      	ldr	r1, [r7, #0]
 80084ca:	6878      	ldr	r0, [r7, #4]
 80084cc:	f000 fa7d 	bl	80089ca <USBD_CtlError>
            err++;
 80084d0:	7afb      	ldrb	r3, [r7, #11]
 80084d2:	3301      	adds	r3, #1
 80084d4:	72fb      	strb	r3, [r7, #11]
          break;
 80084d6:	e03b      	b.n	8008550 <USBD_GetDescriptor+0x214>

        case USBD_IDX_CONFIG_STR:
          if (pdev->pDesc->GetConfigurationStrDescriptor != NULL)
 80084d8:	687b      	ldr	r3, [r7, #4]
 80084da:	f8d3 32b4 	ldr.w	r3, [r3, #692]	@ 0x2b4
 80084de:	695b      	ldr	r3, [r3, #20]
 80084e0:	2b00      	cmp	r3, #0
 80084e2:	d00b      	beq.n	80084fc <USBD_GetDescriptor+0x1c0>
          {
            pbuf = pdev->pDesc->GetConfigurationStrDescriptor(pdev->dev_speed, &len);
 80084e4:	687b      	ldr	r3, [r7, #4]
 80084e6:	f8d3 32b4 	ldr.w	r3, [r3, #692]	@ 0x2b4
 80084ea:	695b      	ldr	r3, [r3, #20]
 80084ec:	687a      	ldr	r2, [r7, #4]
 80084ee:	7c12      	ldrb	r2, [r2, #16]
 80084f0:	f107 0108 	add.w	r1, r7, #8
 80084f4:	4610      	mov	r0, r2
 80084f6:	4798      	blx	r3
 80084f8:	60f8      	str	r0, [r7, #12]
          else
          {
            USBD_CtlError(pdev, req);
            err++;
          }
          break;
 80084fa:	e029      	b.n	8008550 <USBD_GetDescriptor+0x214>
            USBD_CtlError(pdev, req);
 80084fc:	6839      	ldr	r1, [r7, #0]
 80084fe:	6878      	ldr	r0, [r7, #4]
 8008500:	f000 fa63 	bl	80089ca <USBD_CtlError>
            err++;
 8008504:	7afb      	ldrb	r3, [r7, #11]
 8008506:	3301      	adds	r3, #1
 8008508:	72fb      	strb	r3, [r7, #11]
          break;
 800850a:	e021      	b.n	8008550 <USBD_GetDescriptor+0x214>

        case USBD_IDX_INTERFACE_STR:
          if (pdev->pDesc->GetInterfaceStrDescriptor != NULL)
 800850c:	687b      	ldr	r3, [r7, #4]
 800850e:	f8d3 32b4 	ldr.w	r3, [r3, #692]	@ 0x2b4
 8008512:	699b      	ldr	r3, [r3, #24]
 8008514:	2b00      	cmp	r3, #0
 8008516:	d00b      	beq.n	8008530 <USBD_GetDescriptor+0x1f4>
          {
            pbuf = pdev->pDesc->GetInterfaceStrDescriptor(pdev->dev_speed, &len);
 8008518:	687b      	ldr	r3, [r7, #4]
 800851a:	f8d3 32b4 	ldr.w	r3, [r3, #692]	@ 0x2b4
 800851e:	699b      	ldr	r3, [r3, #24]
 8008520:	687a      	ldr	r2, [r7, #4]
 8008522:	7c12      	ldrb	r2, [r2, #16]
 8008524:	f107 0108 	add.w	r1, r7, #8
 8008528:	4610      	mov	r0, r2
 800852a:	4798      	blx	r3
 800852c:	60f8      	str	r0, [r7, #12]
          else
          {
            USBD_CtlError(pdev, req);
            err++;
          }
          break;
 800852e:	e00f      	b.n	8008550 <USBD_GetDescriptor+0x214>
            USBD_CtlError(pdev, req);
 8008530:	6839      	ldr	r1, [r7, #0]
 8008532:	6878      	ldr	r0, [r7, #4]
 8008534:	f000 fa49 	bl	80089ca <USBD_CtlError>
            err++;
 8008538:	7afb      	ldrb	r3, [r7, #11]
 800853a:	3301      	adds	r3, #1
 800853c:	72fb      	strb	r3, [r7, #11]
          break;
 800853e:	e007      	b.n	8008550 <USBD_GetDescriptor+0x214>
            err++;
          }
#endif /* USBD_SUPPORT_USER_STRING_DESC  */

#if ((USBD_CLASS_USER_STRING_DESC == 0U) && (USBD_SUPPORT_USER_STRING_DESC == 0U))
          USBD_CtlError(pdev, req);
 8008540:	6839      	ldr	r1, [r7, #0]
 8008542:	6878      	ldr	r0, [r7, #4]
 8008544:	f000 fa41 	bl	80089ca <USBD_CtlError>
          err++;
 8008548:	7afb      	ldrb	r3, [r7, #11]
 800854a:	3301      	adds	r3, #1
 800854c:	72fb      	strb	r3, [r7, #11]
#endif /* (USBD_CLASS_USER_STRING_DESC == 0U) && (USBD_SUPPORT_USER_STRING_DESC == 0U) */
          break;
 800854e:	bf00      	nop
      }
      break;
 8008550:	e037      	b.n	80085c2 <USBD_GetDescriptor+0x286>

    case USB_DESC_TYPE_DEVICE_QUALIFIER:
      if (pdev->dev_speed == USBD_SPEED_HIGH)
 8008552:	687b      	ldr	r3, [r7, #4]
 8008554:	7c1b      	ldrb	r3, [r3, #16]
 8008556:	2b00      	cmp	r3, #0
 8008558:	d109      	bne.n	800856e <USBD_GetDescriptor+0x232>
          pbuf = (uint8_t *)USBD_CMPSIT.GetDeviceQualifierDescriptor(&len);
        }
        else
#endif /* USE_USBD_COMPOSITE */
        {
          pbuf = (uint8_t *)pdev->pClass[0]->GetDeviceQualifierDescriptor(&len);
 800855a:	687b      	ldr	r3, [r7, #4]
 800855c:	f8d3 32b8 	ldr.w	r3, [r3, #696]	@ 0x2b8
 8008560:	6b5b      	ldr	r3, [r3, #52]	@ 0x34
 8008562:	f107 0208 	add.w	r2, r7, #8
 8008566:	4610      	mov	r0, r2
 8008568:	4798      	blx	r3
 800856a:	60f8      	str	r0, [r7, #12]
      else
      {
        USBD_CtlError(pdev, req);
        err++;
      }
      break;
 800856c:	e029      	b.n	80085c2 <USBD_GetDescriptor+0x286>
        USBD_CtlError(pdev, req);
 800856e:	6839      	ldr	r1, [r7, #0]
 8008570:	6878      	ldr	r0, [r7, #4]
 8008572:	f000 fa2a 	bl	80089ca <USBD_CtlError>
        err++;
 8008576:	7afb      	ldrb	r3, [r7, #11]
 8008578:	3301      	adds	r3, #1
 800857a:	72fb      	strb	r3, [r7, #11]
      break;
 800857c:	e021      	b.n	80085c2 <USBD_GetDescriptor+0x286>

    case USB_DESC_TYPE_OTHER_SPEED_CONFIGURATION:
      if (pdev->dev_speed == USBD_SPEED_HIGH)
 800857e:	687b      	ldr	r3, [r7, #4]
 8008580:	7c1b      	ldrb	r3, [r3, #16]
 8008582:	2b00      	cmp	r3, #0
 8008584:	d10d      	bne.n	80085a2 <USBD_GetDescriptor+0x266>
          pbuf = (uint8_t *)USBD_CMPSIT.GetOtherSpeedConfigDescriptor(&len);
        }
        else
#endif /* USE_USBD_COMPOSITE */
        {
          pbuf = (uint8_t *)pdev->pClass[0]->GetOtherSpeedConfigDescriptor(&len);
 8008586:	687b      	ldr	r3, [r7, #4]
 8008588:	f8d3 32b8 	ldr.w	r3, [r3, #696]	@ 0x2b8
 800858c:	6b1b      	ldr	r3, [r3, #48]	@ 0x30
 800858e:	f107 0208 	add.w	r2, r7, #8
 8008592:	4610      	mov	r0, r2
 8008594:	4798      	blx	r3
 8008596:	60f8      	str	r0, [r7, #12]
        }
        pbuf[1] = USB_DESC_TYPE_OTHER_SPEED_CONFIGURATION;
 8008598:	68fb      	ldr	r3, [r7, #12]
 800859a:	3301      	adds	r3, #1
 800859c:	2207      	movs	r2, #7
 800859e:	701a      	strb	r2, [r3, #0]
      else
      {
        USBD_CtlError(pdev, req);
        err++;
      }
      break;
 80085a0:	e00f      	b.n	80085c2 <USBD_GetDescriptor+0x286>
        USBD_CtlError(pdev, req);
 80085a2:	6839      	ldr	r1, [r7, #0]
 80085a4:	6878      	ldr	r0, [r7, #4]
 80085a6:	f000 fa10 	bl	80089ca <USBD_CtlError>
        err++;
 80085aa:	7afb      	ldrb	r3, [r7, #11]
 80085ac:	3301      	adds	r3, #1
 80085ae:	72fb      	strb	r3, [r7, #11]
      break;
 80085b0:	e007      	b.n	80085c2 <USBD_GetDescriptor+0x286>

    default:
      USBD_CtlError(pdev, req);
 80085b2:	6839      	ldr	r1, [r7, #0]
 80085b4:	6878      	ldr	r0, [r7, #4]
 80085b6:	f000 fa08 	bl	80089ca <USBD_CtlError>
      err++;
 80085ba:	7afb      	ldrb	r3, [r7, #11]
 80085bc:	3301      	adds	r3, #1
 80085be:	72fb      	strb	r3, [r7, #11]
      break;
 80085c0:	bf00      	nop
  }

  if (err != 0U)
 80085c2:	7afb      	ldrb	r3, [r7, #11]
 80085c4:	2b00      	cmp	r3, #0
 80085c6:	d11e      	bne.n	8008606 <USBD_GetDescriptor+0x2ca>
  {
    return;
  }

  if (req->wLength != 0U)
 80085c8:	683b      	ldr	r3, [r7, #0]
 80085ca:	88db      	ldrh	r3, [r3, #6]
 80085cc:	2b00      	cmp	r3, #0
 80085ce:	d016      	beq.n	80085fe <USBD_GetDescriptor+0x2c2>
  {
    if (len != 0U)
 80085d0:	893b      	ldrh	r3, [r7, #8]
 80085d2:	2b00      	cmp	r3, #0
 80085d4:	d00e      	beq.n	80085f4 <USBD_GetDescriptor+0x2b8>
    {
      len = MIN(len, req->wLength);
 80085d6:	683b      	ldr	r3, [r7, #0]
 80085d8:	88da      	ldrh	r2, [r3, #6]
 80085da:	893b      	ldrh	r3, [r7, #8]
 80085dc:	4293      	cmp	r3, r2
 80085de:	bf28      	it	cs
 80085e0:	4613      	movcs	r3, r2
 80085e2:	b29b      	uxth	r3, r3
 80085e4:	813b      	strh	r3, [r7, #8]
      (void)USBD_CtlSendData(pdev, pbuf, len);
 80085e6:	893b      	ldrh	r3, [r7, #8]
 80085e8:	461a      	mov	r2, r3
 80085ea:	68f9      	ldr	r1, [r7, #12]
 80085ec:	6878      	ldr	r0, [r7, #4]
 80085ee:	f000 fa69 	bl	8008ac4 <USBD_CtlSendData>
 80085f2:	e009      	b.n	8008608 <USBD_GetDescriptor+0x2cc>
    }
    else
    {
      USBD_CtlError(pdev, req);
 80085f4:	6839      	ldr	r1, [r7, #0]
 80085f6:	6878      	ldr	r0, [r7, #4]
 80085f8:	f000 f9e7 	bl	80089ca <USBD_CtlError>
 80085fc:	e004      	b.n	8008608 <USBD_GetDescriptor+0x2cc>
    }
  }
  else
  {
    (void)USBD_CtlSendStatus(pdev);
 80085fe:	6878      	ldr	r0, [r7, #4]
 8008600:	f000 fac1 	bl	8008b86 <USBD_CtlSendStatus>
 8008604:	e000      	b.n	8008608 <USBD_GetDescriptor+0x2cc>
    return;
 8008606:	bf00      	nop
  }
}
 8008608:	3710      	adds	r7, #16
 800860a:	46bd      	mov	sp, r7
 800860c:	bd80      	pop	{r7, pc}
 800860e:	bf00      	nop

08008610 <USBD_SetAddress>:
  * @param  pdev: device instance
  * @param  req: usb request
  * @retval None
  */
static void USBD_SetAddress(USBD_HandleTypeDef *pdev, USBD_SetupReqTypedef *req)
{
 8008610:	b580      	push	{r7, lr}
 8008612:	b084      	sub	sp, #16
 8008614:	af00      	add	r7, sp, #0
 8008616:	6078      	str	r0, [r7, #4]
 8008618:	6039      	str	r1, [r7, #0]
  uint8_t  dev_addr;

  if ((req->wIndex == 0U) && (req->wLength == 0U) && (req->wValue < 128U))
 800861a:	683b      	ldr	r3, [r7, #0]
 800861c:	889b      	ldrh	r3, [r3, #4]
 800861e:	2b00      	cmp	r3, #0
 8008620:	d131      	bne.n	8008686 <USBD_SetAddress+0x76>
 8008622:	683b      	ldr	r3, [r7, #0]
 8008624:	88db      	ldrh	r3, [r3, #6]
 8008626:	2b00      	cmp	r3, #0
 8008628:	d12d      	bne.n	8008686 <USBD_SetAddress+0x76>
 800862a:	683b      	ldr	r3, [r7, #0]
 800862c:	885b      	ldrh	r3, [r3, #2]
 800862e:	2b7f      	cmp	r3, #127	@ 0x7f
 8008630:	d829      	bhi.n	8008686 <USBD_SetAddress+0x76>
  {
    dev_addr = (uint8_t)(req->wValue) & 0x7FU;
 8008632:	683b      	ldr	r3, [r7, #0]
 8008634:	885b      	ldrh	r3, [r3, #2]
 8008636:	b2db      	uxtb	r3, r3
 8008638:	f003 037f 	and.w	r3, r3, #127	@ 0x7f
 800863c:	73fb      	strb	r3, [r7, #15]

    if (pdev->dev_state == USBD_STATE_CONFIGURED)
 800863e:	687b      	ldr	r3, [r7, #4]
 8008640:	f893 329c 	ldrb.w	r3, [r3, #668]	@ 0x29c
 8008644:	b2db      	uxtb	r3, r3
 8008646:	2b03      	cmp	r3, #3
 8008648:	d104      	bne.n	8008654 <USBD_SetAddress+0x44>
    {
      USBD_CtlError(pdev, req);
 800864a:	6839      	ldr	r1, [r7, #0]
 800864c:	6878      	ldr	r0, [r7, #4]
 800864e:	f000 f9bc 	bl	80089ca <USBD_CtlError>
    if (pdev->dev_state == USBD_STATE_CONFIGURED)
 8008652:	e01d      	b.n	8008690 <USBD_SetAddress+0x80>
    }
    else
    {
      pdev->dev_address = dev_addr;
 8008654:	687b      	ldr	r3, [r7, #4]
 8008656:	7bfa      	ldrb	r2, [r7, #15]
 8008658:	f883 229e 	strb.w	r2, [r3, #670]	@ 0x29e
      (void)USBD_LL_SetUSBAddress(pdev, dev_addr);
 800865c:	7bfb      	ldrb	r3, [r7, #15]
 800865e:	4619      	mov	r1, r3
 8008660:	6878      	ldr	r0, [r7, #4]
 8008662:	f000 ff79 	bl	8009558 <USBD_LL_SetUSBAddress>
      (void)USBD_CtlSendStatus(pdev);
 8008666:	6878      	ldr	r0, [r7, #4]
 8008668:	f000 fa8d 	bl	8008b86 <USBD_CtlSendStatus>

      if (dev_addr != 0U)
 800866c:	7bfb      	ldrb	r3, [r7, #15]
 800866e:	2b00      	cmp	r3, #0
 8008670:	d004      	beq.n	800867c <USBD_SetAddress+0x6c>
      {
        pdev->dev_state = USBD_STATE_ADDRESSED;
 8008672:	687b      	ldr	r3, [r7, #4]
 8008674:	2202      	movs	r2, #2
 8008676:	f883 229c 	strb.w	r2, [r3, #668]	@ 0x29c
    if (pdev->dev_state == USBD_STATE_CONFIGURED)
 800867a:	e009      	b.n	8008690 <USBD_SetAddress+0x80>
      }
      else
      {
        pdev->dev_state = USBD_STATE_DEFAULT;
 800867c:	687b      	ldr	r3, [r7, #4]
 800867e:	2201      	movs	r2, #1
 8008680:	f883 229c 	strb.w	r2, [r3, #668]	@ 0x29c
    if (pdev->dev_state == USBD_STATE_CONFIGURED)
 8008684:	e004      	b.n	8008690 <USBD_SetAddress+0x80>
      }
    }
  }
  else
  {
    USBD_CtlError(pdev, req);
 8008686:	6839      	ldr	r1, [r7, #0]
 8008688:	6878      	ldr	r0, [r7, #4]
 800868a:	f000 f99e 	bl	80089ca <USBD_CtlError>
  }
}
 800868e:	bf00      	nop
 8008690:	bf00      	nop
 8008692:	3710      	adds	r7, #16
 8008694:	46bd      	mov	sp, r7
 8008696:	bd80      	pop	{r7, pc}

08008698 <USBD_SetConfig>:
  * @param  pdev: device instance
  * @param  req: usb request
  * @retval status
  */
static USBD_StatusTypeDef USBD_SetConfig(USBD_HandleTypeDef *pdev, USBD_SetupReqTypedef *req)
{
 8008698:	b580      	push	{r7, lr}
 800869a:	b084      	sub	sp, #16
 800869c:	af00      	add	r7, sp, #0
 800869e:	6078      	str	r0, [r7, #4]
 80086a0:	6039      	str	r1, [r7, #0]
  USBD_StatusTypeDef ret = USBD_OK;
 80086a2:	2300      	movs	r3, #0
 80086a4:	73fb      	strb	r3, [r7, #15]
  static uint8_t cfgidx;

  cfgidx = (uint8_t)(req->wValue);
 80086a6:	683b      	ldr	r3, [r7, #0]
 80086a8:	885b      	ldrh	r3, [r3, #2]
 80086aa:	b2da      	uxtb	r2, r3
 80086ac:	4b4e      	ldr	r3, [pc, #312]	@ (80087e8 <USBD_SetConfig+0x150>)
 80086ae:	701a      	strb	r2, [r3, #0]

  if (cfgidx > USBD_MAX_NUM_CONFIGURATION)
 80086b0:	4b4d      	ldr	r3, [pc, #308]	@ (80087e8 <USBD_SetConfig+0x150>)
 80086b2:	781b      	ldrb	r3, [r3, #0]
 80086b4:	2b01      	cmp	r3, #1
 80086b6:	d905      	bls.n	80086c4 <USBD_SetConfig+0x2c>
  {
    USBD_CtlError(pdev, req);
 80086b8:	6839      	ldr	r1, [r7, #0]
 80086ba:	6878      	ldr	r0, [r7, #4]
 80086bc:	f000 f985 	bl	80089ca <USBD_CtlError>
    return USBD_FAIL;
 80086c0:	2303      	movs	r3, #3
 80086c2:	e08c      	b.n	80087de <USBD_SetConfig+0x146>
  }

  switch (pdev->dev_state)
 80086c4:	687b      	ldr	r3, [r7, #4]
 80086c6:	f893 329c 	ldrb.w	r3, [r3, #668]	@ 0x29c
 80086ca:	b2db      	uxtb	r3, r3
 80086cc:	2b02      	cmp	r3, #2
 80086ce:	d002      	beq.n	80086d6 <USBD_SetConfig+0x3e>
 80086d0:	2b03      	cmp	r3, #3
 80086d2:	d029      	beq.n	8008728 <USBD_SetConfig+0x90>
 80086d4:	e075      	b.n	80087c2 <USBD_SetConfig+0x12a>
  {
    case USBD_STATE_ADDRESSED:
      if (cfgidx != 0U)
 80086d6:	4b44      	ldr	r3, [pc, #272]	@ (80087e8 <USBD_SetConfig+0x150>)
 80086d8:	781b      	ldrb	r3, [r3, #0]
 80086da:	2b00      	cmp	r3, #0
 80086dc:	d020      	beq.n	8008720 <USBD_SetConfig+0x88>
      {
        pdev->dev_config = cfgidx;
 80086de:	4b42      	ldr	r3, [pc, #264]	@ (80087e8 <USBD_SetConfig+0x150>)
 80086e0:	781b      	ldrb	r3, [r3, #0]
 80086e2:	461a      	mov	r2, r3
 80086e4:	687b      	ldr	r3, [r7, #4]
 80086e6:	605a      	str	r2, [r3, #4]

        ret = USBD_SetClassConfig(pdev, cfgidx);
 80086e8:	4b3f      	ldr	r3, [pc, #252]	@ (80087e8 <USBD_SetConfig+0x150>)
 80086ea:	781b      	ldrb	r3, [r3, #0]
 80086ec:	4619      	mov	r1, r3
 80086ee:	6878      	ldr	r0, [r7, #4]
 80086f0:	f7fe ffcd 	bl	800768e <USBD_SetClassConfig>
 80086f4:	4603      	mov	r3, r0
 80086f6:	73fb      	strb	r3, [r7, #15]

        if (ret != USBD_OK)
 80086f8:	7bfb      	ldrb	r3, [r7, #15]
 80086fa:	2b00      	cmp	r3, #0
 80086fc:	d008      	beq.n	8008710 <USBD_SetConfig+0x78>
        {
          USBD_CtlError(pdev, req);
 80086fe:	6839      	ldr	r1, [r7, #0]
 8008700:	6878      	ldr	r0, [r7, #4]
 8008702:	f000 f962 	bl	80089ca <USBD_CtlError>
          pdev->dev_state = USBD_STATE_ADDRESSED;
 8008706:	687b      	ldr	r3, [r7, #4]
 8008708:	2202      	movs	r2, #2
 800870a:	f883 229c 	strb.w	r2, [r3, #668]	@ 0x29c
      }
      else
      {
        (void)USBD_CtlSendStatus(pdev);
      }
      break;
 800870e:	e065      	b.n	80087dc <USBD_SetConfig+0x144>
          (void)USBD_CtlSendStatus(pdev);
 8008710:	6878      	ldr	r0, [r7, #4]
 8008712:	f000 fa38 	bl	8008b86 <USBD_CtlSendStatus>
          pdev->dev_state = USBD_STATE_CONFIGURED;
 8008716:	687b      	ldr	r3, [r7, #4]
 8008718:	2203      	movs	r2, #3
 800871a:	f883 229c 	strb.w	r2, [r3, #668]	@ 0x29c
      break;
 800871e:	e05d      	b.n	80087dc <USBD_SetConfig+0x144>
        (void)USBD_CtlSendStatus(pdev);
 8008720:	6878      	ldr	r0, [r7, #4]
 8008722:	f000 fa30 	bl	8008b86 <USBD_CtlSendStatus>
      break;
 8008726:	e059      	b.n	80087dc <USBD_SetConfig+0x144>

    case USBD_STATE_CONFIGURED:
      if (cfgidx == 0U)
 8008728:	4b2f      	ldr	r3, [pc, #188]	@ (80087e8 <USBD_SetConfig+0x150>)
 800872a:	781b      	ldrb	r3, [r3, #0]
 800872c:	2b00      	cmp	r3, #0
 800872e:	d112      	bne.n	8008756 <USBD_SetConfig+0xbe>
      {
        pdev->dev_state = USBD_STATE_ADDRESSED;
 8008730:	687b      	ldr	r3, [r7, #4]
 8008732:	2202      	movs	r2, #2
 8008734:	f883 229c 	strb.w	r2, [r3, #668]	@ 0x29c
        pdev->dev_config = cfgidx;
 8008738:	4b2b      	ldr	r3, [pc, #172]	@ (80087e8 <USBD_SetConfig+0x150>)
 800873a:	781b      	ldrb	r3, [r3, #0]
 800873c:	461a      	mov	r2, r3
 800873e:	687b      	ldr	r3, [r7, #4]
 8008740:	605a      	str	r2, [r3, #4]
        (void)USBD_ClrClassConfig(pdev, cfgidx);
 8008742:	4b29      	ldr	r3, [pc, #164]	@ (80087e8 <USBD_SetConfig+0x150>)
 8008744:	781b      	ldrb	r3, [r3, #0]
 8008746:	4619      	mov	r1, r3
 8008748:	6878      	ldr	r0, [r7, #4]
 800874a:	f7fe ffbc 	bl	80076c6 <USBD_ClrClassConfig>
        (void)USBD_CtlSendStatus(pdev);
 800874e:	6878      	ldr	r0, [r7, #4]
 8008750:	f000 fa19 	bl	8008b86 <USBD_CtlSendStatus>
      }
      else
      {
        (void)USBD_CtlSendStatus(pdev);
      }
      break;
 8008754:	e042      	b.n	80087dc <USBD_SetConfig+0x144>
      else if (cfgidx != pdev->dev_config)
 8008756:	4b24      	ldr	r3, [pc, #144]	@ (80087e8 <USBD_SetConfig+0x150>)
 8008758:	781b      	ldrb	r3, [r3, #0]
 800875a:	461a      	mov	r2, r3
 800875c:	687b      	ldr	r3, [r7, #4]
 800875e:	685b      	ldr	r3, [r3, #4]
 8008760:	429a      	cmp	r2, r3
 8008762:	d02a      	beq.n	80087ba <USBD_SetConfig+0x122>
        (void)USBD_ClrClassConfig(pdev, (uint8_t)pdev->dev_config);
 8008764:	687b      	ldr	r3, [r7, #4]
 8008766:	685b      	ldr	r3, [r3, #4]
 8008768:	b2db      	uxtb	r3, r3
 800876a:	4619      	mov	r1, r3
 800876c:	6878      	ldr	r0, [r7, #4]
 800876e:	f7fe ffaa 	bl	80076c6 <USBD_ClrClassConfig>
        pdev->dev_config = cfgidx;
 8008772:	4b1d      	ldr	r3, [pc, #116]	@ (80087e8 <USBD_SetConfig+0x150>)
 8008774:	781b      	ldrb	r3, [r3, #0]
 8008776:	461a      	mov	r2, r3
 8008778:	687b      	ldr	r3, [r7, #4]
 800877a:	605a      	str	r2, [r3, #4]
        ret = USBD_SetClassConfig(pdev, cfgidx);
 800877c:	4b1a      	ldr	r3, [pc, #104]	@ (80087e8 <USBD_SetConfig+0x150>)
 800877e:	781b      	ldrb	r3, [r3, #0]
 8008780:	4619      	mov	r1, r3
 8008782:	6878      	ldr	r0, [r7, #4]
 8008784:	f7fe ff83 	bl	800768e <USBD_SetClassConfig>
 8008788:	4603      	mov	r3, r0
 800878a:	73fb      	strb	r3, [r7, #15]
        if (ret != USBD_OK)
 800878c:	7bfb      	ldrb	r3, [r7, #15]
 800878e:	2b00      	cmp	r3, #0
 8008790:	d00f      	beq.n	80087b2 <USBD_SetConfig+0x11a>
          USBD_CtlError(pdev, req);
 8008792:	6839      	ldr	r1, [r7, #0]
 8008794:	6878      	ldr	r0, [r7, #4]
 8008796:	f000 f918 	bl	80089ca <USBD_CtlError>
          (void)USBD_ClrClassConfig(pdev, (uint8_t)pdev->dev_config);
 800879a:	687b      	ldr	r3, [r7, #4]
 800879c:	685b      	ldr	r3, [r3, #4]
 800879e:	b2db      	uxtb	r3, r3
 80087a0:	4619      	mov	r1, r3
 80087a2:	6878      	ldr	r0, [r7, #4]
 80087a4:	f7fe ff8f 	bl	80076c6 <USBD_ClrClassConfig>
          pdev->dev_state = USBD_STATE_ADDRESSED;
 80087a8:	687b      	ldr	r3, [r7, #4]
 80087aa:	2202      	movs	r2, #2
 80087ac:	f883 229c 	strb.w	r2, [r3, #668]	@ 0x29c
      break;
 80087b0:	e014      	b.n	80087dc <USBD_SetConfig+0x144>
          (void)USBD_CtlSendStatus(pdev);
 80087b2:	6878      	ldr	r0, [r7, #4]
 80087b4:	f000 f9e7 	bl	8008b86 <USBD_CtlSendStatus>
      break;
 80087b8:	e010      	b.n	80087dc <USBD_SetConfig+0x144>
        (void)USBD_CtlSendStatus(pdev);
 80087ba:	6878      	ldr	r0, [r7, #4]
 80087bc:	f000 f9e3 	bl	8008b86 <USBD_CtlSendStatus>
      break;
 80087c0:	e00c      	b.n	80087dc <USBD_SetConfig+0x144>

    default:
      USBD_CtlError(pdev, req);
 80087c2:	6839      	ldr	r1, [r7, #0]
 80087c4:	6878      	ldr	r0, [r7, #4]
 80087c6:	f000 f900 	bl	80089ca <USBD_CtlError>
      (void)USBD_ClrClassConfig(pdev, cfgidx);
 80087ca:	4b07      	ldr	r3, [pc, #28]	@ (80087e8 <USBD_SetConfig+0x150>)
 80087cc:	781b      	ldrb	r3, [r3, #0]
 80087ce:	4619      	mov	r1, r3
 80087d0:	6878      	ldr	r0, [r7, #4]
 80087d2:	f7fe ff78 	bl	80076c6 <USBD_ClrClassConfig>
      ret = USBD_FAIL;
 80087d6:	2303      	movs	r3, #3
 80087d8:	73fb      	strb	r3, [r7, #15]
      break;
 80087da:	bf00      	nop
  }

  return ret;
 80087dc:	7bfb      	ldrb	r3, [r7, #15]
}
 80087de:	4618      	mov	r0, r3
 80087e0:	3710      	adds	r7, #16
 80087e2:	46bd      	mov	sp, r7
 80087e4:	bd80      	pop	{r7, pc}
 80087e6:	bf00      	nop
 80087e8:	20000adc 	.word	0x20000adc

080087ec <USBD_GetConfig>:
  * @param  pdev: device instance
  * @param  req: usb request
  * @retval None
  */
static void USBD_GetConfig(USBD_HandleTypeDef *pdev, USBD_SetupReqTypedef *req)
{
 80087ec:	b580      	push	{r7, lr}
 80087ee:	b082      	sub	sp, #8
 80087f0:	af00      	add	r7, sp, #0
 80087f2:	6078      	str	r0, [r7, #4]
 80087f4:	6039      	str	r1, [r7, #0]
  if (req->wLength != 1U)
 80087f6:	683b      	ldr	r3, [r7, #0]
 80087f8:	88db      	ldrh	r3, [r3, #6]
 80087fa:	2b01      	cmp	r3, #1
 80087fc:	d004      	beq.n	8008808 <USBD_GetConfig+0x1c>
  {
    USBD_CtlError(pdev, req);
 80087fe:	6839      	ldr	r1, [r7, #0]
 8008800:	6878      	ldr	r0, [r7, #4]
 8008802:	f000 f8e2 	bl	80089ca <USBD_CtlError>
      default:
        USBD_CtlError(pdev, req);
        break;
    }
  }
}
 8008806:	e023      	b.n	8008850 <USBD_GetConfig+0x64>
    switch (pdev->dev_state)
 8008808:	687b      	ldr	r3, [r7, #4]
 800880a:	f893 329c 	ldrb.w	r3, [r3, #668]	@ 0x29c
 800880e:	b2db      	uxtb	r3, r3
 8008810:	2b02      	cmp	r3, #2
 8008812:	dc02      	bgt.n	800881a <USBD_GetConfig+0x2e>
 8008814:	2b00      	cmp	r3, #0
 8008816:	dc03      	bgt.n	8008820 <USBD_GetConfig+0x34>
 8008818:	e015      	b.n	8008846 <USBD_GetConfig+0x5a>
 800881a:	2b03      	cmp	r3, #3
 800881c:	d00b      	beq.n	8008836 <USBD_GetConfig+0x4a>
 800881e:	e012      	b.n	8008846 <USBD_GetConfig+0x5a>
        pdev->dev_default_config = 0U;
 8008820:	687b      	ldr	r3, [r7, #4]
 8008822:	2200      	movs	r2, #0
 8008824:	609a      	str	r2, [r3, #8]
        (void)USBD_CtlSendData(pdev, (uint8_t *)&pdev->dev_default_config, 1U);
 8008826:	687b      	ldr	r3, [r7, #4]
 8008828:	3308      	adds	r3, #8
 800882a:	2201      	movs	r2, #1
 800882c:	4619      	mov	r1, r3
 800882e:	6878      	ldr	r0, [r7, #4]
 8008830:	f000 f948 	bl	8008ac4 <USBD_CtlSendData>
        break;
 8008834:	e00c      	b.n	8008850 <USBD_GetConfig+0x64>
        (void)USBD_CtlSendData(pdev, (uint8_t *)&pdev->dev_config, 1U);
 8008836:	687b      	ldr	r3, [r7, #4]
 8008838:	3304      	adds	r3, #4
 800883a:	2201      	movs	r2, #1
 800883c:	4619      	mov	r1, r3
 800883e:	6878      	ldr	r0, [r7, #4]
 8008840:	f000 f940 	bl	8008ac4 <USBD_CtlSendData>
        break;
 8008844:	e004      	b.n	8008850 <USBD_GetConfig+0x64>
        USBD_CtlError(pdev, req);
 8008846:	6839      	ldr	r1, [r7, #0]
 8008848:	6878      	ldr	r0, [r7, #4]
 800884a:	f000 f8be 	bl	80089ca <USBD_CtlError>
        break;
 800884e:	bf00      	nop
}
 8008850:	bf00      	nop
 8008852:	3708      	adds	r7, #8
 8008854:	46bd      	mov	sp, r7
 8008856:	bd80      	pop	{r7, pc}

08008858 <USBD_GetStatus>:
  * @param  pdev: device instance
  * @param  req: usb request
  * @retval None
  */
static void USBD_GetStatus(USBD_HandleTypeDef *pdev, USBD_SetupReqTypedef *req)
{
 8008858:	b580      	push	{r7, lr}
 800885a:	b082      	sub	sp, #8
 800885c:	af00      	add	r7, sp, #0
 800885e:	6078      	str	r0, [r7, #4]
 8008860:	6039      	str	r1, [r7, #0]
  switch (pdev->dev_state)
 8008862:	687b      	ldr	r3, [r7, #4]
 8008864:	f893 329c 	ldrb.w	r3, [r3, #668]	@ 0x29c
 8008868:	b2db      	uxtb	r3, r3
 800886a:	3b01      	subs	r3, #1
 800886c:	2b02      	cmp	r3, #2
 800886e:	d81e      	bhi.n	80088ae <USBD_GetStatus+0x56>
  {
    case USBD_STATE_DEFAULT:
    case USBD_STATE_ADDRESSED:
    case USBD_STATE_CONFIGURED:
      if (req->wLength != 0x2U)
 8008870:	683b      	ldr	r3, [r7, #0]
 8008872:	88db      	ldrh	r3, [r3, #6]
 8008874:	2b02      	cmp	r3, #2
 8008876:	d004      	beq.n	8008882 <USBD_GetStatus+0x2a>
      {
        USBD_CtlError(pdev, req);
 8008878:	6839      	ldr	r1, [r7, #0]
 800887a:	6878      	ldr	r0, [r7, #4]
 800887c:	f000 f8a5 	bl	80089ca <USBD_CtlError>
        break;
 8008880:	e01a      	b.n	80088b8 <USBD_GetStatus+0x60>
      }

#if (USBD_SELF_POWERED == 1U)
      pdev->dev_config_status = USB_CONFIG_SELF_POWERED;
 8008882:	687b      	ldr	r3, [r7, #4]
 8008884:	2201      	movs	r2, #1
 8008886:	60da      	str	r2, [r3, #12]
#else
      pdev->dev_config_status = 0U;
#endif /* USBD_SELF_POWERED */

      if (pdev->dev_remote_wakeup != 0U)
 8008888:	687b      	ldr	r3, [r7, #4]
 800888a:	f8d3 32a4 	ldr.w	r3, [r3, #676]	@ 0x2a4
 800888e:	2b00      	cmp	r3, #0
 8008890:	d005      	beq.n	800889e <USBD_GetStatus+0x46>
      {
        pdev->dev_config_status |= USB_CONFIG_REMOTE_WAKEUP;
 8008892:	687b      	ldr	r3, [r7, #4]
 8008894:	68db      	ldr	r3, [r3, #12]
 8008896:	f043 0202 	orr.w	r2, r3, #2
 800889a:	687b      	ldr	r3, [r7, #4]
 800889c:	60da      	str	r2, [r3, #12]
      }

      (void)USBD_CtlSendData(pdev, (uint8_t *)&pdev->dev_config_status, 2U);
 800889e:	687b      	ldr	r3, [r7, #4]
 80088a0:	330c      	adds	r3, #12
 80088a2:	2202      	movs	r2, #2
 80088a4:	4619      	mov	r1, r3
 80088a6:	6878      	ldr	r0, [r7, #4]
 80088a8:	f000 f90c 	bl	8008ac4 <USBD_CtlSendData>
      break;
 80088ac:	e004      	b.n	80088b8 <USBD_GetStatus+0x60>

    default:
      USBD_CtlError(pdev, req);
 80088ae:	6839      	ldr	r1, [r7, #0]
 80088b0:	6878      	ldr	r0, [r7, #4]
 80088b2:	f000 f88a 	bl	80089ca <USBD_CtlError>
      break;
 80088b6:	bf00      	nop
  }
}
 80088b8:	bf00      	nop
 80088ba:	3708      	adds	r7, #8
 80088bc:	46bd      	mov	sp, r7
 80088be:	bd80      	pop	{r7, pc}

080088c0 <USBD_SetFeature>:
  * @param  pdev: device instance
  * @param  req: usb request
  * @retval None
  */
static void USBD_SetFeature(USBD_HandleTypeDef *pdev, USBD_SetupReqTypedef *req)
{
 80088c0:	b580      	push	{r7, lr}
 80088c2:	b082      	sub	sp, #8
 80088c4:	af00      	add	r7, sp, #0
 80088c6:	6078      	str	r0, [r7, #4]
 80088c8:	6039      	str	r1, [r7, #0]
  if (req->wValue == USB_FEATURE_REMOTE_WAKEUP)
 80088ca:	683b      	ldr	r3, [r7, #0]
 80088cc:	885b      	ldrh	r3, [r3, #2]
 80088ce:	2b01      	cmp	r3, #1
 80088d0:	d107      	bne.n	80088e2 <USBD_SetFeature+0x22>
  {
    pdev->dev_remote_wakeup = 1U;
 80088d2:	687b      	ldr	r3, [r7, #4]
 80088d4:	2201      	movs	r2, #1
 80088d6:	f8c3 22a4 	str.w	r2, [r3, #676]	@ 0x2a4
    (void)USBD_CtlSendStatus(pdev);
 80088da:	6878      	ldr	r0, [r7, #4]
 80088dc:	f000 f953 	bl	8008b86 <USBD_CtlSendStatus>
  }
  else
  {
    USBD_CtlError(pdev, req);
  }
}
 80088e0:	e013      	b.n	800890a <USBD_SetFeature+0x4a>
  else if (req->wValue == USB_FEATURE_TEST_MODE)
 80088e2:	683b      	ldr	r3, [r7, #0]
 80088e4:	885b      	ldrh	r3, [r3, #2]
 80088e6:	2b02      	cmp	r3, #2
 80088e8:	d10b      	bne.n	8008902 <USBD_SetFeature+0x42>
    pdev->dev_test_mode = (uint8_t)(req->wIndex >> 8);
 80088ea:	683b      	ldr	r3, [r7, #0]
 80088ec:	889b      	ldrh	r3, [r3, #4]
 80088ee:	0a1b      	lsrs	r3, r3, #8
 80088f0:	b29b      	uxth	r3, r3
 80088f2:	b2da      	uxtb	r2, r3
 80088f4:	687b      	ldr	r3, [r7, #4]
 80088f6:	f883 22a0 	strb.w	r2, [r3, #672]	@ 0x2a0
    (void)USBD_CtlSendStatus(pdev);
 80088fa:	6878      	ldr	r0, [r7, #4]
 80088fc:	f000 f943 	bl	8008b86 <USBD_CtlSendStatus>
}
 8008900:	e003      	b.n	800890a <USBD_SetFeature+0x4a>
    USBD_CtlError(pdev, req);
 8008902:	6839      	ldr	r1, [r7, #0]
 8008904:	6878      	ldr	r0, [r7, #4]
 8008906:	f000 f860 	bl	80089ca <USBD_CtlError>
}
 800890a:	bf00      	nop
 800890c:	3708      	adds	r7, #8
 800890e:	46bd      	mov	sp, r7
 8008910:	bd80      	pop	{r7, pc}

08008912 <USBD_ClrFeature>:
  * @param  pdev: device instance
  * @param  req: usb request
  * @retval None
  */
static void USBD_ClrFeature(USBD_HandleTypeDef *pdev, USBD_SetupReqTypedef *req)
{
 8008912:	b580      	push	{r7, lr}
 8008914:	b082      	sub	sp, #8
 8008916:	af00      	add	r7, sp, #0
 8008918:	6078      	str	r0, [r7, #4]
 800891a:	6039      	str	r1, [r7, #0]
  switch (pdev->dev_state)
 800891c:	687b      	ldr	r3, [r7, #4]
 800891e:	f893 329c 	ldrb.w	r3, [r3, #668]	@ 0x29c
 8008922:	b2db      	uxtb	r3, r3
 8008924:	3b01      	subs	r3, #1
 8008926:	2b02      	cmp	r3, #2
 8008928:	d80b      	bhi.n	8008942 <USBD_ClrFeature+0x30>
  {
    case USBD_STATE_DEFAULT:
    case USBD_STATE_ADDRESSED:
    case USBD_STATE_CONFIGURED:
      if (req->wValue == USB_FEATURE_REMOTE_WAKEUP)
 800892a:	683b      	ldr	r3, [r7, #0]
 800892c:	885b      	ldrh	r3, [r3, #2]
 800892e:	2b01      	cmp	r3, #1
 8008930:	d10c      	bne.n	800894c <USBD_ClrFeature+0x3a>
      {
        pdev->dev_remote_wakeup = 0U;
 8008932:	687b      	ldr	r3, [r7, #4]
 8008934:	2200      	movs	r2, #0
 8008936:	f8c3 22a4 	str.w	r2, [r3, #676]	@ 0x2a4
        (void)USBD_CtlSendStatus(pdev);
 800893a:	6878      	ldr	r0, [r7, #4]
 800893c:	f000 f923 	bl	8008b86 <USBD_CtlSendStatus>
      }
      break;
 8008940:	e004      	b.n	800894c <USBD_ClrFeature+0x3a>

    default:
      USBD_CtlError(pdev, req);
 8008942:	6839      	ldr	r1, [r7, #0]
 8008944:	6878      	ldr	r0, [r7, #4]
 8008946:	f000 f840 	bl	80089ca <USBD_CtlError>
      break;
 800894a:	e000      	b.n	800894e <USBD_ClrFeature+0x3c>
      break;
 800894c:	bf00      	nop
  }
}
 800894e:	bf00      	nop
 8008950:	3708      	adds	r7, #8
 8008952:	46bd      	mov	sp, r7
 8008954:	bd80      	pop	{r7, pc}

08008956 <USBD_ParseSetupRequest>:
  * @param  req: usb request
  * @param  pdata: setup data pointer
  * @retval None
  */
void USBD_ParseSetupRequest(USBD_SetupReqTypedef *req, uint8_t *pdata)
{
 8008956:	b580      	push	{r7, lr}
 8008958:	b084      	sub	sp, #16
 800895a:	af00      	add	r7, sp, #0
 800895c:	6078      	str	r0, [r7, #4]
 800895e:	6039      	str	r1, [r7, #0]
  uint8_t *pbuff = pdata;
 8008960:	683b      	ldr	r3, [r7, #0]
 8008962:	60fb      	str	r3, [r7, #12]

  req->bmRequest = *(uint8_t *)(pbuff);
 8008964:	68fb      	ldr	r3, [r7, #12]
 8008966:	781a      	ldrb	r2, [r3, #0]
 8008968:	687b      	ldr	r3, [r7, #4]
 800896a:	701a      	strb	r2, [r3, #0]

  pbuff++;
 800896c:	68fb      	ldr	r3, [r7, #12]
 800896e:	3301      	adds	r3, #1
 8008970:	60fb      	str	r3, [r7, #12]
  req->bRequest = *(uint8_t *)(pbuff);
 8008972:	68fb      	ldr	r3, [r7, #12]
 8008974:	781a      	ldrb	r2, [r3, #0]
 8008976:	687b      	ldr	r3, [r7, #4]
 8008978:	705a      	strb	r2, [r3, #1]

  pbuff++;
 800897a:	68fb      	ldr	r3, [r7, #12]
 800897c:	3301      	adds	r3, #1
 800897e:	60fb      	str	r3, [r7, #12]
  req->wValue = SWAPBYTE(pbuff);
 8008980:	68f8      	ldr	r0, [r7, #12]
 8008982:	f7ff fa3d 	bl	8007e00 <SWAPBYTE>
 8008986:	4603      	mov	r3, r0
 8008988:	461a      	mov	r2, r3
 800898a:	687b      	ldr	r3, [r7, #4]
 800898c:	805a      	strh	r2, [r3, #2]

  pbuff++;
 800898e:	68fb      	ldr	r3, [r7, #12]
 8008990:	3301      	adds	r3, #1
 8008992:	60fb      	str	r3, [r7, #12]
  pbuff++;
 8008994:	68fb      	ldr	r3, [r7, #12]
 8008996:	3301      	adds	r3, #1
 8008998:	60fb      	str	r3, [r7, #12]
  req->wIndex = SWAPBYTE(pbuff);
 800899a:	68f8      	ldr	r0, [r7, #12]
 800899c:	f7ff fa30 	bl	8007e00 <SWAPBYTE>
 80089a0:	4603      	mov	r3, r0
 80089a2:	461a      	mov	r2, r3
 80089a4:	687b      	ldr	r3, [r7, #4]
 80089a6:	809a      	strh	r2, [r3, #4]

  pbuff++;
 80089a8:	68fb      	ldr	r3, [r7, #12]
 80089aa:	3301      	adds	r3, #1
 80089ac:	60fb      	str	r3, [r7, #12]
  pbuff++;
 80089ae:	68fb      	ldr	r3, [r7, #12]
 80089b0:	3301      	adds	r3, #1
 80089b2:	60fb      	str	r3, [r7, #12]
  req->wLength = SWAPBYTE(pbuff);
 80089b4:	68f8      	ldr	r0, [r7, #12]
 80089b6:	f7ff fa23 	bl	8007e00 <SWAPBYTE>
 80089ba:	4603      	mov	r3, r0
 80089bc:	461a      	mov	r2, r3
 80089be:	687b      	ldr	r3, [r7, #4]
 80089c0:	80da      	strh	r2, [r3, #6]
}
 80089c2:	bf00      	nop
 80089c4:	3710      	adds	r7, #16
 80089c6:	46bd      	mov	sp, r7
 80089c8:	bd80      	pop	{r7, pc}

080089ca <USBD_CtlError>:
  * @param  pdev: device instance
  * @param  req: usb request
  * @retval None
  */
void USBD_CtlError(USBD_HandleTypeDef *pdev, USBD_SetupReqTypedef *req)
{
 80089ca:	b580      	push	{r7, lr}
 80089cc:	b082      	sub	sp, #8
 80089ce:	af00      	add	r7, sp, #0
 80089d0:	6078      	str	r0, [r7, #4]
 80089d2:	6039      	str	r1, [r7, #0]
  UNUSED(req);

  (void)USBD_LL_StallEP(pdev, 0x80U);
 80089d4:	2180      	movs	r1, #128	@ 0x80
 80089d6:	6878      	ldr	r0, [r7, #4]
 80089d8:	f000 fd54 	bl	8009484 <USBD_LL_StallEP>
  (void)USBD_LL_StallEP(pdev, 0U);
 80089dc:	2100      	movs	r1, #0
 80089de:	6878      	ldr	r0, [r7, #4]
 80089e0:	f000 fd50 	bl	8009484 <USBD_LL_StallEP>
}
 80089e4:	bf00      	nop
 80089e6:	3708      	adds	r7, #8
 80089e8:	46bd      	mov	sp, r7
 80089ea:	bd80      	pop	{r7, pc}

080089ec <USBD_GetString>:
  * @param  unicode : Formatted string buffer (unicode)
  * @param  len : descriptor length
  * @retval None
  */
void USBD_GetString(uint8_t *desc, uint8_t *unicode, uint16_t *len)
{
 80089ec:	b580      	push	{r7, lr}
 80089ee:	b086      	sub	sp, #24
 80089f0:	af00      	add	r7, sp, #0
 80089f2:	60f8      	str	r0, [r7, #12]
 80089f4:	60b9      	str	r1, [r7, #8]
 80089f6:	607a      	str	r2, [r7, #4]
  uint8_t idx = 0U;
 80089f8:	2300      	movs	r3, #0
 80089fa:	75fb      	strb	r3, [r7, #23]
  uint8_t *pdesc;

  if (desc == NULL)
 80089fc:	68fb      	ldr	r3, [r7, #12]
 80089fe:	2b00      	cmp	r3, #0
 8008a00:	d042      	beq.n	8008a88 <USBD_GetString+0x9c>
  {
    return;
  }

  pdesc = desc;
 8008a02:	68fb      	ldr	r3, [r7, #12]
 8008a04:	613b      	str	r3, [r7, #16]
  *len = MIN(USBD_MAX_STR_DESC_SIZ, ((uint16_t)USBD_GetLen(pdesc) * 2U) + 2U);
 8008a06:	6938      	ldr	r0, [r7, #16]
 8008a08:	f000 f842 	bl	8008a90 <USBD_GetLen>
 8008a0c:	4603      	mov	r3, r0
 8008a0e:	3301      	adds	r3, #1
 8008a10:	005b      	lsls	r3, r3, #1
 8008a12:	f5b3 7f00 	cmp.w	r3, #512	@ 0x200
 8008a16:	d808      	bhi.n	8008a2a <USBD_GetString+0x3e>
 8008a18:	6938      	ldr	r0, [r7, #16]
 8008a1a:	f000 f839 	bl	8008a90 <USBD_GetLen>
 8008a1e:	4603      	mov	r3, r0
 8008a20:	3301      	adds	r3, #1
 8008a22:	b29b      	uxth	r3, r3
 8008a24:	005b      	lsls	r3, r3, #1
 8008a26:	b29a      	uxth	r2, r3
 8008a28:	e001      	b.n	8008a2e <USBD_GetString+0x42>
 8008a2a:	f44f 7200 	mov.w	r2, #512	@ 0x200
 8008a2e:	687b      	ldr	r3, [r7, #4]
 8008a30:	801a      	strh	r2, [r3, #0]

  unicode[idx] = *(uint8_t *)len;
 8008a32:	7dfb      	ldrb	r3, [r7, #23]
 8008a34:	68ba      	ldr	r2, [r7, #8]
 8008a36:	4413      	add	r3, r2
 8008a38:	687a      	ldr	r2, [r7, #4]
 8008a3a:	7812      	ldrb	r2, [r2, #0]
 8008a3c:	701a      	strb	r2, [r3, #0]
  idx++;
 8008a3e:	7dfb      	ldrb	r3, [r7, #23]
 8008a40:	3301      	adds	r3, #1
 8008a42:	75fb      	strb	r3, [r7, #23]
  unicode[idx] = USB_DESC_TYPE_STRING;
 8008a44:	7dfb      	ldrb	r3, [r7, #23]
 8008a46:	68ba      	ldr	r2, [r7, #8]
 8008a48:	4413      	add	r3, r2
 8008a4a:	2203      	movs	r2, #3
 8008a4c:	701a      	strb	r2, [r3, #0]
  idx++;
 8008a4e:	7dfb      	ldrb	r3, [r7, #23]
 8008a50:	3301      	adds	r3, #1
 8008a52:	75fb      	strb	r3, [r7, #23]

  while (*pdesc != (uint8_t)'\0')
 8008a54:	e013      	b.n	8008a7e <USBD_GetString+0x92>
  {
    unicode[idx] = *pdesc;
 8008a56:	7dfb      	ldrb	r3, [r7, #23]
 8008a58:	68ba      	ldr	r2, [r7, #8]
 8008a5a:	4413      	add	r3, r2
 8008a5c:	693a      	ldr	r2, [r7, #16]
 8008a5e:	7812      	ldrb	r2, [r2, #0]
 8008a60:	701a      	strb	r2, [r3, #0]
    pdesc++;
 8008a62:	693b      	ldr	r3, [r7, #16]
 8008a64:	3301      	adds	r3, #1
 8008a66:	613b      	str	r3, [r7, #16]
    idx++;
 8008a68:	7dfb      	ldrb	r3, [r7, #23]
 8008a6a:	3301      	adds	r3, #1
 8008a6c:	75fb      	strb	r3, [r7, #23]

    unicode[idx] = 0U;
 8008a6e:	7dfb      	ldrb	r3, [r7, #23]
 8008a70:	68ba      	ldr	r2, [r7, #8]
 8008a72:	4413      	add	r3, r2
 8008a74:	2200      	movs	r2, #0
 8008a76:	701a      	strb	r2, [r3, #0]
    idx++;
 8008a78:	7dfb      	ldrb	r3, [r7, #23]
 8008a7a:	3301      	adds	r3, #1
 8008a7c:	75fb      	strb	r3, [r7, #23]
  while (*pdesc != (uint8_t)'\0')
 8008a7e:	693b      	ldr	r3, [r7, #16]
 8008a80:	781b      	ldrb	r3, [r3, #0]
 8008a82:	2b00      	cmp	r3, #0
 8008a84:	d1e7      	bne.n	8008a56 <USBD_GetString+0x6a>
 8008a86:	e000      	b.n	8008a8a <USBD_GetString+0x9e>
    return;
 8008a88:	bf00      	nop
  }
}
 8008a8a:	3718      	adds	r7, #24
 8008a8c:	46bd      	mov	sp, r7
 8008a8e:	bd80      	pop	{r7, pc}

08008a90 <USBD_GetLen>:
  *         return the string length
   * @param  buf : pointer to the ascii string buffer
  * @retval string length
  */
static uint8_t USBD_GetLen(uint8_t *buf)
{
 8008a90:	b480      	push	{r7}
 8008a92:	b085      	sub	sp, #20
 8008a94:	af00      	add	r7, sp, #0
 8008a96:	6078      	str	r0, [r7, #4]
  uint8_t  len = 0U;
 8008a98:	2300      	movs	r3, #0
 8008a9a:	73fb      	strb	r3, [r7, #15]
  uint8_t *pbuff = buf;
 8008a9c:	687b      	ldr	r3, [r7, #4]
 8008a9e:	60bb      	str	r3, [r7, #8]

  while (*pbuff != (uint8_t)'\0')
 8008aa0:	e005      	b.n	8008aae <USBD_GetLen+0x1e>
  {
    len++;
 8008aa2:	7bfb      	ldrb	r3, [r7, #15]
 8008aa4:	3301      	adds	r3, #1
 8008aa6:	73fb      	strb	r3, [r7, #15]
    pbuff++;
 8008aa8:	68bb      	ldr	r3, [r7, #8]
 8008aaa:	3301      	adds	r3, #1
 8008aac:	60bb      	str	r3, [r7, #8]
  while (*pbuff != (uint8_t)'\0')
 8008aae:	68bb      	ldr	r3, [r7, #8]
 8008ab0:	781b      	ldrb	r3, [r3, #0]
 8008ab2:	2b00      	cmp	r3, #0
 8008ab4:	d1f5      	bne.n	8008aa2 <USBD_GetLen+0x12>
  }

  return len;
 8008ab6:	7bfb      	ldrb	r3, [r7, #15]
}
 8008ab8:	4618      	mov	r0, r3
 8008aba:	3714      	adds	r7, #20
 8008abc:	46bd      	mov	sp, r7
 8008abe:	f85d 7b04 	ldr.w	r7, [sp], #4
 8008ac2:	4770      	bx	lr

08008ac4 <USBD_CtlSendData>:
  * @param  len: length of data to be sent
  * @retval status
  */
USBD_StatusTypeDef USBD_CtlSendData(USBD_HandleTypeDef *pdev,
                                    uint8_t *pbuf, uint32_t len)
{
 8008ac4:	b580      	push	{r7, lr}
 8008ac6:	b084      	sub	sp, #16
 8008ac8:	af00      	add	r7, sp, #0
 8008aca:	60f8      	str	r0, [r7, #12]
 8008acc:	60b9      	str	r1, [r7, #8]
 8008ace:	607a      	str	r2, [r7, #4]
  /* Set EP0 State */
  pdev->ep0_state = USBD_EP0_DATA_IN;
 8008ad0:	68fb      	ldr	r3, [r7, #12]
 8008ad2:	2202      	movs	r2, #2
 8008ad4:	f8c3 2294 	str.w	r2, [r3, #660]	@ 0x294
  pdev->ep_in[0].total_length = len;
 8008ad8:	68fb      	ldr	r3, [r7, #12]
 8008ada:	687a      	ldr	r2, [r7, #4]
 8008adc:	615a      	str	r2, [r3, #20]
  pdev->ep_in[0].pbuffer = pbuf;
 8008ade:	68fb      	ldr	r3, [r7, #12]
 8008ae0:	68ba      	ldr	r2, [r7, #8]
 8008ae2:	625a      	str	r2, [r3, #36]	@ 0x24

#ifdef USBD_AVOID_PACKET_SPLIT_MPS
  pdev->ep_in[0].rem_length = 0U;
#else
  pdev->ep_in[0].rem_length = len;
 8008ae4:	68fb      	ldr	r3, [r7, #12]
 8008ae6:	687a      	ldr	r2, [r7, #4]
 8008ae8:	619a      	str	r2, [r3, #24]
#endif /* USBD_AVOID_PACKET_SPLIT_MPS */

  /* Start the transfer */
  (void)USBD_LL_Transmit(pdev, 0x00U, pbuf, len);
 8008aea:	687b      	ldr	r3, [r7, #4]
 8008aec:	68ba      	ldr	r2, [r7, #8]
 8008aee:	2100      	movs	r1, #0
 8008af0:	68f8      	ldr	r0, [r7, #12]
 8008af2:	f000 fd50 	bl	8009596 <USBD_LL_Transmit>

  return USBD_OK;
 8008af6:	2300      	movs	r3, #0
}
 8008af8:	4618      	mov	r0, r3
 8008afa:	3710      	adds	r7, #16
 8008afc:	46bd      	mov	sp, r7
 8008afe:	bd80      	pop	{r7, pc}

08008b00 <USBD_CtlContinueSendData>:
  * @param  len: length of data to be sent
  * @retval status
  */
USBD_StatusTypeDef USBD_CtlContinueSendData(USBD_HandleTypeDef *pdev,
                                            uint8_t *pbuf, uint32_t len)
{
 8008b00:	b580      	push	{r7, lr}
 8008b02:	b084      	sub	sp, #16
 8008b04:	af00      	add	r7, sp, #0
 8008b06:	60f8      	str	r0, [r7, #12]
 8008b08:	60b9      	str	r1, [r7, #8]
 8008b0a:	607a      	str	r2, [r7, #4]
  /* Start the next transfer */
  (void)USBD_LL_Transmit(pdev, 0x00U, pbuf, len);
 8008b0c:	687b      	ldr	r3, [r7, #4]
 8008b0e:	68ba      	ldr	r2, [r7, #8]
 8008b10:	2100      	movs	r1, #0
 8008b12:	68f8      	ldr	r0, [r7, #12]
 8008b14:	f000 fd3f 	bl	8009596 <USBD_LL_Transmit>

  return USBD_OK;
 8008b18:	2300      	movs	r3, #0
}
 8008b1a:	4618      	mov	r0, r3
 8008b1c:	3710      	adds	r7, #16
 8008b1e:	46bd      	mov	sp, r7
 8008b20:	bd80      	pop	{r7, pc}

08008b22 <USBD_CtlPrepareRx>:
  * @param  len: length of data to be received
  * @retval status
  */
USBD_StatusTypeDef USBD_CtlPrepareRx(USBD_HandleTypeDef *pdev,
                                     uint8_t *pbuf, uint32_t len)
{
 8008b22:	b580      	push	{r7, lr}
 8008b24:	b084      	sub	sp, #16
 8008b26:	af00      	add	r7, sp, #0
 8008b28:	60f8      	str	r0, [r7, #12]
 8008b2a:	60b9      	str	r1, [r7, #8]
 8008b2c:	607a      	str	r2, [r7, #4]
  /* Set EP0 State */
  pdev->ep0_state = USBD_EP0_DATA_OUT;
 8008b2e:	68fb      	ldr	r3, [r7, #12]
 8008b30:	2203      	movs	r2, #3
 8008b32:	f8c3 2294 	str.w	r2, [r3, #660]	@ 0x294
  pdev->ep_out[0].total_length = len;
 8008b36:	68fb      	ldr	r3, [r7, #12]
 8008b38:	687a      	ldr	r2, [r7, #4]
 8008b3a:	f8c3 2154 	str.w	r2, [r3, #340]	@ 0x154
  pdev->ep_out[0].pbuffer = pbuf;
 8008b3e:	68fb      	ldr	r3, [r7, #12]
 8008b40:	68ba      	ldr	r2, [r7, #8]
 8008b42:	f8c3 2164 	str.w	r2, [r3, #356]	@ 0x164

#ifdef USBD_AVOID_PACKET_SPLIT_MPS
  pdev->ep_out[0].rem_length = 0U;
#else
  pdev->ep_out[0].rem_length = len;
 8008b46:	68fb      	ldr	r3, [r7, #12]
 8008b48:	687a      	ldr	r2, [r7, #4]
 8008b4a:	f8c3 2158 	str.w	r2, [r3, #344]	@ 0x158
#endif /* USBD_AVOID_PACKET_SPLIT_MPS */

  /* Start the transfer */
  (void)USBD_LL_PrepareReceive(pdev, 0U, pbuf, len);
 8008b4e:	687b      	ldr	r3, [r7, #4]
 8008b50:	68ba      	ldr	r2, [r7, #8]
 8008b52:	2100      	movs	r1, #0
 8008b54:	68f8      	ldr	r0, [r7, #12]
 8008b56:	f000 fd3f 	bl	80095d8 <USBD_LL_PrepareReceive>

  return USBD_OK;
 8008b5a:	2300      	movs	r3, #0
}
 8008b5c:	4618      	mov	r0, r3
 8008b5e:	3710      	adds	r7, #16
 8008b60:	46bd      	mov	sp, r7
 8008b62:	bd80      	pop	{r7, pc}

08008b64 <USBD_CtlContinueRx>:
  * @param  len: length of data to be received
  * @retval status
  */
USBD_StatusTypeDef USBD_CtlContinueRx(USBD_HandleTypeDef *pdev,
                                      uint8_t *pbuf, uint32_t len)
{
 8008b64:	b580      	push	{r7, lr}
 8008b66:	b084      	sub	sp, #16
 8008b68:	af00      	add	r7, sp, #0
 8008b6a:	60f8      	str	r0, [r7, #12]
 8008b6c:	60b9      	str	r1, [r7, #8]
 8008b6e:	607a      	str	r2, [r7, #4]
  (void)USBD_LL_PrepareReceive(pdev, 0U, pbuf, len);
 8008b70:	687b      	ldr	r3, [r7, #4]
 8008b72:	68ba      	ldr	r2, [r7, #8]
 8008b74:	2100      	movs	r1, #0
 8008b76:	68f8      	ldr	r0, [r7, #12]
 8008b78:	f000 fd2e 	bl	80095d8 <USBD_LL_PrepareReceive>

  return USBD_OK;
 8008b7c:	2300      	movs	r3, #0
}
 8008b7e:	4618      	mov	r0, r3
 8008b80:	3710      	adds	r7, #16
 8008b82:	46bd      	mov	sp, r7
 8008b84:	bd80      	pop	{r7, pc}

08008b86 <USBD_CtlSendStatus>:
  *         send zero lzngth packet on the ctl pipe
  * @param  pdev: device instance
  * @retval status
  */
USBD_StatusTypeDef USBD_CtlSendStatus(USBD_HandleTypeDef *pdev)
{
 8008b86:	b580      	push	{r7, lr}
 8008b88:	b082      	sub	sp, #8
 8008b8a:	af00      	add	r7, sp, #0
 8008b8c:	6078      	str	r0, [r7, #4]
  /* Set EP0 State */
  pdev->ep0_state = USBD_EP0_STATUS_IN;
 8008b8e:	687b      	ldr	r3, [r7, #4]
 8008b90:	2204      	movs	r2, #4
 8008b92:	f8c3 2294 	str.w	r2, [r3, #660]	@ 0x294

  /* Start the transfer */
  (void)USBD_LL_Transmit(pdev, 0x00U, NULL, 0U);
 8008b96:	2300      	movs	r3, #0
 8008b98:	2200      	movs	r2, #0
 8008b9a:	2100      	movs	r1, #0
 8008b9c:	6878      	ldr	r0, [r7, #4]
 8008b9e:	f000 fcfa 	bl	8009596 <USBD_LL_Transmit>

  return USBD_OK;
 8008ba2:	2300      	movs	r3, #0
}
 8008ba4:	4618      	mov	r0, r3
 8008ba6:	3708      	adds	r7, #8
 8008ba8:	46bd      	mov	sp, r7
 8008baa:	bd80      	pop	{r7, pc}

08008bac <USBD_CtlReceiveStatus>:
  *         receive zero lzngth packet on the ctl pipe
  * @param  pdev: device instance
  * @retval status
  */
USBD_StatusTypeDef USBD_CtlReceiveStatus(USBD_HandleTypeDef *pdev)
{
 8008bac:	b580      	push	{r7, lr}
 8008bae:	b082      	sub	sp, #8
 8008bb0:	af00      	add	r7, sp, #0
 8008bb2:	6078      	str	r0, [r7, #4]
  /* Set EP0 State */
  pdev->ep0_state = USBD_EP0_STATUS_OUT;
 8008bb4:	687b      	ldr	r3, [r7, #4]
 8008bb6:	2205      	movs	r2, #5
 8008bb8:	f8c3 2294 	str.w	r2, [r3, #660]	@ 0x294

  /* Start the transfer */
  (void)USBD_LL_PrepareReceive(pdev, 0U, NULL, 0U);
 8008bbc:	2300      	movs	r3, #0
 8008bbe:	2200      	movs	r2, #0
 8008bc0:	2100      	movs	r1, #0
 8008bc2:	6878      	ldr	r0, [r7, #4]
 8008bc4:	f000 fd08 	bl	80095d8 <USBD_LL_PrepareReceive>

  return USBD_OK;
 8008bc8:	2300      	movs	r3, #0
}
 8008bca:	4618      	mov	r0, r3
 8008bcc:	3708      	adds	r7, #8
 8008bce:	46bd      	mov	sp, r7
 8008bd0:	bd80      	pop	{r7, pc}
	...

08008bd4 <FATFS_LinkDriverEx>:
  * @param  lun : only used for USB Key Disk to add multi-lun management
            else the parameter must be equal to 0
  * @retval Returns 0 in case of success, otherwise 1.
  */
uint8_t FATFS_LinkDriverEx(const Diskio_drvTypeDef *drv, char *path, uint8_t lun)
{
 8008bd4:	b480      	push	{r7}
 8008bd6:	b087      	sub	sp, #28
 8008bd8:	af00      	add	r7, sp, #0
 8008bda:	60f8      	str	r0, [r7, #12]
 8008bdc:	60b9      	str	r1, [r7, #8]
 8008bde:	4613      	mov	r3, r2
 8008be0:	71fb      	strb	r3, [r7, #7]
  uint8_t ret = 1;
 8008be2:	2301      	movs	r3, #1
 8008be4:	75fb      	strb	r3, [r7, #23]
  uint8_t DiskNum = 0;
 8008be6:	2300      	movs	r3, #0
 8008be8:	75bb      	strb	r3, [r7, #22]

  if(disk.nbr < _VOLUMES)
 8008bea:	4b1f      	ldr	r3, [pc, #124]	@ (8008c68 <FATFS_LinkDriverEx+0x94>)
 8008bec:	7a5b      	ldrb	r3, [r3, #9]
 8008bee:	b2db      	uxtb	r3, r3
 8008bf0:	2b00      	cmp	r3, #0
 8008bf2:	d131      	bne.n	8008c58 <FATFS_LinkDriverEx+0x84>
  {
    disk.is_initialized[disk.nbr] = 0;
 8008bf4:	4b1c      	ldr	r3, [pc, #112]	@ (8008c68 <FATFS_LinkDriverEx+0x94>)
 8008bf6:	7a5b      	ldrb	r3, [r3, #9]
 8008bf8:	b2db      	uxtb	r3, r3
 8008bfa:	461a      	mov	r2, r3
 8008bfc:	4b1a      	ldr	r3, [pc, #104]	@ (8008c68 <FATFS_LinkDriverEx+0x94>)
 8008bfe:	2100      	movs	r1, #0
 8008c00:	5499      	strb	r1, [r3, r2]
    disk.drv[disk.nbr] = drv;
 8008c02:	4b19      	ldr	r3, [pc, #100]	@ (8008c68 <FATFS_LinkDriverEx+0x94>)
 8008c04:	7a5b      	ldrb	r3, [r3, #9]
 8008c06:	b2db      	uxtb	r3, r3
 8008c08:	4a17      	ldr	r2, [pc, #92]	@ (8008c68 <FATFS_LinkDriverEx+0x94>)
 8008c0a:	009b      	lsls	r3, r3, #2
 8008c0c:	4413      	add	r3, r2
 8008c0e:	68fa      	ldr	r2, [r7, #12]
 8008c10:	605a      	str	r2, [r3, #4]
    disk.lun[disk.nbr] = lun;
 8008c12:	4b15      	ldr	r3, [pc, #84]	@ (8008c68 <FATFS_LinkDriverEx+0x94>)
 8008c14:	7a5b      	ldrb	r3, [r3, #9]
 8008c16:	b2db      	uxtb	r3, r3
 8008c18:	461a      	mov	r2, r3
 8008c1a:	4b13      	ldr	r3, [pc, #76]	@ (8008c68 <FATFS_LinkDriverEx+0x94>)
 8008c1c:	4413      	add	r3, r2
 8008c1e:	79fa      	ldrb	r2, [r7, #7]
 8008c20:	721a      	strb	r2, [r3, #8]
    DiskNum = disk.nbr++;
 8008c22:	4b11      	ldr	r3, [pc, #68]	@ (8008c68 <FATFS_LinkDriverEx+0x94>)
 8008c24:	7a5b      	ldrb	r3, [r3, #9]
 8008c26:	b2db      	uxtb	r3, r3
 8008c28:	1c5a      	adds	r2, r3, #1
 8008c2a:	b2d1      	uxtb	r1, r2
 8008c2c:	4a0e      	ldr	r2, [pc, #56]	@ (8008c68 <FATFS_LinkDriverEx+0x94>)
 8008c2e:	7251      	strb	r1, [r2, #9]
 8008c30:	75bb      	strb	r3, [r7, #22]
    path[0] = DiskNum + '0';
 8008c32:	7dbb      	ldrb	r3, [r7, #22]
 8008c34:	3330      	adds	r3, #48	@ 0x30
 8008c36:	b2da      	uxtb	r2, r3
 8008c38:	68bb      	ldr	r3, [r7, #8]
 8008c3a:	701a      	strb	r2, [r3, #0]
    path[1] = ':';
 8008c3c:	68bb      	ldr	r3, [r7, #8]
 8008c3e:	3301      	adds	r3, #1
 8008c40:	223a      	movs	r2, #58	@ 0x3a
 8008c42:	701a      	strb	r2, [r3, #0]
    path[2] = '/';
 8008c44:	68bb      	ldr	r3, [r7, #8]
 8008c46:	3302      	adds	r3, #2
 8008c48:	222f      	movs	r2, #47	@ 0x2f
 8008c4a:	701a      	strb	r2, [r3, #0]
    path[3] = 0;
 8008c4c:	68bb      	ldr	r3, [r7, #8]
 8008c4e:	3303      	adds	r3, #3
 8008c50:	2200      	movs	r2, #0
 8008c52:	701a      	strb	r2, [r3, #0]
    ret = 0;
 8008c54:	2300      	movs	r3, #0
 8008c56:	75fb      	strb	r3, [r7, #23]
  }

  return ret;
 8008c58:	7dfb      	ldrb	r3, [r7, #23]
}
 8008c5a:	4618      	mov	r0, r3
 8008c5c:	371c      	adds	r7, #28
 8008c5e:	46bd      	mov	sp, r7
 8008c60:	f85d 7b04 	ldr.w	r7, [sp], #4
 8008c64:	4770      	bx	lr
 8008c66:	bf00      	nop
 8008c68:	20000ae0 	.word	0x20000ae0

08008c6c <FATFS_LinkDriver>:
  * @param  drv: pointer to the disk IO Driver structure
  * @param  path: pointer to the logical drive path
  * @retval Returns 0 in case of success, otherwise 1.
  */
uint8_t FATFS_LinkDriver(const Diskio_drvTypeDef *drv, char *path)
{
 8008c6c:	b580      	push	{r7, lr}
 8008c6e:	b082      	sub	sp, #8
 8008c70:	af00      	add	r7, sp, #0
 8008c72:	6078      	str	r0, [r7, #4]
 8008c74:	6039      	str	r1, [r7, #0]
  return FATFS_LinkDriverEx(drv, path, 0);
 8008c76:	2200      	movs	r2, #0
 8008c78:	6839      	ldr	r1, [r7, #0]
 8008c7a:	6878      	ldr	r0, [r7, #4]
 8008c7c:	f7ff ffaa 	bl	8008bd4 <FATFS_LinkDriverEx>
 8008c80:	4603      	mov	r3, r0
}
 8008c82:	4618      	mov	r0, r3
 8008c84:	3708      	adds	r7, #8
 8008c86:	46bd      	mov	sp, r7
 8008c88:	bd80      	pop	{r7, pc}
	...

08008c8c <MX_USB_DEVICE_Init>:
/**
  * Init USB device Library, add supported class and start the library
  * @retval None
  */
void MX_USB_DEVICE_Init(void)
{
 8008c8c:	b580      	push	{r7, lr}
 8008c8e:	af00      	add	r7, sp, #0
  /* USER CODE BEGIN USB_DEVICE_Init_PreTreatment */

  /* USER CODE END USB_DEVICE_Init_PreTreatment */

  /* Init Device Library, add supported class and start the library. */
  if (USBD_Init(&hUsbDeviceFS, &FS_Desc, DEVICE_FS) != USBD_OK)
 8008c90:	2200      	movs	r2, #0
 8008c92:	4912      	ldr	r1, [pc, #72]	@ (8008cdc <MX_USB_DEVICE_Init+0x50>)
 8008c94:	4812      	ldr	r0, [pc, #72]	@ (8008ce0 <MX_USB_DEVICE_Init+0x54>)
 8008c96:	f7fe fc7d 	bl	8007594 <USBD_Init>
 8008c9a:	4603      	mov	r3, r0
 8008c9c:	2b00      	cmp	r3, #0
 8008c9e:	d001      	beq.n	8008ca4 <MX_USB_DEVICE_Init+0x18>
  {
    Error_Handler();
 8008ca0:	f7f8 f820 	bl	8000ce4 <Error_Handler>
  }
  if (USBD_RegisterClass(&hUsbDeviceFS, &USBD_CDC) != USBD_OK)
 8008ca4:	490f      	ldr	r1, [pc, #60]	@ (8008ce4 <MX_USB_DEVICE_Init+0x58>)
 8008ca6:	480e      	ldr	r0, [pc, #56]	@ (8008ce0 <MX_USB_DEVICE_Init+0x54>)
 8008ca8:	f7fe fca4 	bl	80075f4 <USBD_RegisterClass>
 8008cac:	4603      	mov	r3, r0
 8008cae:	2b00      	cmp	r3, #0
 8008cb0:	d001      	beq.n	8008cb6 <MX_USB_DEVICE_Init+0x2a>
  {
    Error_Handler();
 8008cb2:	f7f8 f817 	bl	8000ce4 <Error_Handler>
  }
  if (USBD_CDC_RegisterInterface(&hUsbDeviceFS, &USBD_Interface_fops_FS) != USBD_OK)
 8008cb6:	490c      	ldr	r1, [pc, #48]	@ (8008ce8 <MX_USB_DEVICE_Init+0x5c>)
 8008cb8:	4809      	ldr	r0, [pc, #36]	@ (8008ce0 <MX_USB_DEVICE_Init+0x54>)
 8008cba:	f7fe fb9b 	bl	80073f4 <USBD_CDC_RegisterInterface>
 8008cbe:	4603      	mov	r3, r0
 8008cc0:	2b00      	cmp	r3, #0
 8008cc2:	d001      	beq.n	8008cc8 <MX_USB_DEVICE_Init+0x3c>
  {
    Error_Handler();
 8008cc4:	f7f8 f80e 	bl	8000ce4 <Error_Handler>
  }
  if (USBD_Start(&hUsbDeviceFS) != USBD_OK)
 8008cc8:	4805      	ldr	r0, [pc, #20]	@ (8008ce0 <MX_USB_DEVICE_Init+0x54>)
 8008cca:	f7fe fcc9 	bl	8007660 <USBD_Start>
 8008cce:	4603      	mov	r3, r0
 8008cd0:	2b00      	cmp	r3, #0
 8008cd2:	d001      	beq.n	8008cd8 <MX_USB_DEVICE_Init+0x4c>
  {
    Error_Handler();
 8008cd4:	f7f8 f806 	bl	8000ce4 <Error_Handler>
  }

  /* USER CODE BEGIN USB_DEVICE_Init_PostTreatment */

  /* USER CODE END USB_DEVICE_Init_PostTreatment */
}
 8008cd8:	bf00      	nop
 8008cda:	bd80      	pop	{r7, pc}
 8008cdc:	200000c0 	.word	0x200000c0
 8008ce0:	20000aec 	.word	0x20000aec
 8008ce4:	2000002c 	.word	0x2000002c
 8008ce8:	200000ac 	.word	0x200000ac

08008cec <CDC_Init_FS>:
/**
  * @brief  Initializes the CDC media low layer over the FS USB IP
  * @retval USBD_OK if all operations are OK else USBD_FAIL
  */
static int8_t CDC_Init_FS(void)
{
 8008cec:	b580      	push	{r7, lr}
 8008cee:	af00      	add	r7, sp, #0
  /* USER CODE BEGIN 3 */
  /* Set Application Buffers */
  USBD_CDC_SetTxBuffer(&hUsbDeviceFS, UserTxBufferFS, 0);
 8008cf0:	2200      	movs	r2, #0
 8008cf2:	4905      	ldr	r1, [pc, #20]	@ (8008d08 <CDC_Init_FS+0x1c>)
 8008cf4:	4805      	ldr	r0, [pc, #20]	@ (8008d0c <CDC_Init_FS+0x20>)
 8008cf6:	f7fe fb97 	bl	8007428 <USBD_CDC_SetTxBuffer>
  USBD_CDC_SetRxBuffer(&hUsbDeviceFS, UserRxBufferFS);
 8008cfa:	4905      	ldr	r1, [pc, #20]	@ (8008d10 <CDC_Init_FS+0x24>)
 8008cfc:	4803      	ldr	r0, [pc, #12]	@ (8008d0c <CDC_Init_FS+0x20>)
 8008cfe:	f7fe fbb5 	bl	800746c <USBD_CDC_SetRxBuffer>
  return (USBD_OK);
 8008d02:	2300      	movs	r3, #0
  /* USER CODE END 3 */
}
 8008d04:	4618      	mov	r0, r3
 8008d06:	bd80      	pop	{r7, pc}
 8008d08:	200015c8 	.word	0x200015c8
 8008d0c:	20000aec 	.word	0x20000aec
 8008d10:	20000dc8 	.word	0x20000dc8

08008d14 <CDC_DeInit_FS>:
/**
  * @brief  DeInitializes the CDC media low layer
  * @retval USBD_OK if all operations are OK else USBD_FAIL
  */
static int8_t CDC_DeInit_FS(void)
{
 8008d14:	b480      	push	{r7}
 8008d16:	af00      	add	r7, sp, #0
  /* USER CODE BEGIN 4 */
  return (USBD_OK);
 8008d18:	2300      	movs	r3, #0
  /* USER CODE END 4 */
}
 8008d1a:	4618      	mov	r0, r3
 8008d1c:	46bd      	mov	sp, r7
 8008d1e:	f85d 7b04 	ldr.w	r7, [sp], #4
 8008d22:	4770      	bx	lr

08008d24 <CDC_Control_FS>:
  * @param  pbuf: Buffer containing command data (request parameters)
  * @param  length: Number of data to be sent (in bytes)
  * @retval Result of the operation: USBD_OK if all operations are OK else USBD_FAIL
  */
static int8_t CDC_Control_FS(uint8_t cmd, uint8_t* pbuf, uint16_t length)
{
 8008d24:	b480      	push	{r7}
 8008d26:	b083      	sub	sp, #12
 8008d28:	af00      	add	r7, sp, #0
 8008d2a:	4603      	mov	r3, r0
 8008d2c:	6039      	str	r1, [r7, #0]
 8008d2e:	71fb      	strb	r3, [r7, #7]
 8008d30:	4613      	mov	r3, r2
 8008d32:	80bb      	strh	r3, [r7, #4]
  /* USER CODE BEGIN 5 */
  switch(cmd)
 8008d34:	79fb      	ldrb	r3, [r7, #7]
 8008d36:	2b23      	cmp	r3, #35	@ 0x23
 8008d38:	d84a      	bhi.n	8008dd0 <CDC_Control_FS+0xac>
 8008d3a:	a201      	add	r2, pc, #4	@ (adr r2, 8008d40 <CDC_Control_FS+0x1c>)
 8008d3c:	f852 f023 	ldr.w	pc, [r2, r3, lsl #2]
 8008d40:	08008dd1 	.word	0x08008dd1
 8008d44:	08008dd1 	.word	0x08008dd1
 8008d48:	08008dd1 	.word	0x08008dd1
 8008d4c:	08008dd1 	.word	0x08008dd1
 8008d50:	08008dd1 	.word	0x08008dd1
 8008d54:	08008dd1 	.word	0x08008dd1
 8008d58:	08008dd1 	.word	0x08008dd1
 8008d5c:	08008dd1 	.word	0x08008dd1
 8008d60:	08008dd1 	.word	0x08008dd1
 8008d64:	08008dd1 	.word	0x08008dd1
 8008d68:	08008dd1 	.word	0x08008dd1
 8008d6c:	08008dd1 	.word	0x08008dd1
 8008d70:	08008dd1 	.word	0x08008dd1
 8008d74:	08008dd1 	.word	0x08008dd1
 8008d78:	08008dd1 	.word	0x08008dd1
 8008d7c:	08008dd1 	.word	0x08008dd1
 8008d80:	08008dd1 	.word	0x08008dd1
 8008d84:	08008dd1 	.word	0x08008dd1
 8008d88:	08008dd1 	.word	0x08008dd1
 8008d8c:	08008dd1 	.word	0x08008dd1
 8008d90:	08008dd1 	.word	0x08008dd1
 8008d94:	08008dd1 	.word	0x08008dd1
 8008d98:	08008dd1 	.word	0x08008dd1
 8008d9c:	08008dd1 	.word	0x08008dd1
 8008da0:	08008dd1 	.word	0x08008dd1
 8008da4:	08008dd1 	.word	0x08008dd1
 8008da8:	08008dd1 	.word	0x08008dd1
 8008dac:	08008dd1 	.word	0x08008dd1
 8008db0:	08008dd1 	.word	0x08008dd1
 8008db4:	08008dd1 	.word	0x08008dd1
 8008db8:	08008dd1 	.word	0x08008dd1
 8008dbc:	08008dd1 	.word	0x08008dd1
 8008dc0:	08008dd1 	.word	0x08008dd1
 8008dc4:	08008dd1 	.word	0x08008dd1
 8008dc8:	08008dd1 	.word	0x08008dd1
 8008dcc:	08008dd1 	.word	0x08008dd1
    case CDC_SEND_BREAK:

    break;

  default:
    break;
 8008dd0:	bf00      	nop
  }

  return (USBD_OK);
 8008dd2:	2300      	movs	r3, #0
  /* USER CODE END 5 */
}
 8008dd4:	4618      	mov	r0, r3
 8008dd6:	370c      	adds	r7, #12
 8008dd8:	46bd      	mov	sp, r7
 8008dda:	f85d 7b04 	ldr.w	r7, [sp], #4
 8008dde:	4770      	bx	lr

08008de0 <CDC_Receive_FS>:
  * @param  Buf: Buffer of data to be received
  * @param  Len: Number of data received (in bytes)
  * @retval Result of the operation: USBD_OK if all operations are OK else USBD_FAIL
  */
static int8_t CDC_Receive_FS(uint8_t* Buf, uint32_t *Len)
{
 8008de0:	b580      	push	{r7, lr}
 8008de2:	b082      	sub	sp, #8
 8008de4:	af00      	add	r7, sp, #0
 8008de6:	6078      	str	r0, [r7, #4]
 8008de8:	6039      	str	r1, [r7, #0]
  /* USER CODE BEGIN 6 */
  USBD_CDC_SetRxBuffer(&hUsbDeviceFS, &Buf[0]);
 8008dea:	6879      	ldr	r1, [r7, #4]
 8008dec:	4805      	ldr	r0, [pc, #20]	@ (8008e04 <CDC_Receive_FS+0x24>)
 8008dee:	f7fe fb3d 	bl	800746c <USBD_CDC_SetRxBuffer>
  USBD_CDC_ReceivePacket(&hUsbDeviceFS);
 8008df2:	4804      	ldr	r0, [pc, #16]	@ (8008e04 <CDC_Receive_FS+0x24>)
 8008df4:	f7fe fb98 	bl	8007528 <USBD_CDC_ReceivePacket>
  return (USBD_OK);
 8008df8:	2300      	movs	r3, #0
  /* USER CODE END 6 */
}
 8008dfa:	4618      	mov	r0, r3
 8008dfc:	3708      	adds	r7, #8
 8008dfe:	46bd      	mov	sp, r7
 8008e00:	bd80      	pop	{r7, pc}
 8008e02:	bf00      	nop
 8008e04:	20000aec 	.word	0x20000aec

08008e08 <CDC_Transmit_FS>:
  * @param  Buf: Buffer of data to be sent
  * @param  Len: Number of data to be sent (in bytes)
  * @retval USBD_OK if all operations are OK else USBD_FAIL or USBD_BUSY
  */
uint8_t CDC_Transmit_FS(uint8_t* Buf, uint16_t Len)
{
 8008e08:	b580      	push	{r7, lr}
 8008e0a:	b084      	sub	sp, #16
 8008e0c:	af00      	add	r7, sp, #0
 8008e0e:	6078      	str	r0, [r7, #4]
 8008e10:	460b      	mov	r3, r1
 8008e12:	807b      	strh	r3, [r7, #2]
  uint8_t result = USBD_OK;
 8008e14:	2300      	movs	r3, #0
 8008e16:	73fb      	strb	r3, [r7, #15]
  /* USER CODE BEGIN 7 */
  USBD_CDC_HandleTypeDef *hcdc = (USBD_CDC_HandleTypeDef*)hUsbDeviceFS.pClassData;
 8008e18:	4b0d      	ldr	r3, [pc, #52]	@ (8008e50 <CDC_Transmit_FS+0x48>)
 8008e1a:	f8d3 32bc 	ldr.w	r3, [r3, #700]	@ 0x2bc
 8008e1e:	60bb      	str	r3, [r7, #8]
  if (hcdc->TxState != 0){
 8008e20:	68bb      	ldr	r3, [r7, #8]
 8008e22:	f8d3 3214 	ldr.w	r3, [r3, #532]	@ 0x214
 8008e26:	2b00      	cmp	r3, #0
 8008e28:	d001      	beq.n	8008e2e <CDC_Transmit_FS+0x26>
    return USBD_BUSY;
 8008e2a:	2301      	movs	r3, #1
 8008e2c:	e00b      	b.n	8008e46 <CDC_Transmit_FS+0x3e>
  }
  USBD_CDC_SetTxBuffer(&hUsbDeviceFS, Buf, Len);
 8008e2e:	887b      	ldrh	r3, [r7, #2]
 8008e30:	461a      	mov	r2, r3
 8008e32:	6879      	ldr	r1, [r7, #4]
 8008e34:	4806      	ldr	r0, [pc, #24]	@ (8008e50 <CDC_Transmit_FS+0x48>)
 8008e36:	f7fe faf7 	bl	8007428 <USBD_CDC_SetTxBuffer>
  result = USBD_CDC_TransmitPacket(&hUsbDeviceFS);
 8008e3a:	4805      	ldr	r0, [pc, #20]	@ (8008e50 <CDC_Transmit_FS+0x48>)
 8008e3c:	f7fe fb34 	bl	80074a8 <USBD_CDC_TransmitPacket>
 8008e40:	4603      	mov	r3, r0
 8008e42:	73fb      	strb	r3, [r7, #15]
  /* USER CODE END 7 */
  return result;
 8008e44:	7bfb      	ldrb	r3, [r7, #15]
}
 8008e46:	4618      	mov	r0, r3
 8008e48:	3710      	adds	r7, #16
 8008e4a:	46bd      	mov	sp, r7
 8008e4c:	bd80      	pop	{r7, pc}
 8008e4e:	bf00      	nop
 8008e50:	20000aec 	.word	0x20000aec

08008e54 <CDC_TransmitCplt_FS>:
  * @param  Buf: Buffer of data to be received
  * @param  Len: Number of data received (in bytes)
  * @retval Result of the operation: USBD_OK if all operations are OK else USBD_FAIL
  */
static int8_t CDC_TransmitCplt_FS(uint8_t *Buf, uint32_t *Len, uint8_t epnum)
{
 8008e54:	b480      	push	{r7}
 8008e56:	b087      	sub	sp, #28
 8008e58:	af00      	add	r7, sp, #0
 8008e5a:	60f8      	str	r0, [r7, #12]
 8008e5c:	60b9      	str	r1, [r7, #8]
 8008e5e:	4613      	mov	r3, r2
 8008e60:	71fb      	strb	r3, [r7, #7]
  uint8_t result = USBD_OK;
 8008e62:	2300      	movs	r3, #0
 8008e64:	75fb      	strb	r3, [r7, #23]
  /* USER CODE BEGIN 13 */
  UNUSED(Buf);
  UNUSED(Len);
  UNUSED(epnum);
  /* USER CODE END 13 */
  return result;
 8008e66:	f997 3017 	ldrsb.w	r3, [r7, #23]
}
 8008e6a:	4618      	mov	r0, r3
 8008e6c:	371c      	adds	r7, #28
 8008e6e:	46bd      	mov	sp, r7
 8008e70:	f85d 7b04 	ldr.w	r7, [sp], #4
 8008e74:	4770      	bx	lr
	...

08008e78 <USBD_FS_DeviceDescriptor>:
  * @param  speed : Current device speed
  * @param  length : Pointer to data length variable
  * @retval Pointer to descriptor buffer
  */
uint8_t * USBD_FS_DeviceDescriptor(USBD_SpeedTypeDef speed, uint16_t *length)
{
 8008e78:	b480      	push	{r7}
 8008e7a:	b083      	sub	sp, #12
 8008e7c:	af00      	add	r7, sp, #0
 8008e7e:	4603      	mov	r3, r0
 8008e80:	6039      	str	r1, [r7, #0]
 8008e82:	71fb      	strb	r3, [r7, #7]
  UNUSED(speed);
  *length = sizeof(USBD_FS_DeviceDesc);
 8008e84:	683b      	ldr	r3, [r7, #0]
 8008e86:	2212      	movs	r2, #18
 8008e88:	801a      	strh	r2, [r3, #0]
  return USBD_FS_DeviceDesc;
 8008e8a:	4b03      	ldr	r3, [pc, #12]	@ (8008e98 <USBD_FS_DeviceDescriptor+0x20>)
}
 8008e8c:	4618      	mov	r0, r3
 8008e8e:	370c      	adds	r7, #12
 8008e90:	46bd      	mov	sp, r7
 8008e92:	f85d 7b04 	ldr.w	r7, [sp], #4
 8008e96:	4770      	bx	lr
 8008e98:	200000dc 	.word	0x200000dc

08008e9c <USBD_FS_LangIDStrDescriptor>:
  * @param  speed : Current device speed
  * @param  length : Pointer to data length variable
  * @retval Pointer to descriptor buffer
  */
uint8_t * USBD_FS_LangIDStrDescriptor(USBD_SpeedTypeDef speed, uint16_t *length)
{
 8008e9c:	b480      	push	{r7}
 8008e9e:	b083      	sub	sp, #12
 8008ea0:	af00      	add	r7, sp, #0
 8008ea2:	4603      	mov	r3, r0
 8008ea4:	6039      	str	r1, [r7, #0]
 8008ea6:	71fb      	strb	r3, [r7, #7]
  UNUSED(speed);
  *length = sizeof(USBD_LangIDDesc);
 8008ea8:	683b      	ldr	r3, [r7, #0]
 8008eaa:	2204      	movs	r2, #4
 8008eac:	801a      	strh	r2, [r3, #0]
  return USBD_LangIDDesc;
 8008eae:	4b03      	ldr	r3, [pc, #12]	@ (8008ebc <USBD_FS_LangIDStrDescriptor+0x20>)
}
 8008eb0:	4618      	mov	r0, r3
 8008eb2:	370c      	adds	r7, #12
 8008eb4:	46bd      	mov	sp, r7
 8008eb6:	f85d 7b04 	ldr.w	r7, [sp], #4
 8008eba:	4770      	bx	lr
 8008ebc:	200000f0 	.word	0x200000f0

08008ec0 <USBD_FS_ProductStrDescriptor>:
  * @param  speed : Current device speed
  * @param  length : Pointer to data length variable
  * @retval Pointer to descriptor buffer
  */
uint8_t * USBD_FS_ProductStrDescriptor(USBD_SpeedTypeDef speed, uint16_t *length)
{
 8008ec0:	b580      	push	{r7, lr}
 8008ec2:	b082      	sub	sp, #8
 8008ec4:	af00      	add	r7, sp, #0
 8008ec6:	4603      	mov	r3, r0
 8008ec8:	6039      	str	r1, [r7, #0]
 8008eca:	71fb      	strb	r3, [r7, #7]
  if(speed == 0)
 8008ecc:	79fb      	ldrb	r3, [r7, #7]
 8008ece:	2b00      	cmp	r3, #0
 8008ed0:	d105      	bne.n	8008ede <USBD_FS_ProductStrDescriptor+0x1e>
  {
    USBD_GetString((uint8_t *)USBD_PRODUCT_STRING_FS, USBD_StrDesc, length);
 8008ed2:	683a      	ldr	r2, [r7, #0]
 8008ed4:	4907      	ldr	r1, [pc, #28]	@ (8008ef4 <USBD_FS_ProductStrDescriptor+0x34>)
 8008ed6:	4808      	ldr	r0, [pc, #32]	@ (8008ef8 <USBD_FS_ProductStrDescriptor+0x38>)
 8008ed8:	f7ff fd88 	bl	80089ec <USBD_GetString>
 8008edc:	e004      	b.n	8008ee8 <USBD_FS_ProductStrDescriptor+0x28>
  }
  else
  {
    USBD_GetString((uint8_t *)USBD_PRODUCT_STRING_FS, USBD_StrDesc, length);
 8008ede:	683a      	ldr	r2, [r7, #0]
 8008ee0:	4904      	ldr	r1, [pc, #16]	@ (8008ef4 <USBD_FS_ProductStrDescriptor+0x34>)
 8008ee2:	4805      	ldr	r0, [pc, #20]	@ (8008ef8 <USBD_FS_ProductStrDescriptor+0x38>)
 8008ee4:	f7ff fd82 	bl	80089ec <USBD_GetString>
  }
  return USBD_StrDesc;
 8008ee8:	4b02      	ldr	r3, [pc, #8]	@ (8008ef4 <USBD_FS_ProductStrDescriptor+0x34>)
}
 8008eea:	4618      	mov	r0, r3
 8008eec:	3708      	adds	r7, #8
 8008eee:	46bd      	mov	sp, r7
 8008ef0:	bd80      	pop	{r7, pc}
 8008ef2:	bf00      	nop
 8008ef4:	20001dc8 	.word	0x20001dc8
 8008ef8:	08009748 	.word	0x08009748

08008efc <USBD_FS_ManufacturerStrDescriptor>:
  * @param  speed : Current device speed
  * @param  length : Pointer to data length variable
  * @retval Pointer to descriptor buffer
  */
uint8_t * USBD_FS_ManufacturerStrDescriptor(USBD_SpeedTypeDef speed, uint16_t *length)
{
 8008efc:	b580      	push	{r7, lr}
 8008efe:	b082      	sub	sp, #8
 8008f00:	af00      	add	r7, sp, #0
 8008f02:	4603      	mov	r3, r0
 8008f04:	6039      	str	r1, [r7, #0]
 8008f06:	71fb      	strb	r3, [r7, #7]
  UNUSED(speed);
  USBD_GetString((uint8_t *)USBD_MANUFACTURER_STRING, USBD_StrDesc, length);
 8008f08:	683a      	ldr	r2, [r7, #0]
 8008f0a:	4904      	ldr	r1, [pc, #16]	@ (8008f1c <USBD_FS_ManufacturerStrDescriptor+0x20>)
 8008f0c:	4804      	ldr	r0, [pc, #16]	@ (8008f20 <USBD_FS_ManufacturerStrDescriptor+0x24>)
 8008f0e:	f7ff fd6d 	bl	80089ec <USBD_GetString>
  return USBD_StrDesc;
 8008f12:	4b02      	ldr	r3, [pc, #8]	@ (8008f1c <USBD_FS_ManufacturerStrDescriptor+0x20>)
}
 8008f14:	4618      	mov	r0, r3
 8008f16:	3708      	adds	r7, #8
 8008f18:	46bd      	mov	sp, r7
 8008f1a:	bd80      	pop	{r7, pc}
 8008f1c:	20001dc8 	.word	0x20001dc8
 8008f20:	08009760 	.word	0x08009760

08008f24 <USBD_FS_SerialStrDescriptor>:
  * @param  speed : Current device speed
  * @param  length : Pointer to data length variable
  * @retval Pointer to descriptor buffer
  */
uint8_t * USBD_FS_SerialStrDescriptor(USBD_SpeedTypeDef speed, uint16_t *length)
{
 8008f24:	b580      	push	{r7, lr}
 8008f26:	b082      	sub	sp, #8
 8008f28:	af00      	add	r7, sp, #0
 8008f2a:	4603      	mov	r3, r0
 8008f2c:	6039      	str	r1, [r7, #0]
 8008f2e:	71fb      	strb	r3, [r7, #7]
  UNUSED(speed);
  *length = USB_SIZ_STRING_SERIAL;
 8008f30:	683b      	ldr	r3, [r7, #0]
 8008f32:	221a      	movs	r2, #26
 8008f34:	801a      	strh	r2, [r3, #0]

  /* Update the serial number string descriptor with the data from the unique
   * ID */
  Get_SerialNum();
 8008f36:	f000 f843 	bl	8008fc0 <Get_SerialNum>
  /* USER CODE BEGIN USBD_FS_SerialStrDescriptor */

  /* USER CODE END USBD_FS_SerialStrDescriptor */
  return (uint8_t *) USBD_StringSerial;
 8008f3a:	4b02      	ldr	r3, [pc, #8]	@ (8008f44 <USBD_FS_SerialStrDescriptor+0x20>)
}
 8008f3c:	4618      	mov	r0, r3
 8008f3e:	3708      	adds	r7, #8
 8008f40:	46bd      	mov	sp, r7
 8008f42:	bd80      	pop	{r7, pc}
 8008f44:	200000f4 	.word	0x200000f4

08008f48 <USBD_FS_ConfigStrDescriptor>:
  * @param  speed : Current device speed
  * @param  length : Pointer to data length variable
  * @retval Pointer to descriptor buffer
  */
uint8_t * USBD_FS_ConfigStrDescriptor(USBD_SpeedTypeDef speed, uint16_t *length)
{
 8008f48:	b580      	push	{r7, lr}
 8008f4a:	b082      	sub	sp, #8
 8008f4c:	af00      	add	r7, sp, #0
 8008f4e:	4603      	mov	r3, r0
 8008f50:	6039      	str	r1, [r7, #0]
 8008f52:	71fb      	strb	r3, [r7, #7]
  if(speed == USBD_SPEED_HIGH)
 8008f54:	79fb      	ldrb	r3, [r7, #7]
 8008f56:	2b00      	cmp	r3, #0
 8008f58:	d105      	bne.n	8008f66 <USBD_FS_ConfigStrDescriptor+0x1e>
  {
    USBD_GetString((uint8_t *)USBD_CONFIGURATION_STRING_FS, USBD_StrDesc, length);
 8008f5a:	683a      	ldr	r2, [r7, #0]
 8008f5c:	4907      	ldr	r1, [pc, #28]	@ (8008f7c <USBD_FS_ConfigStrDescriptor+0x34>)
 8008f5e:	4808      	ldr	r0, [pc, #32]	@ (8008f80 <USBD_FS_ConfigStrDescriptor+0x38>)
 8008f60:	f7ff fd44 	bl	80089ec <USBD_GetString>
 8008f64:	e004      	b.n	8008f70 <USBD_FS_ConfigStrDescriptor+0x28>
  }
  else
  {
    USBD_GetString((uint8_t *)USBD_CONFIGURATION_STRING_FS, USBD_StrDesc, length);
 8008f66:	683a      	ldr	r2, [r7, #0]
 8008f68:	4904      	ldr	r1, [pc, #16]	@ (8008f7c <USBD_FS_ConfigStrDescriptor+0x34>)
 8008f6a:	4805      	ldr	r0, [pc, #20]	@ (8008f80 <USBD_FS_ConfigStrDescriptor+0x38>)
 8008f6c:	f7ff fd3e 	bl	80089ec <USBD_GetString>
  }
  return USBD_StrDesc;
 8008f70:	4b02      	ldr	r3, [pc, #8]	@ (8008f7c <USBD_FS_ConfigStrDescriptor+0x34>)
}
 8008f72:	4618      	mov	r0, r3
 8008f74:	3708      	adds	r7, #8
 8008f76:	46bd      	mov	sp, r7
 8008f78:	bd80      	pop	{r7, pc}
 8008f7a:	bf00      	nop
 8008f7c:	20001dc8 	.word	0x20001dc8
 8008f80:	08009774 	.word	0x08009774

08008f84 <USBD_FS_InterfaceStrDescriptor>:
  * @param  speed : Current device speed
  * @param  length : Pointer to data length variable
  * @retval Pointer to descriptor buffer
  */
uint8_t * USBD_FS_InterfaceStrDescriptor(USBD_SpeedTypeDef speed, uint16_t *length)
{
 8008f84:	b580      	push	{r7, lr}
 8008f86:	b082      	sub	sp, #8
 8008f88:	af00      	add	r7, sp, #0
 8008f8a:	4603      	mov	r3, r0
 8008f8c:	6039      	str	r1, [r7, #0]
 8008f8e:	71fb      	strb	r3, [r7, #7]
  if(speed == 0)
 8008f90:	79fb      	ldrb	r3, [r7, #7]
 8008f92:	2b00      	cmp	r3, #0
 8008f94:	d105      	bne.n	8008fa2 <USBD_FS_InterfaceStrDescriptor+0x1e>
  {
    USBD_GetString((uint8_t *)USBD_INTERFACE_STRING_FS, USBD_StrDesc, length);
 8008f96:	683a      	ldr	r2, [r7, #0]
 8008f98:	4907      	ldr	r1, [pc, #28]	@ (8008fb8 <USBD_FS_InterfaceStrDescriptor+0x34>)
 8008f9a:	4808      	ldr	r0, [pc, #32]	@ (8008fbc <USBD_FS_InterfaceStrDescriptor+0x38>)
 8008f9c:	f7ff fd26 	bl	80089ec <USBD_GetString>
 8008fa0:	e004      	b.n	8008fac <USBD_FS_InterfaceStrDescriptor+0x28>
  }
  else
  {
    USBD_GetString((uint8_t *)USBD_INTERFACE_STRING_FS, USBD_StrDesc, length);
 8008fa2:	683a      	ldr	r2, [r7, #0]
 8008fa4:	4904      	ldr	r1, [pc, #16]	@ (8008fb8 <USBD_FS_InterfaceStrDescriptor+0x34>)
 8008fa6:	4805      	ldr	r0, [pc, #20]	@ (8008fbc <USBD_FS_InterfaceStrDescriptor+0x38>)
 8008fa8:	f7ff fd20 	bl	80089ec <USBD_GetString>
  }
  return USBD_StrDesc;
 8008fac:	4b02      	ldr	r3, [pc, #8]	@ (8008fb8 <USBD_FS_InterfaceStrDescriptor+0x34>)
}
 8008fae:	4618      	mov	r0, r3
 8008fb0:	3708      	adds	r7, #8
 8008fb2:	46bd      	mov	sp, r7
 8008fb4:	bd80      	pop	{r7, pc}
 8008fb6:	bf00      	nop
 8008fb8:	20001dc8 	.word	0x20001dc8
 8008fbc:	08009780 	.word	0x08009780

08008fc0 <Get_SerialNum>:
  * @brief  Create the serial number string descriptor
  * @param  None
  * @retval None
  */
static void Get_SerialNum(void)
{
 8008fc0:	b580      	push	{r7, lr}
 8008fc2:	b084      	sub	sp, #16
 8008fc4:	af00      	add	r7, sp, #0
  uint32_t deviceserial0;
  uint32_t deviceserial1;
  uint32_t deviceserial2;

  deviceserial0 = *(uint32_t *) DEVICE_ID1;
 8008fc6:	4b0f      	ldr	r3, [pc, #60]	@ (8009004 <Get_SerialNum+0x44>)
 8008fc8:	681b      	ldr	r3, [r3, #0]
 8008fca:	60fb      	str	r3, [r7, #12]
  deviceserial1 = *(uint32_t *) DEVICE_ID2;
 8008fcc:	4b0e      	ldr	r3, [pc, #56]	@ (8009008 <Get_SerialNum+0x48>)
 8008fce:	681b      	ldr	r3, [r3, #0]
 8008fd0:	60bb      	str	r3, [r7, #8]
  deviceserial2 = *(uint32_t *) DEVICE_ID3;
 8008fd2:	4b0e      	ldr	r3, [pc, #56]	@ (800900c <Get_SerialNum+0x4c>)
 8008fd4:	681b      	ldr	r3, [r3, #0]
 8008fd6:	607b      	str	r3, [r7, #4]

  deviceserial0 += deviceserial2;
 8008fd8:	68fa      	ldr	r2, [r7, #12]
 8008fda:	687b      	ldr	r3, [r7, #4]
 8008fdc:	4413      	add	r3, r2
 8008fde:	60fb      	str	r3, [r7, #12]

  if (deviceserial0 != 0)
 8008fe0:	68fb      	ldr	r3, [r7, #12]
 8008fe2:	2b00      	cmp	r3, #0
 8008fe4:	d009      	beq.n	8008ffa <Get_SerialNum+0x3a>
  {
    IntToUnicode(deviceserial0, &USBD_StringSerial[2], 8);
 8008fe6:	2208      	movs	r2, #8
 8008fe8:	4909      	ldr	r1, [pc, #36]	@ (8009010 <Get_SerialNum+0x50>)
 8008fea:	68f8      	ldr	r0, [r7, #12]
 8008fec:	f000 f814 	bl	8009018 <IntToUnicode>
    IntToUnicode(deviceserial1, &USBD_StringSerial[18], 4);
 8008ff0:	2204      	movs	r2, #4
 8008ff2:	4908      	ldr	r1, [pc, #32]	@ (8009014 <Get_SerialNum+0x54>)
 8008ff4:	68b8      	ldr	r0, [r7, #8]
 8008ff6:	f000 f80f 	bl	8009018 <IntToUnicode>
  }
}
 8008ffa:	bf00      	nop
 8008ffc:	3710      	adds	r7, #16
 8008ffe:	46bd      	mov	sp, r7
 8009000:	bd80      	pop	{r7, pc}
 8009002:	bf00      	nop
 8009004:	1fff7a10 	.word	0x1fff7a10
 8009008:	1fff7a14 	.word	0x1fff7a14
 800900c:	1fff7a18 	.word	0x1fff7a18
 8009010:	200000f6 	.word	0x200000f6
 8009014:	20000106 	.word	0x20000106

08009018 <IntToUnicode>:
  * @param  pbuf: pointer to the buffer
  * @param  len: buffer length
  * @retval None
  */
static void IntToUnicode(uint32_t value, uint8_t * pbuf, uint8_t len)
{
 8009018:	b480      	push	{r7}
 800901a:	b087      	sub	sp, #28
 800901c:	af00      	add	r7, sp, #0
 800901e:	60f8      	str	r0, [r7, #12]
 8009020:	60b9      	str	r1, [r7, #8]
 8009022:	4613      	mov	r3, r2
 8009024:	71fb      	strb	r3, [r7, #7]
  uint8_t idx = 0;
 8009026:	2300      	movs	r3, #0
 8009028:	75fb      	strb	r3, [r7, #23]

  for (idx = 0; idx < len; idx++)
 800902a:	2300      	movs	r3, #0
 800902c:	75fb      	strb	r3, [r7, #23]
 800902e:	e027      	b.n	8009080 <IntToUnicode+0x68>
  {
    if (((value >> 28)) < 0xA)
 8009030:	68fb      	ldr	r3, [r7, #12]
 8009032:	0f1b      	lsrs	r3, r3, #28
 8009034:	2b09      	cmp	r3, #9
 8009036:	d80b      	bhi.n	8009050 <IntToUnicode+0x38>
    {
      pbuf[2 * idx] = (value >> 28) + '0';
 8009038:	68fb      	ldr	r3, [r7, #12]
 800903a:	0f1b      	lsrs	r3, r3, #28
 800903c:	b2da      	uxtb	r2, r3
 800903e:	7dfb      	ldrb	r3, [r7, #23]
 8009040:	005b      	lsls	r3, r3, #1
 8009042:	4619      	mov	r1, r3
 8009044:	68bb      	ldr	r3, [r7, #8]
 8009046:	440b      	add	r3, r1
 8009048:	3230      	adds	r2, #48	@ 0x30
 800904a:	b2d2      	uxtb	r2, r2
 800904c:	701a      	strb	r2, [r3, #0]
 800904e:	e00a      	b.n	8009066 <IntToUnicode+0x4e>
    }
    else
    {
      pbuf[2 * idx] = (value >> 28) + 'A' - 10;
 8009050:	68fb      	ldr	r3, [r7, #12]
 8009052:	0f1b      	lsrs	r3, r3, #28
 8009054:	b2da      	uxtb	r2, r3
 8009056:	7dfb      	ldrb	r3, [r7, #23]
 8009058:	005b      	lsls	r3, r3, #1
 800905a:	4619      	mov	r1, r3
 800905c:	68bb      	ldr	r3, [r7, #8]
 800905e:	440b      	add	r3, r1
 8009060:	3237      	adds	r2, #55	@ 0x37
 8009062:	b2d2      	uxtb	r2, r2
 8009064:	701a      	strb	r2, [r3, #0]
    }

    value = value << 4;
 8009066:	68fb      	ldr	r3, [r7, #12]
 8009068:	011b      	lsls	r3, r3, #4
 800906a:	60fb      	str	r3, [r7, #12]

    pbuf[2 * idx + 1] = 0;
 800906c:	7dfb      	ldrb	r3, [r7, #23]
 800906e:	005b      	lsls	r3, r3, #1
 8009070:	3301      	adds	r3, #1
 8009072:	68ba      	ldr	r2, [r7, #8]
 8009074:	4413      	add	r3, r2
 8009076:	2200      	movs	r2, #0
 8009078:	701a      	strb	r2, [r3, #0]
  for (idx = 0; idx < len; idx++)
 800907a:	7dfb      	ldrb	r3, [r7, #23]
 800907c:	3301      	adds	r3, #1
 800907e:	75fb      	strb	r3, [r7, #23]
 8009080:	7dfa      	ldrb	r2, [r7, #23]
 8009082:	79fb      	ldrb	r3, [r7, #7]
 8009084:	429a      	cmp	r2, r3
 8009086:	d3d3      	bcc.n	8009030 <IntToUnicode+0x18>
  }
}
 8009088:	bf00      	nop
 800908a:	bf00      	nop
 800908c:	371c      	adds	r7, #28
 800908e:	46bd      	mov	sp, r7
 8009090:	f85d 7b04 	ldr.w	r7, [sp], #4
 8009094:	4770      	bx	lr
	...

08009098 <HAL_PCD_MspInit>:
                       LL Driver Callbacks (PCD -> USB Device Library)
*******************************************************************************/
/* MSP Init */

void HAL_PCD_MspInit(PCD_HandleTypeDef* pcdHandle)
{
 8009098:	b580      	push	{r7, lr}
 800909a:	b08a      	sub	sp, #40	@ 0x28
 800909c:	af00      	add	r7, sp, #0
 800909e:	6078      	str	r0, [r7, #4]
  GPIO_InitTypeDef GPIO_InitStruct = {0};
 80090a0:	f107 0314 	add.w	r3, r7, #20
 80090a4:	2200      	movs	r2, #0
 80090a6:	601a      	str	r2, [r3, #0]
 80090a8:	605a      	str	r2, [r3, #4]
 80090aa:	609a      	str	r2, [r3, #8]
 80090ac:	60da      	str	r2, [r3, #12]
 80090ae:	611a      	str	r2, [r3, #16]
  if(pcdHandle->Instance==USB_OTG_FS)
 80090b0:	687b      	ldr	r3, [r7, #4]
 80090b2:	681b      	ldr	r3, [r3, #0]
 80090b4:	f1b3 4fa0 	cmp.w	r3, #1342177280	@ 0x50000000
 80090b8:	d147      	bne.n	800914a <HAL_PCD_MspInit+0xb2>
  {
  /* USER CODE BEGIN USB_OTG_FS_MspInit 0 */

  /* USER CODE END USB_OTG_FS_MspInit 0 */

    __HAL_RCC_GPIOA_CLK_ENABLE();
 80090ba:	2300      	movs	r3, #0
 80090bc:	613b      	str	r3, [r7, #16]
 80090be:	4b25      	ldr	r3, [pc, #148]	@ (8009154 <HAL_PCD_MspInit+0xbc>)
 80090c0:	6b1b      	ldr	r3, [r3, #48]	@ 0x30
 80090c2:	4a24      	ldr	r2, [pc, #144]	@ (8009154 <HAL_PCD_MspInit+0xbc>)
 80090c4:	f043 0301 	orr.w	r3, r3, #1
 80090c8:	6313      	str	r3, [r2, #48]	@ 0x30
 80090ca:	4b22      	ldr	r3, [pc, #136]	@ (8009154 <HAL_PCD_MspInit+0xbc>)
 80090cc:	6b1b      	ldr	r3, [r3, #48]	@ 0x30
 80090ce:	f003 0301 	and.w	r3, r3, #1
 80090d2:	613b      	str	r3, [r7, #16]
 80090d4:	693b      	ldr	r3, [r7, #16]
    PA9     ------> USB_OTG_FS_VBUS
    PA10     ------> USB_OTG_FS_ID
    PA11     ------> USB_OTG_FS_DM
    PA12     ------> USB_OTG_FS_DP
    */
    GPIO_InitStruct.Pin = VBUS_FS_Pin;
 80090d6:	f44f 7300 	mov.w	r3, #512	@ 0x200
 80090da:	617b      	str	r3, [r7, #20]
    GPIO_InitStruct.Mode = GPIO_MODE_INPUT;
 80090dc:	2300      	movs	r3, #0
 80090de:	61bb      	str	r3, [r7, #24]
    GPIO_InitStruct.Pull = GPIO_NOPULL;
 80090e0:	2300      	movs	r3, #0
 80090e2:	61fb      	str	r3, [r7, #28]
    HAL_GPIO_Init(VBUS_FS_GPIO_Port, &GPIO_InitStruct);
 80090e4:	f107 0314 	add.w	r3, r7, #20
 80090e8:	4619      	mov	r1, r3
 80090ea:	481b      	ldr	r0, [pc, #108]	@ (8009158 <HAL_PCD_MspInit+0xc0>)
 80090ec:	f7f9 f99c 	bl	8002428 <HAL_GPIO_Init>

    GPIO_InitStruct.Pin = OTG_FS_ID_Pin|OTG_FS_DM_Pin|OTG_FS_DP_Pin;
 80090f0:	f44f 53e0 	mov.w	r3, #7168	@ 0x1c00
 80090f4:	617b      	str	r3, [r7, #20]
    GPIO_InitStruct.Mode = GPIO_MODE_AF_PP;
 80090f6:	2302      	movs	r3, #2
 80090f8:	61bb      	str	r3, [r7, #24]
    GPIO_InitStruct.Pull = GPIO_NOPULL;
 80090fa:	2300      	movs	r3, #0
 80090fc:	61fb      	str	r3, [r7, #28]
    GPIO_InitStruct.Speed = GPIO_SPEED_FREQ_VERY_HIGH;
 80090fe:	2303      	movs	r3, #3
 8009100:	623b      	str	r3, [r7, #32]
    GPIO_InitStruct.Alternate = GPIO_AF10_OTG_FS;
 8009102:	230a      	movs	r3, #10
 8009104:	627b      	str	r3, [r7, #36]	@ 0x24
    HAL_GPIO_Init(GPIOA, &GPIO_InitStruct);
 8009106:	f107 0314 	add.w	r3, r7, #20
 800910a:	4619      	mov	r1, r3
 800910c:	4812      	ldr	r0, [pc, #72]	@ (8009158 <HAL_PCD_MspInit+0xc0>)
 800910e:	f7f9 f98b 	bl	8002428 <HAL_GPIO_Init>

    /* Peripheral clock enable */
    __HAL_RCC_USB_OTG_FS_CLK_ENABLE();
 8009112:	4b10      	ldr	r3, [pc, #64]	@ (8009154 <HAL_PCD_MspInit+0xbc>)
 8009114:	6b5b      	ldr	r3, [r3, #52]	@ 0x34
 8009116:	4a0f      	ldr	r2, [pc, #60]	@ (8009154 <HAL_PCD_MspInit+0xbc>)
 8009118:	f043 0380 	orr.w	r3, r3, #128	@ 0x80
 800911c:	6353      	str	r3, [r2, #52]	@ 0x34
 800911e:	2300      	movs	r3, #0
 8009120:	60fb      	str	r3, [r7, #12]
 8009122:	4b0c      	ldr	r3, [pc, #48]	@ (8009154 <HAL_PCD_MspInit+0xbc>)
 8009124:	6c5b      	ldr	r3, [r3, #68]	@ 0x44
 8009126:	4a0b      	ldr	r2, [pc, #44]	@ (8009154 <HAL_PCD_MspInit+0xbc>)
 8009128:	f443 4380 	orr.w	r3, r3, #16384	@ 0x4000
 800912c:	6453      	str	r3, [r2, #68]	@ 0x44
 800912e:	4b09      	ldr	r3, [pc, #36]	@ (8009154 <HAL_PCD_MspInit+0xbc>)
 8009130:	6c5b      	ldr	r3, [r3, #68]	@ 0x44
 8009132:	f403 4380 	and.w	r3, r3, #16384	@ 0x4000
 8009136:	60fb      	str	r3, [r7, #12]
 8009138:	68fb      	ldr	r3, [r7, #12]

    /* Peripheral interrupt init */
    HAL_NVIC_SetPriority(OTG_FS_IRQn, 0, 0);
 800913a:	2200      	movs	r2, #0
 800913c:	2100      	movs	r1, #0
 800913e:	2043      	movs	r0, #67	@ 0x43
 8009140:	f7f8 fdcb 	bl	8001cda <HAL_NVIC_SetPriority>
    HAL_NVIC_EnableIRQ(OTG_FS_IRQn);
 8009144:	2043      	movs	r0, #67	@ 0x43
 8009146:	f7f8 fde4 	bl	8001d12 <HAL_NVIC_EnableIRQ>
  /* USER CODE BEGIN USB_OTG_FS_MspInit 1 */

  /* USER CODE END USB_OTG_FS_MspInit 1 */
  }
}
 800914a:	bf00      	nop
 800914c:	3728      	adds	r7, #40	@ 0x28
 800914e:	46bd      	mov	sp, r7
 8009150:	bd80      	pop	{r7, pc}
 8009152:	bf00      	nop
 8009154:	40023800 	.word	0x40023800
 8009158:	40020000 	.word	0x40020000

0800915c <HAL_PCD_SetupStageCallback>:
#if (USE_HAL_PCD_REGISTER_CALLBACKS == 1U)
static void PCD_SetupStageCallback(PCD_HandleTypeDef *hpcd)
#else
void HAL_PCD_SetupStageCallback(PCD_HandleTypeDef *hpcd)
#endif /* USE_HAL_PCD_REGISTER_CALLBACKS */
{
 800915c:	b580      	push	{r7, lr}
 800915e:	b082      	sub	sp, #8
 8009160:	af00      	add	r7, sp, #0
 8009162:	6078      	str	r0, [r7, #4]
  USBD_LL_SetupStage((USBD_HandleTypeDef*)hpcd->pData, (uint8_t *)hpcd->Setup);
 8009164:	687b      	ldr	r3, [r7, #4]
 8009166:	f8d3 24e0 	ldr.w	r2, [r3, #1248]	@ 0x4e0
 800916a:	687b      	ldr	r3, [r7, #4]
 800916c:	f203 439c 	addw	r3, r3, #1180	@ 0x49c
 8009170:	4619      	mov	r1, r3
 8009172:	4610      	mov	r0, r2
 8009174:	f7fe fac1 	bl	80076fa <USBD_LL_SetupStage>
}
 8009178:	bf00      	nop
 800917a:	3708      	adds	r7, #8
 800917c:	46bd      	mov	sp, r7
 800917e:	bd80      	pop	{r7, pc}

08009180 <HAL_PCD_DataOutStageCallback>:
#if (USE_HAL_PCD_REGISTER_CALLBACKS == 1U)
static void PCD_DataOutStageCallback(PCD_HandleTypeDef *hpcd, uint8_t epnum)
#else
void HAL_PCD_DataOutStageCallback(PCD_HandleTypeDef *hpcd, uint8_t epnum)
#endif /* USE_HAL_PCD_REGISTER_CALLBACKS */
{
 8009180:	b580      	push	{r7, lr}
 8009182:	b082      	sub	sp, #8
 8009184:	af00      	add	r7, sp, #0
 8009186:	6078      	str	r0, [r7, #4]
 8009188:	460b      	mov	r3, r1
 800918a:	70fb      	strb	r3, [r7, #3]
  USBD_LL_DataOutStage((USBD_HandleTypeDef*)hpcd->pData, epnum, hpcd->OUT_ep[epnum].xfer_buff);
 800918c:	687b      	ldr	r3, [r7, #4]
 800918e:	f8d3 04e0 	ldr.w	r0, [r3, #1248]	@ 0x4e0
 8009192:	78fa      	ldrb	r2, [r7, #3]
 8009194:	6879      	ldr	r1, [r7, #4]
 8009196:	4613      	mov	r3, r2
 8009198:	00db      	lsls	r3, r3, #3
 800919a:	4413      	add	r3, r2
 800919c:	009b      	lsls	r3, r3, #2
 800919e:	440b      	add	r3, r1
 80091a0:	f503 7318 	add.w	r3, r3, #608	@ 0x260
 80091a4:	681a      	ldr	r2, [r3, #0]
 80091a6:	78fb      	ldrb	r3, [r7, #3]
 80091a8:	4619      	mov	r1, r3
 80091aa:	f7fe fafb 	bl	80077a4 <USBD_LL_DataOutStage>
}
 80091ae:	bf00      	nop
 80091b0:	3708      	adds	r7, #8
 80091b2:	46bd      	mov	sp, r7
 80091b4:	bd80      	pop	{r7, pc}

080091b6 <HAL_PCD_DataInStageCallback>:
#if (USE_HAL_PCD_REGISTER_CALLBACKS == 1U)
static void PCD_DataInStageCallback(PCD_HandleTypeDef *hpcd, uint8_t epnum)
#else
void HAL_PCD_DataInStageCallback(PCD_HandleTypeDef *hpcd, uint8_t epnum)
#endif /* USE_HAL_PCD_REGISTER_CALLBACKS */
{
 80091b6:	b580      	push	{r7, lr}
 80091b8:	b082      	sub	sp, #8
 80091ba:	af00      	add	r7, sp, #0
 80091bc:	6078      	str	r0, [r7, #4]
 80091be:	460b      	mov	r3, r1
 80091c0:	70fb      	strb	r3, [r7, #3]
  USBD_LL_DataInStage((USBD_HandleTypeDef*)hpcd->pData, epnum, hpcd->IN_ep[epnum].xfer_buff);
 80091c2:	687b      	ldr	r3, [r7, #4]
 80091c4:	f8d3 04e0 	ldr.w	r0, [r3, #1248]	@ 0x4e0
 80091c8:	78fa      	ldrb	r2, [r7, #3]
 80091ca:	6879      	ldr	r1, [r7, #4]
 80091cc:	4613      	mov	r3, r2
 80091ce:	00db      	lsls	r3, r3, #3
 80091d0:	4413      	add	r3, r2
 80091d2:	009b      	lsls	r3, r3, #2
 80091d4:	440b      	add	r3, r1
 80091d6:	3320      	adds	r3, #32
 80091d8:	681a      	ldr	r2, [r3, #0]
 80091da:	78fb      	ldrb	r3, [r7, #3]
 80091dc:	4619      	mov	r1, r3
 80091de:	f7fe fb9d 	bl	800791c <USBD_LL_DataInStage>
}
 80091e2:	bf00      	nop
 80091e4:	3708      	adds	r7, #8
 80091e6:	46bd      	mov	sp, r7
 80091e8:	bd80      	pop	{r7, pc}

080091ea <HAL_PCD_SOFCallback>:
#if (USE_HAL_PCD_REGISTER_CALLBACKS == 1U)
static void PCD_SOFCallback(PCD_HandleTypeDef *hpcd)
#else
void HAL_PCD_SOFCallback(PCD_HandleTypeDef *hpcd)
#endif /* USE_HAL_PCD_REGISTER_CALLBACKS */
{
 80091ea:	b580      	push	{r7, lr}
 80091ec:	b082      	sub	sp, #8
 80091ee:	af00      	add	r7, sp, #0
 80091f0:	6078      	str	r0, [r7, #4]
  USBD_LL_SOF((USBD_HandleTypeDef*)hpcd->pData);
 80091f2:	687b      	ldr	r3, [r7, #4]
 80091f4:	f8d3 34e0 	ldr.w	r3, [r3, #1248]	@ 0x4e0
 80091f8:	4618      	mov	r0, r3
 80091fa:	f7fe fce1 	bl	8007bc0 <USBD_LL_SOF>
}
 80091fe:	bf00      	nop
 8009200:	3708      	adds	r7, #8
 8009202:	46bd      	mov	sp, r7
 8009204:	bd80      	pop	{r7, pc}

08009206 <HAL_PCD_ResetCallback>:
#if (USE_HAL_PCD_REGISTER_CALLBACKS == 1U)
static void PCD_ResetCallback(PCD_HandleTypeDef *hpcd)
#else
void HAL_PCD_ResetCallback(PCD_HandleTypeDef *hpcd)
#endif /* USE_HAL_PCD_REGISTER_CALLBACKS */
{
 8009206:	b580      	push	{r7, lr}
 8009208:	b084      	sub	sp, #16
 800920a:	af00      	add	r7, sp, #0
 800920c:	6078      	str	r0, [r7, #4]
   USBD_SpeedTypeDef speed = USBD_SPEED_FULL;
 800920e:	2301      	movs	r3, #1
 8009210:	73fb      	strb	r3, [r7, #15]

  if ( hpcd->Init.speed != PCD_SPEED_FULL)
 8009212:	687b      	ldr	r3, [r7, #4]
 8009214:	79db      	ldrb	r3, [r3, #7]
 8009216:	2b02      	cmp	r3, #2
 8009218:	d001      	beq.n	800921e <HAL_PCD_ResetCallback+0x18>
  {
    Error_Handler();
 800921a:	f7f7 fd63 	bl	8000ce4 <Error_Handler>
  }
    /* Set Speed. */
  USBD_LL_SetSpeed((USBD_HandleTypeDef*)hpcd->pData, speed);
 800921e:	687b      	ldr	r3, [r7, #4]
 8009220:	f8d3 34e0 	ldr.w	r3, [r3, #1248]	@ 0x4e0
 8009224:	7bfa      	ldrb	r2, [r7, #15]
 8009226:	4611      	mov	r1, r2
 8009228:	4618      	mov	r0, r3
 800922a:	f7fe fc85 	bl	8007b38 <USBD_LL_SetSpeed>

  /* Reset Device. */
  USBD_LL_Reset((USBD_HandleTypeDef*)hpcd->pData);
 800922e:	687b      	ldr	r3, [r7, #4]
 8009230:	f8d3 34e0 	ldr.w	r3, [r3, #1248]	@ 0x4e0
 8009234:	4618      	mov	r0, r3
 8009236:	f7fe fc2c 	bl	8007a92 <USBD_LL_Reset>
}
 800923a:	bf00      	nop
 800923c:	3710      	adds	r7, #16
 800923e:	46bd      	mov	sp, r7
 8009240:	bd80      	pop	{r7, pc}
	...

08009244 <HAL_PCD_SuspendCallback>:
#if (USE_HAL_PCD_REGISTER_CALLBACKS == 1U)
static void PCD_SuspendCallback(PCD_HandleTypeDef *hpcd)
#else
void HAL_PCD_SuspendCallback(PCD_HandleTypeDef *hpcd)
#endif /* USE_HAL_PCD_REGISTER_CALLBACKS */
{
 8009244:	b580      	push	{r7, lr}
 8009246:	b082      	sub	sp, #8
 8009248:	af00      	add	r7, sp, #0
 800924a:	6078      	str	r0, [r7, #4]
  /* Inform USB library that core enters in suspend Mode. */
  USBD_LL_Suspend((USBD_HandleTypeDef*)hpcd->pData);
 800924c:	687b      	ldr	r3, [r7, #4]
 800924e:	f8d3 34e0 	ldr.w	r3, [r3, #1248]	@ 0x4e0
 8009252:	4618      	mov	r0, r3
 8009254:	f7fe fc80 	bl	8007b58 <USBD_LL_Suspend>
  __HAL_PCD_GATE_PHYCLOCK(hpcd);
 8009258:	687b      	ldr	r3, [r7, #4]
 800925a:	681b      	ldr	r3, [r3, #0]
 800925c:	f503 6360 	add.w	r3, r3, #3584	@ 0xe00
 8009260:	681b      	ldr	r3, [r3, #0]
 8009262:	687a      	ldr	r2, [r7, #4]
 8009264:	6812      	ldr	r2, [r2, #0]
 8009266:	f502 6260 	add.w	r2, r2, #3584	@ 0xe00
 800926a:	f043 0301 	orr.w	r3, r3, #1
 800926e:	6013      	str	r3, [r2, #0]
  /* Enter in STOP mode. */
  /* USER CODE BEGIN 2 */
  if (hpcd->Init.low_power_enable)
 8009270:	687b      	ldr	r3, [r7, #4]
 8009272:	7adb      	ldrb	r3, [r3, #11]
 8009274:	2b00      	cmp	r3, #0
 8009276:	d005      	beq.n	8009284 <HAL_PCD_SuspendCallback+0x40>
  {
    /* Set SLEEPDEEP bit and SleepOnExit of Cortex System Control Register. */
    SCB->SCR |= (uint32_t)((uint32_t)(SCB_SCR_SLEEPDEEP_Msk | SCB_SCR_SLEEPONEXIT_Msk));
 8009278:	4b04      	ldr	r3, [pc, #16]	@ (800928c <HAL_PCD_SuspendCallback+0x48>)
 800927a:	691b      	ldr	r3, [r3, #16]
 800927c:	4a03      	ldr	r2, [pc, #12]	@ (800928c <HAL_PCD_SuspendCallback+0x48>)
 800927e:	f043 0306 	orr.w	r3, r3, #6
 8009282:	6113      	str	r3, [r2, #16]
  }
  /* USER CODE END 2 */
}
 8009284:	bf00      	nop
 8009286:	3708      	adds	r7, #8
 8009288:	46bd      	mov	sp, r7
 800928a:	bd80      	pop	{r7, pc}
 800928c:	e000ed00 	.word	0xe000ed00

08009290 <HAL_PCD_ResumeCallback>:
#if (USE_HAL_PCD_REGISTER_CALLBACKS == 1U)
static void PCD_ResumeCallback(PCD_HandleTypeDef *hpcd)
#else
void HAL_PCD_ResumeCallback(PCD_HandleTypeDef *hpcd)
#endif /* USE_HAL_PCD_REGISTER_CALLBACKS */
{
 8009290:	b580      	push	{r7, lr}
 8009292:	b082      	sub	sp, #8
 8009294:	af00      	add	r7, sp, #0
 8009296:	6078      	str	r0, [r7, #4]
  /* USER CODE BEGIN 3 */

  /* USER CODE END 3 */
  USBD_LL_Resume((USBD_HandleTypeDef*)hpcd->pData);
 8009298:	687b      	ldr	r3, [r7, #4]
 800929a:	f8d3 34e0 	ldr.w	r3, [r3, #1248]	@ 0x4e0
 800929e:	4618      	mov	r0, r3
 80092a0:	f7fe fc76 	bl	8007b90 <USBD_LL_Resume>
}
 80092a4:	bf00      	nop
 80092a6:	3708      	adds	r7, #8
 80092a8:	46bd      	mov	sp, r7
 80092aa:	bd80      	pop	{r7, pc}

080092ac <HAL_PCD_ISOOUTIncompleteCallback>:
#if (USE_HAL_PCD_REGISTER_CALLBACKS == 1U)
static void PCD_ISOOUTIncompleteCallback(PCD_HandleTypeDef *hpcd, uint8_t epnum)
#else
void HAL_PCD_ISOOUTIncompleteCallback(PCD_HandleTypeDef *hpcd, uint8_t epnum)
#endif /* USE_HAL_PCD_REGISTER_CALLBACKS */
{
 80092ac:	b580      	push	{r7, lr}
 80092ae:	b082      	sub	sp, #8
 80092b0:	af00      	add	r7, sp, #0
 80092b2:	6078      	str	r0, [r7, #4]
 80092b4:	460b      	mov	r3, r1
 80092b6:	70fb      	strb	r3, [r7, #3]
  USBD_LL_IsoOUTIncomplete((USBD_HandleTypeDef*)hpcd->pData, epnum);
 80092b8:	687b      	ldr	r3, [r7, #4]
 80092ba:	f8d3 34e0 	ldr.w	r3, [r3, #1248]	@ 0x4e0
 80092be:	78fa      	ldrb	r2, [r7, #3]
 80092c0:	4611      	mov	r1, r2
 80092c2:	4618      	mov	r0, r3
 80092c4:	f7fe fcce 	bl	8007c64 <USBD_LL_IsoOUTIncomplete>
}
 80092c8:	bf00      	nop
 80092ca:	3708      	adds	r7, #8
 80092cc:	46bd      	mov	sp, r7
 80092ce:	bd80      	pop	{r7, pc}

080092d0 <HAL_PCD_ISOINIncompleteCallback>:
#if (USE_HAL_PCD_REGISTER_CALLBACKS == 1U)
static void PCD_ISOINIncompleteCallback(PCD_HandleTypeDef *hpcd, uint8_t epnum)
#else
void HAL_PCD_ISOINIncompleteCallback(PCD_HandleTypeDef *hpcd, uint8_t epnum)
#endif /* USE_HAL_PCD_REGISTER_CALLBACKS */
{
 80092d0:	b580      	push	{r7, lr}
 80092d2:	b082      	sub	sp, #8
 80092d4:	af00      	add	r7, sp, #0
 80092d6:	6078      	str	r0, [r7, #4]
 80092d8:	460b      	mov	r3, r1
 80092da:	70fb      	strb	r3, [r7, #3]
  USBD_LL_IsoINIncomplete((USBD_HandleTypeDef*)hpcd->pData, epnum);
 80092dc:	687b      	ldr	r3, [r7, #4]
 80092de:	f8d3 34e0 	ldr.w	r3, [r3, #1248]	@ 0x4e0
 80092e2:	78fa      	ldrb	r2, [r7, #3]
 80092e4:	4611      	mov	r1, r2
 80092e6:	4618      	mov	r0, r3
 80092e8:	f7fe fc8a 	bl	8007c00 <USBD_LL_IsoINIncomplete>
}
 80092ec:	bf00      	nop
 80092ee:	3708      	adds	r7, #8
 80092f0:	46bd      	mov	sp, r7
 80092f2:	bd80      	pop	{r7, pc}

080092f4 <HAL_PCD_ConnectCallback>:
#if (USE_HAL_PCD_REGISTER_CALLBACKS == 1U)
static void PCD_ConnectCallback(PCD_HandleTypeDef *hpcd)
#else
void HAL_PCD_ConnectCallback(PCD_HandleTypeDef *hpcd)
#endif /* USE_HAL_PCD_REGISTER_CALLBACKS */
{
 80092f4:	b580      	push	{r7, lr}
 80092f6:	b082      	sub	sp, #8
 80092f8:	af00      	add	r7, sp, #0
 80092fa:	6078      	str	r0, [r7, #4]
  USBD_LL_DevConnected((USBD_HandleTypeDef*)hpcd->pData);
 80092fc:	687b      	ldr	r3, [r7, #4]
 80092fe:	f8d3 34e0 	ldr.w	r3, [r3, #1248]	@ 0x4e0
 8009302:	4618      	mov	r0, r3
 8009304:	f7fe fce0 	bl	8007cc8 <USBD_LL_DevConnected>
}
 8009308:	bf00      	nop
 800930a:	3708      	adds	r7, #8
 800930c:	46bd      	mov	sp, r7
 800930e:	bd80      	pop	{r7, pc}

08009310 <HAL_PCD_DisconnectCallback>:
#if (USE_HAL_PCD_REGISTER_CALLBACKS == 1U)
static void PCD_DisconnectCallback(PCD_HandleTypeDef *hpcd)
#else
void HAL_PCD_DisconnectCallback(PCD_HandleTypeDef *hpcd)
#endif /* USE_HAL_PCD_REGISTER_CALLBACKS */
{
 8009310:	b580      	push	{r7, lr}
 8009312:	b082      	sub	sp, #8
 8009314:	af00      	add	r7, sp, #0
 8009316:	6078      	str	r0, [r7, #4]
  USBD_LL_DevDisconnected((USBD_HandleTypeDef*)hpcd->pData);
 8009318:	687b      	ldr	r3, [r7, #4]
 800931a:	f8d3 34e0 	ldr.w	r3, [r3, #1248]	@ 0x4e0
 800931e:	4618      	mov	r0, r3
 8009320:	f7fe fcdd 	bl	8007cde <USBD_LL_DevDisconnected>
}
 8009324:	bf00      	nop
 8009326:	3708      	adds	r7, #8
 8009328:	46bd      	mov	sp, r7
 800932a:	bd80      	pop	{r7, pc}

0800932c <USBD_LL_Init>:
  * @brief  Initializes the low level portion of the device driver.
  * @param  pdev: Device handle
  * @retval USBD status
  */
USBD_StatusTypeDef USBD_LL_Init(USBD_HandleTypeDef *pdev)
{
 800932c:	b580      	push	{r7, lr}
 800932e:	b082      	sub	sp, #8
 8009330:	af00      	add	r7, sp, #0
 8009332:	6078      	str	r0, [r7, #4]
  /* Init USB Ip. */
  if (pdev->id == DEVICE_FS) {
 8009334:	687b      	ldr	r3, [r7, #4]
 8009336:	781b      	ldrb	r3, [r3, #0]
 8009338:	2b00      	cmp	r3, #0
 800933a:	d13c      	bne.n	80093b6 <USBD_LL_Init+0x8a>
  /* Link the driver to the stack. */
  hpcd_USB_OTG_FS.pData = pdev;
 800933c:	4a20      	ldr	r2, [pc, #128]	@ (80093c0 <USBD_LL_Init+0x94>)
 800933e:	687b      	ldr	r3, [r7, #4]
 8009340:	f8c2 34e0 	str.w	r3, [r2, #1248]	@ 0x4e0
  pdev->pData = &hpcd_USB_OTG_FS;
 8009344:	687b      	ldr	r3, [r7, #4]
 8009346:	4a1e      	ldr	r2, [pc, #120]	@ (80093c0 <USBD_LL_Init+0x94>)
 8009348:	f8c3 22c8 	str.w	r2, [r3, #712]	@ 0x2c8

  hpcd_USB_OTG_FS.Instance = USB_OTG_FS;
 800934c:	4b1c      	ldr	r3, [pc, #112]	@ (80093c0 <USBD_LL_Init+0x94>)
 800934e:	f04f 42a0 	mov.w	r2, #1342177280	@ 0x50000000
 8009352:	601a      	str	r2, [r3, #0]
  hpcd_USB_OTG_FS.Init.dev_endpoints = 4;
 8009354:	4b1a      	ldr	r3, [pc, #104]	@ (80093c0 <USBD_LL_Init+0x94>)
 8009356:	2204      	movs	r2, #4
 8009358:	711a      	strb	r2, [r3, #4]
  hpcd_USB_OTG_FS.Init.speed = PCD_SPEED_FULL;
 800935a:	4b19      	ldr	r3, [pc, #100]	@ (80093c0 <USBD_LL_Init+0x94>)
 800935c:	2202      	movs	r2, #2
 800935e:	71da      	strb	r2, [r3, #7]
  hpcd_USB_OTG_FS.Init.dma_enable = DISABLE;
 8009360:	4b17      	ldr	r3, [pc, #92]	@ (80093c0 <USBD_LL_Init+0x94>)
 8009362:	2200      	movs	r2, #0
 8009364:	719a      	strb	r2, [r3, #6]
  hpcd_USB_OTG_FS.Init.phy_itface = PCD_PHY_EMBEDDED;
 8009366:	4b16      	ldr	r3, [pc, #88]	@ (80093c0 <USBD_LL_Init+0x94>)
 8009368:	2202      	movs	r2, #2
 800936a:	725a      	strb	r2, [r3, #9]
  hpcd_USB_OTG_FS.Init.Sof_enable = DISABLE;
 800936c:	4b14      	ldr	r3, [pc, #80]	@ (80093c0 <USBD_LL_Init+0x94>)
 800936e:	2200      	movs	r2, #0
 8009370:	729a      	strb	r2, [r3, #10]
  hpcd_USB_OTG_FS.Init.low_power_enable = DISABLE;
 8009372:	4b13      	ldr	r3, [pc, #76]	@ (80093c0 <USBD_LL_Init+0x94>)
 8009374:	2200      	movs	r2, #0
 8009376:	72da      	strb	r2, [r3, #11]
  hpcd_USB_OTG_FS.Init.lpm_enable = DISABLE;
 8009378:	4b11      	ldr	r3, [pc, #68]	@ (80093c0 <USBD_LL_Init+0x94>)
 800937a:	2200      	movs	r2, #0
 800937c:	731a      	strb	r2, [r3, #12]
  hpcd_USB_OTG_FS.Init.vbus_sensing_enable = DISABLE;
 800937e:	4b10      	ldr	r3, [pc, #64]	@ (80093c0 <USBD_LL_Init+0x94>)
 8009380:	2200      	movs	r2, #0
 8009382:	739a      	strb	r2, [r3, #14]
  hpcd_USB_OTG_FS.Init.use_dedicated_ep1 = DISABLE;
 8009384:	4b0e      	ldr	r3, [pc, #56]	@ (80093c0 <USBD_LL_Init+0x94>)
 8009386:	2200      	movs	r2, #0
 8009388:	73da      	strb	r2, [r3, #15]
  if (HAL_PCD_Init(&hpcd_USB_OTG_FS) != HAL_OK)
 800938a:	480d      	ldr	r0, [pc, #52]	@ (80093c0 <USBD_LL_Init+0x94>)
 800938c:	f7f9 fb2e 	bl	80029ec <HAL_PCD_Init>
 8009390:	4603      	mov	r3, r0
 8009392:	2b00      	cmp	r3, #0
 8009394:	d001      	beq.n	800939a <USBD_LL_Init+0x6e>
  {
    Error_Handler( );
 8009396:	f7f7 fca5 	bl	8000ce4 <Error_Handler>
  HAL_PCD_RegisterDataOutStageCallback(&hpcd_USB_OTG_FS, PCD_DataOutStageCallback);
  HAL_PCD_RegisterDataInStageCallback(&hpcd_USB_OTG_FS, PCD_DataInStageCallback);
  HAL_PCD_RegisterIsoOutIncpltCallback(&hpcd_USB_OTG_FS, PCD_ISOOUTIncompleteCallback);
  HAL_PCD_RegisterIsoInIncpltCallback(&hpcd_USB_OTG_FS, PCD_ISOINIncompleteCallback);
#endif /* USE_HAL_PCD_REGISTER_CALLBACKS */
  HAL_PCDEx_SetRxFiFo(&hpcd_USB_OTG_FS, 0x80);
 800939a:	2180      	movs	r1, #128	@ 0x80
 800939c:	4808      	ldr	r0, [pc, #32]	@ (80093c0 <USBD_LL_Init+0x94>)
 800939e:	f7fa fd5a 	bl	8003e56 <HAL_PCDEx_SetRxFiFo>
  HAL_PCDEx_SetTxFiFo(&hpcd_USB_OTG_FS, 0, 0x40);
 80093a2:	2240      	movs	r2, #64	@ 0x40
 80093a4:	2100      	movs	r1, #0
 80093a6:	4806      	ldr	r0, [pc, #24]	@ (80093c0 <USBD_LL_Init+0x94>)
 80093a8:	f7fa fd0e 	bl	8003dc8 <HAL_PCDEx_SetTxFiFo>
  HAL_PCDEx_SetTxFiFo(&hpcd_USB_OTG_FS, 1, 0x80);
 80093ac:	2280      	movs	r2, #128	@ 0x80
 80093ae:	2101      	movs	r1, #1
 80093b0:	4803      	ldr	r0, [pc, #12]	@ (80093c0 <USBD_LL_Init+0x94>)
 80093b2:	f7fa fd09 	bl	8003dc8 <HAL_PCDEx_SetTxFiFo>
  }
  return USBD_OK;
 80093b6:	2300      	movs	r3, #0
}
 80093b8:	4618      	mov	r0, r3
 80093ba:	3708      	adds	r7, #8
 80093bc:	46bd      	mov	sp, r7
 80093be:	bd80      	pop	{r7, pc}
 80093c0:	20001fc8 	.word	0x20001fc8

080093c4 <USBD_LL_Start>:
  * @brief  Starts the low level portion of the device driver.
  * @param  pdev: Device handle
  * @retval USBD status
  */
USBD_StatusTypeDef USBD_LL_Start(USBD_HandleTypeDef *pdev)
{
 80093c4:	b580      	push	{r7, lr}
 80093c6:	b084      	sub	sp, #16
 80093c8:	af00      	add	r7, sp, #0
 80093ca:	6078      	str	r0, [r7, #4]
  HAL_StatusTypeDef hal_status = HAL_OK;
 80093cc:	2300      	movs	r3, #0
 80093ce:	73fb      	strb	r3, [r7, #15]
  USBD_StatusTypeDef usb_status = USBD_OK;
 80093d0:	2300      	movs	r3, #0
 80093d2:	73bb      	strb	r3, [r7, #14]

  hal_status = HAL_PCD_Start(pdev->pData);
 80093d4:	687b      	ldr	r3, [r7, #4]
 80093d6:	f8d3 32c8 	ldr.w	r3, [r3, #712]	@ 0x2c8
 80093da:	4618      	mov	r0, r3
 80093dc:	f7f9 fc15 	bl	8002c0a <HAL_PCD_Start>
 80093e0:	4603      	mov	r3, r0
 80093e2:	73fb      	strb	r3, [r7, #15]

  usb_status =  USBD_Get_USB_Status(hal_status);
 80093e4:	7bfb      	ldrb	r3, [r7, #15]
 80093e6:	4618      	mov	r0, r3
 80093e8:	f000 f942 	bl	8009670 <USBD_Get_USB_Status>
 80093ec:	4603      	mov	r3, r0
 80093ee:	73bb      	strb	r3, [r7, #14]

  return usb_status;
 80093f0:	7bbb      	ldrb	r3, [r7, #14]
}
 80093f2:	4618      	mov	r0, r3
 80093f4:	3710      	adds	r7, #16
 80093f6:	46bd      	mov	sp, r7
 80093f8:	bd80      	pop	{r7, pc}

080093fa <USBD_LL_OpenEP>:
  * @param  ep_type: Endpoint type
  * @param  ep_mps: Endpoint max packet size
  * @retval USBD status
  */
USBD_StatusTypeDef USBD_LL_OpenEP(USBD_HandleTypeDef *pdev, uint8_t ep_addr, uint8_t ep_type, uint16_t ep_mps)
{
 80093fa:	b580      	push	{r7, lr}
 80093fc:	b084      	sub	sp, #16
 80093fe:	af00      	add	r7, sp, #0
 8009400:	6078      	str	r0, [r7, #4]
 8009402:	4608      	mov	r0, r1
 8009404:	4611      	mov	r1, r2
 8009406:	461a      	mov	r2, r3
 8009408:	4603      	mov	r3, r0
 800940a:	70fb      	strb	r3, [r7, #3]
 800940c:	460b      	mov	r3, r1
 800940e:	70bb      	strb	r3, [r7, #2]
 8009410:	4613      	mov	r3, r2
 8009412:	803b      	strh	r3, [r7, #0]
  HAL_StatusTypeDef hal_status = HAL_OK;
 8009414:	2300      	movs	r3, #0
 8009416:	73fb      	strb	r3, [r7, #15]
  USBD_StatusTypeDef usb_status = USBD_OK;
 8009418:	2300      	movs	r3, #0
 800941a:	73bb      	strb	r3, [r7, #14]

  hal_status = HAL_PCD_EP_Open(pdev->pData, ep_addr, ep_mps, ep_type);
 800941c:	687b      	ldr	r3, [r7, #4]
 800941e:	f8d3 02c8 	ldr.w	r0, [r3, #712]	@ 0x2c8
 8009422:	78bb      	ldrb	r3, [r7, #2]
 8009424:	883a      	ldrh	r2, [r7, #0]
 8009426:	78f9      	ldrb	r1, [r7, #3]
 8009428:	f7fa f8e9 	bl	80035fe <HAL_PCD_EP_Open>
 800942c:	4603      	mov	r3, r0
 800942e:	73fb      	strb	r3, [r7, #15]

  usb_status =  USBD_Get_USB_Status(hal_status);
 8009430:	7bfb      	ldrb	r3, [r7, #15]
 8009432:	4618      	mov	r0, r3
 8009434:	f000 f91c 	bl	8009670 <USBD_Get_USB_Status>
 8009438:	4603      	mov	r3, r0
 800943a:	73bb      	strb	r3, [r7, #14]

  return usb_status;
 800943c:	7bbb      	ldrb	r3, [r7, #14]
}
 800943e:	4618      	mov	r0, r3
 8009440:	3710      	adds	r7, #16
 8009442:	46bd      	mov	sp, r7
 8009444:	bd80      	pop	{r7, pc}

08009446 <USBD_LL_CloseEP>:
  * @param  pdev: Device handle
  * @param  ep_addr: Endpoint number
  * @retval USBD status
  */
USBD_StatusTypeDef USBD_LL_CloseEP(USBD_HandleTypeDef *pdev, uint8_t ep_addr)
{
 8009446:	b580      	push	{r7, lr}
 8009448:	b084      	sub	sp, #16
 800944a:	af00      	add	r7, sp, #0
 800944c:	6078      	str	r0, [r7, #4]
 800944e:	460b      	mov	r3, r1
 8009450:	70fb      	strb	r3, [r7, #3]
  HAL_StatusTypeDef hal_status = HAL_OK;
 8009452:	2300      	movs	r3, #0
 8009454:	73fb      	strb	r3, [r7, #15]
  USBD_StatusTypeDef usb_status = USBD_OK;
 8009456:	2300      	movs	r3, #0
 8009458:	73bb      	strb	r3, [r7, #14]

  hal_status = HAL_PCD_EP_Close(pdev->pData, ep_addr);
 800945a:	687b      	ldr	r3, [r7, #4]
 800945c:	f8d3 32c8 	ldr.w	r3, [r3, #712]	@ 0x2c8
 8009460:	78fa      	ldrb	r2, [r7, #3]
 8009462:	4611      	mov	r1, r2
 8009464:	4618      	mov	r0, r3
 8009466:	f7fa f934 	bl	80036d2 <HAL_PCD_EP_Close>
 800946a:	4603      	mov	r3, r0
 800946c:	73fb      	strb	r3, [r7, #15]

  usb_status =  USBD_Get_USB_Status(hal_status);
 800946e:	7bfb      	ldrb	r3, [r7, #15]
 8009470:	4618      	mov	r0, r3
 8009472:	f000 f8fd 	bl	8009670 <USBD_Get_USB_Status>
 8009476:	4603      	mov	r3, r0
 8009478:	73bb      	strb	r3, [r7, #14]

  return usb_status;
 800947a:	7bbb      	ldrb	r3, [r7, #14]
}
 800947c:	4618      	mov	r0, r3
 800947e:	3710      	adds	r7, #16
 8009480:	46bd      	mov	sp, r7
 8009482:	bd80      	pop	{r7, pc}

08009484 <USBD_LL_StallEP>:
  * @param  pdev: Device handle
  * @param  ep_addr: Endpoint number
  * @retval USBD status
  */
USBD_StatusTypeDef USBD_LL_StallEP(USBD_HandleTypeDef *pdev, uint8_t ep_addr)
{
 8009484:	b580      	push	{r7, lr}
 8009486:	b084      	sub	sp, #16
 8009488:	af00      	add	r7, sp, #0
 800948a:	6078      	str	r0, [r7, #4]
 800948c:	460b      	mov	r3, r1
 800948e:	70fb      	strb	r3, [r7, #3]
  HAL_StatusTypeDef hal_status = HAL_OK;
 8009490:	2300      	movs	r3, #0
 8009492:	73fb      	strb	r3, [r7, #15]
  USBD_StatusTypeDef usb_status = USBD_OK;
 8009494:	2300      	movs	r3, #0
 8009496:	73bb      	strb	r3, [r7, #14]

  hal_status = HAL_PCD_EP_SetStall(pdev->pData, ep_addr);
 8009498:	687b      	ldr	r3, [r7, #4]
 800949a:	f8d3 32c8 	ldr.w	r3, [r3, #712]	@ 0x2c8
 800949e:	78fa      	ldrb	r2, [r7, #3]
 80094a0:	4611      	mov	r1, r2
 80094a2:	4618      	mov	r0, r3
 80094a4:	f7fa f9ec 	bl	8003880 <HAL_PCD_EP_SetStall>
 80094a8:	4603      	mov	r3, r0
 80094aa:	73fb      	strb	r3, [r7, #15]

  usb_status =  USBD_Get_USB_Status(hal_status);
 80094ac:	7bfb      	ldrb	r3, [r7, #15]
 80094ae:	4618      	mov	r0, r3
 80094b0:	f000 f8de 	bl	8009670 <USBD_Get_USB_Status>
 80094b4:	4603      	mov	r3, r0
 80094b6:	73bb      	strb	r3, [r7, #14]

  return usb_status;
 80094b8:	7bbb      	ldrb	r3, [r7, #14]
}
 80094ba:	4618      	mov	r0, r3
 80094bc:	3710      	adds	r7, #16
 80094be:	46bd      	mov	sp, r7
 80094c0:	bd80      	pop	{r7, pc}

080094c2 <USBD_LL_ClearStallEP>:
  * @param  pdev: Device handle
  * @param  ep_addr: Endpoint number
  * @retval USBD status
  */
USBD_StatusTypeDef USBD_LL_ClearStallEP(USBD_HandleTypeDef *pdev, uint8_t ep_addr)
{
 80094c2:	b580      	push	{r7, lr}
 80094c4:	b084      	sub	sp, #16
 80094c6:	af00      	add	r7, sp, #0
 80094c8:	6078      	str	r0, [r7, #4]
 80094ca:	460b      	mov	r3, r1
 80094cc:	70fb      	strb	r3, [r7, #3]
  HAL_StatusTypeDef hal_status = HAL_OK;
 80094ce:	2300      	movs	r3, #0
 80094d0:	73fb      	strb	r3, [r7, #15]
  USBD_StatusTypeDef usb_status = USBD_OK;
 80094d2:	2300      	movs	r3, #0
 80094d4:	73bb      	strb	r3, [r7, #14]

  hal_status = HAL_PCD_EP_ClrStall(pdev->pData, ep_addr);
 80094d6:	687b      	ldr	r3, [r7, #4]
 80094d8:	f8d3 32c8 	ldr.w	r3, [r3, #712]	@ 0x2c8
 80094dc:	78fa      	ldrb	r2, [r7, #3]
 80094de:	4611      	mov	r1, r2
 80094e0:	4618      	mov	r0, r3
 80094e2:	f7fa fa30 	bl	8003946 <HAL_PCD_EP_ClrStall>
 80094e6:	4603      	mov	r3, r0
 80094e8:	73fb      	strb	r3, [r7, #15]

  usb_status =  USBD_Get_USB_Status(hal_status);
 80094ea:	7bfb      	ldrb	r3, [r7, #15]
 80094ec:	4618      	mov	r0, r3
 80094ee:	f000 f8bf 	bl	8009670 <USBD_Get_USB_Status>
 80094f2:	4603      	mov	r3, r0
 80094f4:	73bb      	strb	r3, [r7, #14]

  return usb_status;
 80094f6:	7bbb      	ldrb	r3, [r7, #14]
}
 80094f8:	4618      	mov	r0, r3
 80094fa:	3710      	adds	r7, #16
 80094fc:	46bd      	mov	sp, r7
 80094fe:	bd80      	pop	{r7, pc}

08009500 <USBD_LL_IsStallEP>:
  * @param  pdev: Device handle
  * @param  ep_addr: Endpoint number
  * @retval Stall (1: Yes, 0: No)
  */
uint8_t USBD_LL_IsStallEP(USBD_HandleTypeDef *pdev, uint8_t ep_addr)
{
 8009500:	b480      	push	{r7}
 8009502:	b085      	sub	sp, #20
 8009504:	af00      	add	r7, sp, #0
 8009506:	6078      	str	r0, [r7, #4]
 8009508:	460b      	mov	r3, r1
 800950a:	70fb      	strb	r3, [r7, #3]
  PCD_HandleTypeDef *hpcd = (PCD_HandleTypeDef*) pdev->pData;
 800950c:	687b      	ldr	r3, [r7, #4]
 800950e:	f8d3 32c8 	ldr.w	r3, [r3, #712]	@ 0x2c8
 8009512:	60fb      	str	r3, [r7, #12]

  if((ep_addr & 0x80) == 0x80)
 8009514:	f997 3003 	ldrsb.w	r3, [r7, #3]
 8009518:	2b00      	cmp	r3, #0
 800951a:	da0b      	bge.n	8009534 <USBD_LL_IsStallEP+0x34>
  {
    return hpcd->IN_ep[ep_addr & 0x7F].is_stall;
 800951c:	78fb      	ldrb	r3, [r7, #3]
 800951e:	f003 027f 	and.w	r2, r3, #127	@ 0x7f
 8009522:	68f9      	ldr	r1, [r7, #12]
 8009524:	4613      	mov	r3, r2
 8009526:	00db      	lsls	r3, r3, #3
 8009528:	4413      	add	r3, r2
 800952a:	009b      	lsls	r3, r3, #2
 800952c:	440b      	add	r3, r1
 800952e:	3316      	adds	r3, #22
 8009530:	781b      	ldrb	r3, [r3, #0]
 8009532:	e00b      	b.n	800954c <USBD_LL_IsStallEP+0x4c>
  }
  else
  {
    return hpcd->OUT_ep[ep_addr & 0x7F].is_stall;
 8009534:	78fb      	ldrb	r3, [r7, #3]
 8009536:	f003 027f 	and.w	r2, r3, #127	@ 0x7f
 800953a:	68f9      	ldr	r1, [r7, #12]
 800953c:	4613      	mov	r3, r2
 800953e:	00db      	lsls	r3, r3, #3
 8009540:	4413      	add	r3, r2
 8009542:	009b      	lsls	r3, r3, #2
 8009544:	440b      	add	r3, r1
 8009546:	f203 2356 	addw	r3, r3, #598	@ 0x256
 800954a:	781b      	ldrb	r3, [r3, #0]
  }
}
 800954c:	4618      	mov	r0, r3
 800954e:	3714      	adds	r7, #20
 8009550:	46bd      	mov	sp, r7
 8009552:	f85d 7b04 	ldr.w	r7, [sp], #4
 8009556:	4770      	bx	lr

08009558 <USBD_LL_SetUSBAddress>:
  * @param  pdev: Device handle
  * @param  dev_addr: Device address
  * @retval USBD status
  */
USBD_StatusTypeDef USBD_LL_SetUSBAddress(USBD_HandleTypeDef *pdev, uint8_t dev_addr)
{
 8009558:	b580      	push	{r7, lr}
 800955a:	b084      	sub	sp, #16
 800955c:	af00      	add	r7, sp, #0
 800955e:	6078      	str	r0, [r7, #4]
 8009560:	460b      	mov	r3, r1
 8009562:	70fb      	strb	r3, [r7, #3]
  HAL_StatusTypeDef hal_status = HAL_OK;
 8009564:	2300      	movs	r3, #0
 8009566:	73fb      	strb	r3, [r7, #15]
  USBD_StatusTypeDef usb_status = USBD_OK;
 8009568:	2300      	movs	r3, #0
 800956a:	73bb      	strb	r3, [r7, #14]

  hal_status = HAL_PCD_SetAddress(pdev->pData, dev_addr);
 800956c:	687b      	ldr	r3, [r7, #4]
 800956e:	f8d3 32c8 	ldr.w	r3, [r3, #712]	@ 0x2c8
 8009572:	78fa      	ldrb	r2, [r7, #3]
 8009574:	4611      	mov	r1, r2
 8009576:	4618      	mov	r0, r3
 8009578:	f7fa f81d 	bl	80035b6 <HAL_PCD_SetAddress>
 800957c:	4603      	mov	r3, r0
 800957e:	73fb      	strb	r3, [r7, #15]

  usb_status =  USBD_Get_USB_Status(hal_status);
 8009580:	7bfb      	ldrb	r3, [r7, #15]
 8009582:	4618      	mov	r0, r3
 8009584:	f000 f874 	bl	8009670 <USBD_Get_USB_Status>
 8009588:	4603      	mov	r3, r0
 800958a:	73bb      	strb	r3, [r7, #14]

  return usb_status;
 800958c:	7bbb      	ldrb	r3, [r7, #14]
}
 800958e:	4618      	mov	r0, r3
 8009590:	3710      	adds	r7, #16
 8009592:	46bd      	mov	sp, r7
 8009594:	bd80      	pop	{r7, pc}

08009596 <USBD_LL_Transmit>:
  * @param  pbuf: Pointer to data to be sent
  * @param  size: Data size
  * @retval USBD status
  */
USBD_StatusTypeDef USBD_LL_Transmit(USBD_HandleTypeDef *pdev, uint8_t ep_addr, uint8_t *pbuf, uint32_t size)
{
 8009596:	b580      	push	{r7, lr}
 8009598:	b086      	sub	sp, #24
 800959a:	af00      	add	r7, sp, #0
 800959c:	60f8      	str	r0, [r7, #12]
 800959e:	607a      	str	r2, [r7, #4]
 80095a0:	603b      	str	r3, [r7, #0]
 80095a2:	460b      	mov	r3, r1
 80095a4:	72fb      	strb	r3, [r7, #11]
  HAL_StatusTypeDef hal_status = HAL_OK;
 80095a6:	2300      	movs	r3, #0
 80095a8:	75fb      	strb	r3, [r7, #23]
  USBD_StatusTypeDef usb_status = USBD_OK;
 80095aa:	2300      	movs	r3, #0
 80095ac:	75bb      	strb	r3, [r7, #22]

  hal_status = HAL_PCD_EP_Transmit(pdev->pData, ep_addr, pbuf, size);
 80095ae:	68fb      	ldr	r3, [r7, #12]
 80095b0:	f8d3 02c8 	ldr.w	r0, [r3, #712]	@ 0x2c8
 80095b4:	7af9      	ldrb	r1, [r7, #11]
 80095b6:	683b      	ldr	r3, [r7, #0]
 80095b8:	687a      	ldr	r2, [r7, #4]
 80095ba:	f7fa f927 	bl	800380c <HAL_PCD_EP_Transmit>
 80095be:	4603      	mov	r3, r0
 80095c0:	75fb      	strb	r3, [r7, #23]

  usb_status =  USBD_Get_USB_Status(hal_status);
 80095c2:	7dfb      	ldrb	r3, [r7, #23]
 80095c4:	4618      	mov	r0, r3
 80095c6:	f000 f853 	bl	8009670 <USBD_Get_USB_Status>
 80095ca:	4603      	mov	r3, r0
 80095cc:	75bb      	strb	r3, [r7, #22]

  return usb_status;
 80095ce:	7dbb      	ldrb	r3, [r7, #22]
}
 80095d0:	4618      	mov	r0, r3
 80095d2:	3718      	adds	r7, #24
 80095d4:	46bd      	mov	sp, r7
 80095d6:	bd80      	pop	{r7, pc}

080095d8 <USBD_LL_PrepareReceive>:
  * @param  pbuf: Pointer to data to be received
  * @param  size: Data size
  * @retval USBD status
  */
USBD_StatusTypeDef USBD_LL_PrepareReceive(USBD_HandleTypeDef *pdev, uint8_t ep_addr, uint8_t *pbuf, uint32_t size)
{
 80095d8:	b580      	push	{r7, lr}
 80095da:	b086      	sub	sp, #24
 80095dc:	af00      	add	r7, sp, #0
 80095de:	60f8      	str	r0, [r7, #12]
 80095e0:	607a      	str	r2, [r7, #4]
 80095e2:	603b      	str	r3, [r7, #0]
 80095e4:	460b      	mov	r3, r1
 80095e6:	72fb      	strb	r3, [r7, #11]
  HAL_StatusTypeDef hal_status = HAL_OK;
 80095e8:	2300      	movs	r3, #0
 80095ea:	75fb      	strb	r3, [r7, #23]
  USBD_StatusTypeDef usb_status = USBD_OK;
 80095ec:	2300      	movs	r3, #0
 80095ee:	75bb      	strb	r3, [r7, #22]

  hal_status = HAL_PCD_EP_Receive(pdev->pData, ep_addr, pbuf, size);
 80095f0:	68fb      	ldr	r3, [r7, #12]
 80095f2:	f8d3 02c8 	ldr.w	r0, [r3, #712]	@ 0x2c8
 80095f6:	7af9      	ldrb	r1, [r7, #11]
 80095f8:	683b      	ldr	r3, [r7, #0]
 80095fa:	687a      	ldr	r2, [r7, #4]
 80095fc:	f7fa f8b3 	bl	8003766 <HAL_PCD_EP_Receive>
 8009600:	4603      	mov	r3, r0
 8009602:	75fb      	strb	r3, [r7, #23]

  usb_status =  USBD_Get_USB_Status(hal_status);
 8009604:	7dfb      	ldrb	r3, [r7, #23]
 8009606:	4618      	mov	r0, r3
 8009608:	f000 f832 	bl	8009670 <USBD_Get_USB_Status>
 800960c:	4603      	mov	r3, r0
 800960e:	75bb      	strb	r3, [r7, #22]

  return usb_status;
 8009610:	7dbb      	ldrb	r3, [r7, #22]
}
 8009612:	4618      	mov	r0, r3
 8009614:	3718      	adds	r7, #24
 8009616:	46bd      	mov	sp, r7
 8009618:	bd80      	pop	{r7, pc}

0800961a <USBD_LL_GetRxDataSize>:
  * @param  pdev: Device handle
  * @param  ep_addr: Endpoint number
  * @retval Received Data Size
  */
uint32_t USBD_LL_GetRxDataSize(USBD_HandleTypeDef *pdev, uint8_t ep_addr)
{
 800961a:	b580      	push	{r7, lr}
 800961c:	b082      	sub	sp, #8
 800961e:	af00      	add	r7, sp, #0
 8009620:	6078      	str	r0, [r7, #4]
 8009622:	460b      	mov	r3, r1
 8009624:	70fb      	strb	r3, [r7, #3]
  return HAL_PCD_EP_GetRxCount((PCD_HandleTypeDef*) pdev->pData, ep_addr);
 8009626:	687b      	ldr	r3, [r7, #4]
 8009628:	f8d3 32c8 	ldr.w	r3, [r3, #712]	@ 0x2c8
 800962c:	78fa      	ldrb	r2, [r7, #3]
 800962e:	4611      	mov	r1, r2
 8009630:	4618      	mov	r0, r3
 8009632:	f7fa f8d3 	bl	80037dc <HAL_PCD_EP_GetRxCount>
 8009636:	4603      	mov	r3, r0
}
 8009638:	4618      	mov	r0, r3
 800963a:	3708      	adds	r7, #8
 800963c:	46bd      	mov	sp, r7
 800963e:	bd80      	pop	{r7, pc}

08009640 <USBD_static_malloc>:
  * @brief  Static single allocation.
  * @param  size: Size of allocated memory
  * @retval None
  */
void *USBD_static_malloc(uint32_t size)
{
 8009640:	b480      	push	{r7}
 8009642:	b083      	sub	sp, #12
 8009644:	af00      	add	r7, sp, #0
 8009646:	6078      	str	r0, [r7, #4]
  static uint32_t mem[(sizeof(USBD_CDC_HandleTypeDef)/4)+1];/* On 32-bit boundary */
  return mem;
 8009648:	4b03      	ldr	r3, [pc, #12]	@ (8009658 <USBD_static_malloc+0x18>)
}
 800964a:	4618      	mov	r0, r3
 800964c:	370c      	adds	r7, #12
 800964e:	46bd      	mov	sp, r7
 8009650:	f85d 7b04 	ldr.w	r7, [sp], #4
 8009654:	4770      	bx	lr
 8009656:	bf00      	nop
 8009658:	200024ac 	.word	0x200024ac

0800965c <USBD_static_free>:
  * @brief  Dummy memory free
  * @param  p: Pointer to allocated  memory address
  * @retval None
  */
void USBD_static_free(void *p)
{
 800965c:	b480      	push	{r7}
 800965e:	b083      	sub	sp, #12
 8009660:	af00      	add	r7, sp, #0
 8009662:	6078      	str	r0, [r7, #4]

}
 8009664:	bf00      	nop
 8009666:	370c      	adds	r7, #12
 8009668:	46bd      	mov	sp, r7
 800966a:	f85d 7b04 	ldr.w	r7, [sp], #4
 800966e:	4770      	bx	lr

08009670 <USBD_Get_USB_Status>:
  * @brief  Returns the USB status depending on the HAL status:
  * @param  hal_status: HAL status
  * @retval USB status
  */
USBD_StatusTypeDef USBD_Get_USB_Status(HAL_StatusTypeDef hal_status)
{
 8009670:	b480      	push	{r7}
 8009672:	b085      	sub	sp, #20
 8009674:	af00      	add	r7, sp, #0
 8009676:	4603      	mov	r3, r0
 8009678:	71fb      	strb	r3, [r7, #7]
  USBD_StatusTypeDef usb_status = USBD_OK;
 800967a:	2300      	movs	r3, #0
 800967c:	73fb      	strb	r3, [r7, #15]

  switch (hal_status)
 800967e:	79fb      	ldrb	r3, [r7, #7]
 8009680:	2b03      	cmp	r3, #3
 8009682:	d817      	bhi.n	80096b4 <USBD_Get_USB_Status+0x44>
 8009684:	a201      	add	r2, pc, #4	@ (adr r2, 800968c <USBD_Get_USB_Status+0x1c>)
 8009686:	f852 f023 	ldr.w	pc, [r2, r3, lsl #2]
 800968a:	bf00      	nop
 800968c:	0800969d 	.word	0x0800969d
 8009690:	080096a3 	.word	0x080096a3
 8009694:	080096a9 	.word	0x080096a9
 8009698:	080096af 	.word	0x080096af
  {
    case HAL_OK :
      usb_status = USBD_OK;
 800969c:	2300      	movs	r3, #0
 800969e:	73fb      	strb	r3, [r7, #15]
    break;
 80096a0:	e00b      	b.n	80096ba <USBD_Get_USB_Status+0x4a>
    case HAL_ERROR :
      usb_status = USBD_FAIL;
 80096a2:	2303      	movs	r3, #3
 80096a4:	73fb      	strb	r3, [r7, #15]
    break;
 80096a6:	e008      	b.n	80096ba <USBD_Get_USB_Status+0x4a>
    case HAL_BUSY :
      usb_status = USBD_BUSY;
 80096a8:	2301      	movs	r3, #1
 80096aa:	73fb      	strb	r3, [r7, #15]
    break;
 80096ac:	e005      	b.n	80096ba <USBD_Get_USB_Status+0x4a>
    case HAL_TIMEOUT :
      usb_status = USBD_FAIL;
 80096ae:	2303      	movs	r3, #3
 80096b0:	73fb      	strb	r3, [r7, #15]
    break;
 80096b2:	e002      	b.n	80096ba <USBD_Get_USB_Status+0x4a>
    default :
      usb_status = USBD_FAIL;
 80096b4:	2303      	movs	r3, #3
 80096b6:	73fb      	strb	r3, [r7, #15]
    break;
 80096b8:	bf00      	nop
  }
  return usb_status;
 80096ba:	7bfb      	ldrb	r3, [r7, #15]
}
 80096bc:	4618      	mov	r0, r3
 80096be:	3714      	adds	r7, #20
 80096c0:	46bd      	mov	sp, r7
 80096c2:	f85d 7b04 	ldr.w	r7, [sp], #4
 80096c6:	4770      	bx	lr

080096c8 <memset>:
 80096c8:	4402      	add	r2, r0
 80096ca:	4603      	mov	r3, r0
 80096cc:	4293      	cmp	r3, r2
 80096ce:	d100      	bne.n	80096d2 <memset+0xa>
 80096d0:	4770      	bx	lr
 80096d2:	f803 1b01 	strb.w	r1, [r3], #1
 80096d6:	e7f9      	b.n	80096cc <memset+0x4>

080096d8 <__libc_init_array>:
 80096d8:	b570      	push	{r4, r5, r6, lr}
 80096da:	4b0d      	ldr	r3, [pc, #52]	@ (8009710 <__libc_init_array+0x38>)
 80096dc:	4d0d      	ldr	r5, [pc, #52]	@ (8009714 <__libc_init_array+0x3c>)
 80096de:	1b5b      	subs	r3, r3, r5
 80096e0:	109c      	asrs	r4, r3, #2
 80096e2:	2600      	movs	r6, #0
 80096e4:	42a6      	cmp	r6, r4
 80096e6:	d109      	bne.n	80096fc <__libc_init_array+0x24>
 80096e8:	f000 f81a 	bl	8009720 <_init>
 80096ec:	4d0a      	ldr	r5, [pc, #40]	@ (8009718 <__libc_init_array+0x40>)
 80096ee:	4b0b      	ldr	r3, [pc, #44]	@ (800971c <__libc_init_array+0x44>)
 80096f0:	1b5b      	subs	r3, r3, r5
 80096f2:	109c      	asrs	r4, r3, #2
 80096f4:	2600      	movs	r6, #0
 80096f6:	42a6      	cmp	r6, r4
 80096f8:	d105      	bne.n	8009706 <__libc_init_array+0x2e>
 80096fa:	bd70      	pop	{r4, r5, r6, pc}
 80096fc:	f855 3b04 	ldr.w	r3, [r5], #4
 8009700:	4798      	blx	r3
 8009702:	3601      	adds	r6, #1
 8009704:	e7ee      	b.n	80096e4 <__libc_init_array+0xc>
 8009706:	f855 3b04 	ldr.w	r3, [r5], #4
 800970a:	4798      	blx	r3
 800970c:	3601      	adds	r6, #1
 800970e:	e7f2      	b.n	80096f6 <__libc_init_array+0x1e>
 8009710:	080097b8 	.word	0x080097b8
 8009714:	080097b8 	.word	0x080097b8
 8009718:	080097b8 	.word	0x080097b8
 800971c:	080097bc 	.word	0x080097bc

08009720 <_init>:
 8009720:	b5f8      	push	{r3, r4, r5, r6, r7, lr}
 8009722:	bf00      	nop
 8009724:	bcf8      	pop	{r3, r4, r5, r6, r7}
 8009726:	bc08      	pop	{r3}
 8009728:	469e      	mov	lr, r3
 800972a:	4770      	bx	lr

0800972c <_fini>:
 800972c:	b5f8      	push	{r3, r4, r5, r6, r7, lr}
 800972e:	bf00      	nop
 8009730:	bcf8      	pop	{r3, r4, r5, r6, r7}
 8009732:	bc08      	pop	{r3}
 8009734:	469e      	mov	lr, r3
 8009736:	4770      	bx	lr
